

Microchip MPLAB XC8 Assembler V3.00 build 20241204225717 
                                                                                               Thu May 08 00:48:19 2025

Microchip MPLAB XC8 C Compiler v3.00 (Free license) build 20241204225717 Og1 
     1                           	processor	18F47K42
     2                           	fnconf	rparam,??,?,0
     3                           	pagewidth 120
     4                           	opt	flic
     5                           	psect	smallconst,global,reloc=2,class=SMALLCONST,space=0,delta=1,noexec
     6                           	psect	cinit,global,reloc=2,class=CODE,space=0,delta=1
     7                           	psect	bssCOMRAM,global,class=COMRAM,space=1,delta=1,lowdata,noexec
     8                           	psect	bssBANK0,global,class=BANK0,space=1,delta=1,lowdata,noexec
     9                           	psect	bssBANK1,global,class=BANK1,space=1,delta=1,lowdata,noexec
    10                           	psect	cstackBANK0,global,class=BANK0,space=1,delta=1,lowdata,noexec
    11                           	psect	cstackCOMRAM,global,class=COMRAM,space=1,delta=1,lowdata,noexec
    12                           	psect	text0,global,reloc=2,class=CODE,space=0,delta=1
    13                           	psect	text1,global,reloc=2,class=CODE,space=0,delta=1,group=3
    14                           	psect	text2,global,reloc=2,class=CODE,space=0,delta=1,group=3
    15                           	psect	text3,global,reloc=2,class=CODE,space=0,delta=1,group=1
    16                           	psect	text4,global,reloc=2,class=CODE,space=0,delta=1,group=1
    17                           	psect	text5,global,reloc=2,class=CODE,space=0,delta=1,group=1
    18                           	psect	text6,global,reloc=2,class=CODE,space=0,delta=1,group=1
    19                           	psect	text7,global,reloc=2,class=CODE,space=0,delta=1,group=3
    20                           	psect	text8,global,reloc=2,class=CODE,space=0,delta=1,group=3
    21                           	psect	text9,global,reloc=2,class=CODE,space=0,delta=1,group=3
    22                           	psect	text10,global,reloc=2,class=CODE,space=0,delta=1,group=3
    23                           	psect	text11,global,reloc=2,class=CODE,space=0,delta=1,group=3
    24                           	psect	text12,global,reloc=2,class=CODE,space=0,delta=1,group=2
    25                           	psect	text13,global,reloc=2,class=CODE,space=0,delta=1,group=2
    26                           	psect	text14,global,reloc=2,class=CODE,space=0,delta=1,group=2
    27                           	psect	text15,global,reloc=2,class=CODE,space=0,delta=1,group=2
    28                           	psect	text16,global,reloc=2,class=CODE,space=0,delta=1,group=2
    29                           	psect	text17,global,reloc=2,class=CODE,space=0,delta=1,group=2
    30                           	psect	text18,global,reloc=2,class=CODE,space=0,delta=1,group=2
    31                           	psect	text19,global,reloc=2,class=CODE,space=0,delta=1,group=2
    32                           	psect	text20,global,reloc=2,class=CODE,space=0,delta=1,group=1
    33                           	psect	text21,global,reloc=2,class=CODE,space=0,delta=1,group=1
    34                           	psect	text22,global,reloc=2,class=CODE,space=0,delta=1,group=3
    35                           	psect	text23,global,reloc=2,class=CODE,space=0,delta=1,group=3
    36                           	psect	text24,global,reloc=2,class=CODE,space=0,delta=1,group=3
    37                           	psect	text25,global,reloc=2,class=CODE,space=0,delta=1,group=3
    38                           	psect	text26,global,reloc=2,class=CODE,space=0,delta=1,group=2
    39                           	psect	text27,global,reloc=2,class=CODE,space=0,delta=1,group=2
    40                           	psect	text28,global,reloc=2,class=CODE,space=0,delta=1,group=3
    41                           	psect	text29,global,reloc=2,class=CODE,space=0,delta=1,group=2
    42                           	psect	text30,global,reloc=2,class=CODE,space=0,delta=1,group=2
    43                           	psect	text31,global,reloc=2,class=CODE,space=0,delta=1
    44                           	psect	text32,global,reloc=2,class=CODE,space=0,delta=1
    45                           	psect	text33,global,reloc=2,class=CODE,space=0,delta=1
    46                           	psect	text34,global,reloc=2,class=CODE,space=0,delta=1
    47                           	psect	text35,global,reloc=2,class=CODE,space=0,delta=1
    48                           	psect	text36,global,reloc=2,class=CODE,space=0,delta=1
    49                           	psect	text37,global,reloc=2,class=CODE,space=0,delta=1
    50                           	psect	text38,global,reloc=2,class=CODE,space=0,delta=1
    51                           	psect	intsave_regs,global,class=BIGRAM,space=1,delta=1,noexec
    52                           	psect	rparam,global,class=COMRAM,space=1,delta=1,noexec
    53                           	psect	config,global,abs,ovrld,class=CONFIG,space=4,delta=1,noexec
    54   000000                     
    55                           ; Generated 12/10/2023 GMT
    56                           ; 
    57                           ; Copyright © 2023, Microchip Technology Inc. and its subsidiaries ("Microchip")
    58                           ; All rights reserved.
    59                           ; 
    60                           ; This software is developed by Microchip Technology Inc. and its subsidiaries ("Microch
      +                          ip").
    61                           ; 
    62                           ; Redistribution and use in source and binary forms, with or without modification, are
    63                           ; permitted provided that the following conditions are met:
    64                           ; 
    65                           ;     1. Redistributions of source code must retain the above copyright notice, this lis
      +                          t of
    66                           ;        conditions and the following disclaimer.
    67                           ; 
    68                           ;     2. Redistributions in binary form must reproduce the above copyright notice, this 
      +                          list
    69                           ;        of conditions and the following disclaimer in the documentation and/or other
    70                           ;        materials provided with the distribution. Publication is not required when
    71                           ;        this file is used in an embedded application.
    72                           ; 
    73                           ;     3. Microchip's name may not be used to endorse or promote products derived from th
      +                          is
    74                           ;        software without specific prior written permission.
    75                           ; 
    76                           ; THIS SOFTWARE IS PROVIDED BY MICROCHIP "AS IS" AND ANY EXPRESS OR IMPLIED WARRANTIES,
    77                           ; INCLUDING, BUT NOT LIMITED TO, THE IMPLIED WARRANTIES OF MERCHANTABILITY AND FITNESS F
      +                          OR
    78                           ; PURPOSE ARE DISCLAIMED.  IN NO EVENT SHALL MICROCHIP BE LIABLE FOR ANY DIRECT, INDIREC
      +                          T,
    79                           ; INCIDENTAL, SPECIAL, EXEMPLARY, OR CONSEQUENTIAL DAMAGES (INCLUDING BUT NOT LIMITED TO
    80                           ; PROCUREMENT OF SUBSTITUTE GOODS OR SERVICES; LOSS OF USE, DATA OR PROFITS; OR BUSINESS
    81                           ; INTERRUPTION) HOWSOEVER CAUSED AND ON ANY THEORY OF LIABILITY, WHETHER IN CONTRACT, ST
      +                          RICT
    82                           ; LIABILITY, OR TORT (INCLUDING NEGLIGENCE OR OTHERWISE) ARISING IN ANY WAY OUT OF THE U
      +                          SE OF
    83                           ; THIS SOFTWARE, EVEN IF ADVISED OF THE POSSIBILITY OF SUCH DAMAGE.
    84                           ; 
    85                           ; 
    86                           ; Code-generator required, PIC18F47K42 Definitions
    87                           ; 
    88                           ; SFR Addresses
    89   003FE0                     bsr             equ	16352
    90   003FE9                     fsr0            equ	16361
    91   003FEA                     fsr0h           equ	16362
    92   003FE9                     fsr0l           equ	16361
    93   003FE1                     fsr1            equ	16353
    94   003FE2                     fsr1h           equ	16354
    95   003FE1                     fsr1l           equ	16353
    96   003FD9                     fsr2            equ	16345
    97   003FDA                     fsr2h           equ	16346
    98   003FD9                     fsr2l           equ	16345
    99   003FEF                     indf0           equ	16367
   100   003FE7                     indf1           equ	16359
   101   003FDF                     indf2           equ	16351
   102   003FD2                     intcon          equ	16338
   103   0039E5                     nvmcon          equ	14821
   104   003FF9                     pcl             equ	16377
   105   003FFA                     pclath          equ	16378
   106   003FFB                     pclatu          equ	16379
   107   003FEB                     plusw0          equ	16363
   108   003FE3                     plusw1          equ	16355
   109   003FDB                     plusw2          equ	16347
   110   003FED                     postdec0        equ	16365
   111   003FE5                     postdec1        equ	16357
   112   003FDD                     postdec2        equ	16349
   113   003FEE                     postinc0        equ	16366
   114   003FE6                     postinc1        equ	16358
   115   003FDE                     postinc2        equ	16350
   116   003FEC                     preinc0         equ	16364
   117   003FE4                     preinc1         equ	16356
   118   003FDC                     preinc2         equ	16348
   119   003FF3                     prod            equ	16371
   120   003FF4                     prodh           equ	16372
   121   003FF3                     prodl           equ	16371
   122   003FD8                     status          equ	16344
   123   003FF5                     tablat          equ	16373
   124   003FF6                     tblptr          equ	16374
   125   003FF7                     tblptrh         equ	16375
   126   003FF6                     tblptrl         equ	16374
   127   003FF8                     tblptru         equ	16376
   128   003FFD                     tosl            equ	16381
   129   003FE8                     wreg            equ	16360
   130   003880                     STATUS_CSHAD    equ	14464	;# 
   131   003881                     WREG_CSHAD      equ	14465	;# 
   132   003882                     BSR_CSHAD       equ	14466	;# 
   133   003883                     SHADCON         equ	14467	;# 
   134   003884                     STATUS_SHAD     equ	14468	;# 
   135   003885                     WREG_SHAD       equ	14469	;# 
   136   003886                     BSR_SHAD        equ	14470	;# 
   137   003887                     PCLATH_SHAD     equ	14471	;# 
   138   003888                     PCLATU_SHAD     equ	14472	;# 
   139   003889                     FSR0SH          equ	14473	;# 
   140   003889                     FSR0L_SHAD      equ	14473	;# 
   141   00388A                     FSR0H_SHAD      equ	14474	;# 
   142   00388B                     FSR1SH          equ	14475	;# 
   143   00388B                     FSR1L_SHAD      equ	14475	;# 
   144   00388C                     FSR1H_SHAD      equ	14476	;# 
   145   00388D                     FSR2SH          equ	14477	;# 
   146   00388D                     FSR2L_SHAD      equ	14477	;# 
   147   00388E                     FSR2H_SHAD      equ	14478	;# 
   148   00388F                     PRODSH          equ	14479	;# 
   149   00388F                     PRODL_SHAD      equ	14479	;# 
   150   003890                     PRODH_SHAD      equ	14480	;# 
   151   00389D                     IVTADL          equ	14493	;# 
   152   00389E                     IVTADH          equ	14494	;# 
   153   00389F                     IVTADU          equ	14495	;# 
   154   00395B                     WDTCON0         equ	14683	;# 
   155   00395C                     WDTCON1         equ	14684	;# 
   156   00395D                     WDTPSL          equ	14685	;# 
   157   00395E                     WDTPSH          equ	14686	;# 
   158   00395F                     WDTTMR          equ	14687	;# 
   159   003960                     CRCDATA         equ	14688	;# 
   160   003960                     CRCDATL         equ	14688	;# 
   161   003961                     CRCDATH         equ	14689	;# 
   162   003962                     CRCACC          equ	14690	;# 
   163   003962                     CRCACCL         equ	14690	;# 
   164   003963                     CRCACCH         equ	14691	;# 
   165   003964                     CRCSHFT         equ	14692	;# 
   166   003964                     CRCSHIFTL       equ	14692	;# 
   167   003965                     CRCSHIFTH       equ	14693	;# 
   168   003966                     CRCXOR          equ	14694	;# 
   169   003966                     CRCXORL         equ	14694	;# 
   170   003967                     CRCXORH         equ	14695	;# 
   171   003968                     CRCCON0         equ	14696	;# 
   172   003969                     CRCCON1         equ	14697	;# 
   173   003976                     SCANLADR        equ	14710	;# 
   174   003976                     SCANLADRL       equ	14710	;# 
   175   003977                     SCANLADRH       equ	14711	;# 
   176   003978                     SCANLADRU       equ	14712	;# 
   177   003979                     SCANHADR        equ	14713	;# 
   178   003979                     SCANHADRL       equ	14713	;# 
   179   00397A                     SCANHADRH       equ	14714	;# 
   180   00397B                     SCANHADRU       equ	14715	;# 
   181   00397C                     SCANCON0        equ	14716	;# 
   182   00397D                     SCANTRIG        equ	14717	;# 
   183   003980                     IPR0            equ	14720	;# 
   184   003981                     IPR1            equ	14721	;# 
   185   003982                     IPR2            equ	14722	;# 
   186   003983                     IPR3            equ	14723	;# 
   187   003984                     IPR4            equ	14724	;# 
   188   003985                     IPR5            equ	14725	;# 
   189   003986                     IPR6            equ	14726	;# 
   190   003987                     IPR7            equ	14727	;# 
   191   003988                     IPR8            equ	14728	;# 
   192   003989                     IPR9            equ	14729	;# 
   193   00398A                     IPR10           equ	14730	;# 
   194   003990                     PIE0            equ	14736	;# 
   195   003991                     PIE1            equ	14737	;# 
   196   003992                     PIE2            equ	14738	;# 
   197   003993                     PIE3            equ	14739	;# 
   198   003994                     PIE4            equ	14740	;# 
   199   003995                     PIE5            equ	14741	;# 
   200   003996                     PIE6            equ	14742	;# 
   201   003997                     PIE7            equ	14743	;# 
   202   003998                     PIE8            equ	14744	;# 
   203   003999                     PIE9            equ	14745	;# 
   204   00399A                     PIE10           equ	14746	;# 
   205   0039A0                     PIR0            equ	14752	;# 
   206   0039A1                     PIR1            equ	14753	;# 
   207   0039A2                     PIR2            equ	14754	;# 
   208   0039A3                     PIR3            equ	14755	;# 
   209   0039A4                     PIR4            equ	14756	;# 
   210   0039A5                     PIR5            equ	14757	;# 
   211   0039A6                     PIR6            equ	14758	;# 
   212   0039A7                     PIR7            equ	14759	;# 
   213   0039A8                     PIR8            equ	14760	;# 
   214   0039A9                     PIR9            equ	14761	;# 
   215   0039AA                     PIR10           equ	14762	;# 
   216   0039C0                     PMD0            equ	14784	;# 
   217   0039C1                     PMD1            equ	14785	;# 
   218   0039C2                     PMD2            equ	14786	;# 
   219   0039C3                     PMD3            equ	14787	;# 
   220   0039C4                     PMD4            equ	14788	;# 
   221   0039C5                     PMD5            equ	14789	;# 
   222   0039C6                     PMD6            equ	14790	;# 
   223   0039C7                     PMD7            equ	14791	;# 
   224   0039D0                     BORCON          equ	14800	;# 
   225   0039D1                     VREGCON         equ	14801	;# 
   226   0039D8                     CPUDOZE         equ	14808	;# 
   227   0039D9                     OSCCON1         equ	14809	;# 
   228   0039DA                     OSCCON2         equ	14810	;# 
   229   0039DB                     OSCCON3         equ	14811	;# 
   230   0039DC                     OSCSTAT         equ	14812	;# 
   231   0039DC                     OSCSTAT1        equ	14812	;# 
   232   0039DD                     OSCEN           equ	14813	;# 
   233   0039DE                     OSCTUNE         equ	14814	;# 
   234   0039DF                     OSCFRQ          equ	14815	;# 
   235   0039E0                     NVMADRL         equ	14816	;# 
   236   0039E1                     NVMADRH         equ	14817	;# 
   237   0039E3                     NVMDAT          equ	14819	;# 
   238   0039E5                     NVMCON1         equ	14821	;# 
   239   0039E6                     NVMCON2         equ	14822	;# 
   240   0039EF                     PRLOCK          equ	14831	;# 
   241   0039F1                     ISRPR           equ	14833	;# 
   242   0039F2                     MAINPR          equ	14834	;# 
   243   0039F3                     DMA1PR          equ	14835	;# 
   244   0039F4                     DMA2PR          equ	14836	;# 
   245   0039F7                     SCANPR          equ	14839	;# 
   246   003A00                     RA0PPS          equ	14848	;# 
   247   003A01                     RA1PPS          equ	14849	;# 
   248   003A02                     RA2PPS          equ	14850	;# 
   249   003A03                     RA3PPS          equ	14851	;# 
   250   003A04                     RA4PPS          equ	14852	;# 
   251   003A05                     RA5PPS          equ	14853	;# 
   252   003A06                     RA6PPS          equ	14854	;# 
   253   003A07                     RA7PPS          equ	14855	;# 
   254   003A08                     RB0PPS          equ	14856	;# 
   255   003A09                     RB1PPS          equ	14857	;# 
   256   003A0A                     RB2PPS          equ	14858	;# 
   257   003A0B                     RB3PPS          equ	14859	;# 
   258   003A0C                     RB4PPS          equ	14860	;# 
   259   003A0D                     RB5PPS          equ	14861	;# 
   260   003A0E                     RB6PPS          equ	14862	;# 
   261   003A0F                     RB7PPS          equ	14863	;# 
   262   003A10                     RC0PPS          equ	14864	;# 
   263   003A11                     RC1PPS          equ	14865	;# 
   264   003A12                     RC2PPS          equ	14866	;# 
   265   003A13                     RC3PPS          equ	14867	;# 
   266   003A14                     RC4PPS          equ	14868	;# 
   267   003A15                     RC5PPS          equ	14869	;# 
   268   003A16                     RC6PPS          equ	14870	;# 
   269   003A17                     RC7PPS          equ	14871	;# 
   270   003A18                     RD0PPS          equ	14872	;# 
   271   003A19                     RD1PPS          equ	14873	;# 
   272   003A1A                     RD2PPS          equ	14874	;# 
   273   003A1B                     RD3PPS          equ	14875	;# 
   274   003A1C                     RD4PPS          equ	14876	;# 
   275   003A1D                     RD5PPS          equ	14877	;# 
   276   003A1E                     RD6PPS          equ	14878	;# 
   277   003A1F                     RD7PPS          equ	14879	;# 
   278   003A20                     RE0PPS          equ	14880	;# 
   279   003A21                     RE1PPS          equ	14881	;# 
   280   003A22                     RE2PPS          equ	14882	;# 
   281   003A40                     ANSELA          equ	14912	;# 
   282   003A41                     WPUA            equ	14913	;# 
   283   003A42                     ODCONA          equ	14914	;# 
   284   003A43                     SLRCONA         equ	14915	;# 
   285   003A44                     INLVLA          equ	14916	;# 
   286   003A45                     IOCAP           equ	14917	;# 
   287   003A46                     IOCAN           equ	14918	;# 
   288   003A47                     IOCAF           equ	14919	;# 
   289   003A50                     ANSELB          equ	14928	;# 
   290   003A51                     WPUB            equ	14929	;# 
   291   003A52                     ODCONB          equ	14930	;# 
   292   003A53                     SLRCONB         equ	14931	;# 
   293   003A54                     INLVLB          equ	14932	;# 
   294   003A55                     IOCBP           equ	14933	;# 
   295   003A56                     IOCBN           equ	14934	;# 
   296   003A57                     IOCBF           equ	14935	;# 
   297   003A5A                     RB1I2C          equ	14938	;# 
   298   003A5B                     RB2I2C          equ	14939	;# 
   299   003A60                     ANSELC          equ	14944	;# 
   300   003A61                     WPUC            equ	14945	;# 
   301   003A62                     ODCONC          equ	14946	;# 
   302   003A63                     SLRCONC         equ	14947	;# 
   303   003A64                     INLVLC          equ	14948	;# 
   304   003A65                     IOCCP           equ	14949	;# 
   305   003A66                     IOCCN           equ	14950	;# 
   306   003A67                     IOCCF           equ	14951	;# 
   307   003A6A                     RC3I2C          equ	14954	;# 
   308   003A6B                     RC4I2C          equ	14955	;# 
   309   003A70                     ANSELD          equ	14960	;# 
   310   003A71                     WPUD            equ	14961	;# 
   311   003A72                     ODCOND          equ	14962	;# 
   312   003A73                     SLRCOND         equ	14963	;# 
   313   003A74                     INLVLD          equ	14964	;# 
   314   003A7A                     RD0I2C          equ	14970	;# 
   315   003A7B                     RD1I2C          equ	14971	;# 
   316   003A80                     ANSELE          equ	14976	;# 
   317   003A81                     WPUE            equ	14977	;# 
   318   003A82                     ODCONE          equ	14978	;# 
   319   003A83                     SLRCONE         equ	14979	;# 
   320   003A84                     INLVLE          equ	14980	;# 
   321   003A85                     IOCEP           equ	14981	;# 
   322   003A86                     IOCEN           equ	14982	;# 
   323   003A87                     IOCEF           equ	14983	;# 
   324   003ABF                     PPSLOCK         equ	15039	;# 
   325   003AC0                     INT0PPS         equ	15040	;# 
   326   003AC1                     INT1PPS         equ	15041	;# 
   327   003AC2                     INT2PPS         equ	15042	;# 
   328   003AC3                     T0CKIPPS        equ	15043	;# 
   329   003AC4                     T1CKIPPS        equ	15044	;# 
   330   003AC5                     T1GPPS          equ	15045	;# 
   331   003AC6                     T3CKIPPS        equ	15046	;# 
   332   003AC7                     T3GPPS          equ	15047	;# 
   333   003AC8                     T5CKIPPS        equ	15048	;# 
   334   003AC9                     T5GPPS          equ	15049	;# 
   335   003ACA                     T2INPPS         equ	15050	;# 
   336   003ACB                     T4INPPS         equ	15051	;# 
   337   003ACC                     T6INPPS         equ	15052	;# 
   338   003ACD                     CCP1PPS         equ	15053	;# 
   339   003ACE                     CCP2PPS         equ	15054	;# 
   340   003ACF                     CCP3PPS         equ	15055	;# 
   341   003AD0                     CCP4PPS         equ	15056	;# 
   342   003AD1                     SMT1WINPPS      equ	15057	;# 
   343   003AD2                     SMT1SIGPPS      equ	15058	;# 
   344   003AD3                     CWG1INPPS       equ	15059	;# 
   345   003AD4                     CWG2INPPS       equ	15060	;# 
   346   003AD5                     CWG3INPPS       equ	15061	;# 
   347   003AD6                     MD1CARLPPS      equ	15062	;# 
   348   003AD7                     MD1CARHPPS      equ	15063	;# 
   349   003AD8                     MD1SRCPPS       equ	15064	;# 
   350   003AD9                     CLCIN0PPS       equ	15065	;# 
   351   003ADA                     CLCIN1PPS       equ	15066	;# 
   352   003ADB                     CLCIN2PPS       equ	15067	;# 
   353   003ADC                     CLCIN3PPS       equ	15068	;# 
   354   003ADD                     ADACTPPS        equ	15069	;# 
   355   003ADE                     SPI1SCKPPS      equ	15070	;# 
   356   003ADF                     SPI1SDIPPS      equ	15071	;# 
   357   003AE0                     SPI1SSPPS       equ	15072	;# 
   358   003AE1                     I2C1SCLPPS      equ	15073	;# 
   359   003AE2                     I2C1SDAPPS      equ	15074	;# 
   360   003AE3                     I2C2SCLPPS      equ	15075	;# 
   361   003AE4                     I2C2SDAPPS      equ	15076	;# 
   362   003AE5                     U1RXPPS         equ	15077	;# 
   363   003AE6                     U1CTSPPS        equ	15078	;# 
   364   003AE8                     U2RXPPS         equ	15080	;# 
   365   003AE9                     U2CTSPPS        equ	15081	;# 
   366   003BC9                     DMA2BUF         equ	15305	;# 
   367   003BCA                     DMA2DCNT        equ	15306	;# 
   368   003BCA                     DMA2DCNTL       equ	15306	;# 
   369   003BCB                     DMA2DCNTH       equ	15307	;# 
   370   003BCC                     DMA2DPTR        equ	15308	;# 
   371   003BCC                     DMA2DPTRL       equ	15308	;# 
   372   003BCD                     DMA2DPTRH       equ	15309	;# 
   373   003BCE                     DMA2DSZ         equ	15310	;# 
   374   003BCE                     DMA2DSZL        equ	15310	;# 
   375   003BCF                     DMA2DSZH        equ	15311	;# 
   376   003BD0                     DMA2DSA         equ	15312	;# 
   377   003BD0                     DMA2DSAL        equ	15312	;# 
   378   003BD1                     DMA2DSAH        equ	15313	;# 
   379   003BD2                     DMA2SCNT        equ	15314	;# 
   380   003BD2                     DMA2SCNTL       equ	15314	;# 
   381   003BD3                     DMA2SCNTH       equ	15315	;# 
   382   003BD4                     DMA2SPTR        equ	15316	;# 
   383   003BD4                     DMA2SPTRL       equ	15316	;# 
   384   003BD5                     DMA2SPTRH       equ	15317	;# 
   385   003BD6                     DMA2SPTRU       equ	15318	;# 
   386   003BD7                     DMA2SSZ         equ	15319	;# 
   387   003BD7                     DMA2SSZL        equ	15319	;# 
   388   003BD8                     DMA2SSZH        equ	15320	;# 
   389   003BD9                     DMA2SSA         equ	15321	;# 
   390   003BD9                     DMA2SSAL        equ	15321	;# 
   391   003BDA                     DMA2SSAH        equ	15322	;# 
   392   003BDB                     DMA2SSAU        equ	15323	;# 
   393   003BDC                     DMA2CON0        equ	15324	;# 
   394   003BDD                     DMA2CON1        equ	15325	;# 
   395   003BDE                     DMA2AIRQ        equ	15326	;# 
   396   003BDF                     DMA2SIRQ        equ	15327	;# 
   397   003BE9                     DMA1BUF         equ	15337	;# 
   398   003BEA                     DMA1DCNT        equ	15338	;# 
   399   003BEA                     DMA1DCNTL       equ	15338	;# 
   400   003BEB                     DMA1DCNTH       equ	15339	;# 
   401   003BEC                     DMA1DPTR        equ	15340	;# 
   402   003BEC                     DMA1DPTRL       equ	15340	;# 
   403   003BED                     DMA1DPTRH       equ	15341	;# 
   404   003BEE                     DMA1DSZ         equ	15342	;# 
   405   003BEE                     DMA1DSZL        equ	15342	;# 
   406   003BEF                     DMA1DSZH        equ	15343	;# 
   407   003BF0                     DMA1DSA         equ	15344	;# 
   408   003BF0                     DMA1DSAL        equ	15344	;# 
   409   003BF1                     DMA1DSAH        equ	15345	;# 
   410   003BF2                     DMA1SCNT        equ	15346	;# 
   411   003BF2                     DMA1SCNTL       equ	15346	;# 
   412   003BF3                     DMA1SCNTH       equ	15347	;# 
   413   003BF4                     DMA1SPTR        equ	15348	;# 
   414   003BF4                     DMA1SPTRL       equ	15348	;# 
   415   003BF5                     DMA1SPTRH       equ	15349	;# 
   416   003BF6                     DMA1SPTRU       equ	15350	;# 
   417   003BF7                     DMA1SSZ         equ	15351	;# 
   418   003BF7                     DMA1SSZL        equ	15351	;# 
   419   003BF8                     DMA1SSZH        equ	15352	;# 
   420   003BF9                     DMA1SSA         equ	15353	;# 
   421   003BF9                     DMA1SSAL        equ	15353	;# 
   422   003BFA                     DMA1SSAH        equ	15354	;# 
   423   003BFB                     DMA1SSAU        equ	15355	;# 
   424   003BFC                     DMA1CON0        equ	15356	;# 
   425   003BFD                     DMA1CON1        equ	15357	;# 
   426   003BFE                     DMA1AIRQ        equ	15358	;# 
   427   003BFF                     DMA1SIRQ        equ	15359	;# 
   428   003C56                     CLC4CON         equ	15446	;# 
   429   003C57                     CLC4POL         equ	15447	;# 
   430   003C58                     CLC4SEL0        equ	15448	;# 
   431   003C59                     CLC4SEL1        equ	15449	;# 
   432   003C5A                     CLC4SEL2        equ	15450	;# 
   433   003C5B                     CLC4SEL3        equ	15451	;# 
   434   003C5C                     CLC4GLS0        equ	15452	;# 
   435   003C5D                     CLC4GLS1        equ	15453	;# 
   436   003C5E                     CLC4GLS2        equ	15454	;# 
   437   003C5F                     CLC4GLS3        equ	15455	;# 
   438   003C60                     CLC3CON         equ	15456	;# 
   439   003C61                     CLC3POL         equ	15457	;# 
   440   003C62                     CLC3SEL0        equ	15458	;# 
   441   003C63                     CLC3SEL1        equ	15459	;# 
   442   003C64                     CLC3SEL2        equ	15460	;# 
   443   003C65                     CLC3SEL3        equ	15461	;# 
   444   003C66                     CLC3GLS0        equ	15462	;# 
   445   003C67                     CLC3GLS1        equ	15463	;# 
   446   003C68                     CLC3GLS2        equ	15464	;# 
   447   003C69                     CLC3GLS3        equ	15465	;# 
   448   003C6A                     CLC2CON         equ	15466	;# 
   449   003C6B                     CLC2POL         equ	15467	;# 
   450   003C6C                     CLC2SEL0        equ	15468	;# 
   451   003C6D                     CLC2SEL1        equ	15469	;# 
   452   003C6E                     CLC2SEL2        equ	15470	;# 
   453   003C6F                     CLC2SEL3        equ	15471	;# 
   454   003C70                     CLC2GLS0        equ	15472	;# 
   455   003C71                     CLC2GLS1        equ	15473	;# 
   456   003C72                     CLC2GLS2        equ	15474	;# 
   457   003C73                     CLC2GLS3        equ	15475	;# 
   458   003C74                     CLC1CON         equ	15476	;# 
   459   003C75                     CLC1POL         equ	15477	;# 
   460   003C76                     CLC1SEL0        equ	15478	;# 
   461   003C77                     CLC1SEL1        equ	15479	;# 
   462   003C78                     CLC1SEL2        equ	15480	;# 
   463   003C79                     CLC1SEL3        equ	15481	;# 
   464   003C7A                     CLC1GLS0        equ	15482	;# 
   465   003C7B                     CLC1GLS1        equ	15483	;# 
   466   003C7C                     CLC1GLS2        equ	15484	;# 
   467   003C7D                     CLC1GLS3        equ	15485	;# 
   468   003C7E                     CLCDATA0        equ	15486	;# 
   469   003CE5                     CLKRCON         equ	15589	;# 
   470   003CE6                     CLKRCLK         equ	15590	;# 
   471   003CFA                     MD1CON0         equ	15610	;# 
   472   003CFB                     MD1CON1         equ	15611	;# 
   473   003CFC                     MD1SRC          equ	15612	;# 
   474   003CFD                     MD1CARL         equ	15613	;# 
   475   003CFE                     MD1CARH         equ	15614	;# 
   476   003D10                     SPI1RXB         equ	15632	;# 
   477   003D11                     SPI1TXB         equ	15633	;# 
   478   003D12                     SPI1TCNT        equ	15634	;# 
   479   003D12                     SPI1TCNTL       equ	15634	;# 
   480   003D13                     SPI1TCNTH       equ	15635	;# 
   481   003D14                     SPI1CON0        equ	15636	;# 
   482   003D15                     SPI1CON1        equ	15637	;# 
   483   003D16                     SPI1CON2        equ	15638	;# 
   484   003D17                     SPI1STATUS      equ	15639	;# 
   485   003D18                     SPI1TWIDTH      equ	15640	;# 
   486   003D19                     SPI1BAUD        equ	15641	;# 
   487   003D1A                     SPI1INTF        equ	15642	;# 
   488   003D1B                     SPI1INTE        equ	15643	;# 
   489   003D1C                     SPI1CLK         equ	15644	;# 
   490   003D54                     I2C2RXB         equ	15700	;# 
   491   003D55                     I2C2TXB         equ	15701	;# 
   492   003D56                     I2C2CNT         equ	15702	;# 
   493   003D57                     I2C2ADB0        equ	15703	;# 
   494   003D58                     I2C2ADB1        equ	15704	;# 
   495   003D59                     I2C2ADR0        equ	15705	;# 
   496   003D5A                     I2C2ADR1        equ	15706	;# 
   497   003D5B                     I2C2ADR2        equ	15707	;# 
   498   003D5C                     I2C2ADR3        equ	15708	;# 
   499   003D5D                     I2C2CON0        equ	15709	;# 
   500   003D5E                     I2C2CON1        equ	15710	;# 
   501   003D5F                     I2C2CON2        equ	15711	;# 
   502   003D60                     I2C2ERR         equ	15712	;# 
   503   003D61                     I2C2STAT0       equ	15713	;# 
   504   003D62                     I2C2STAT1       equ	15714	;# 
   505   003D63                     I2C2PIR         equ	15715	;# 
   506   003D64                     I2C2PIE         equ	15716	;# 
   507   003D65                     I2C2CLK         equ	15717	;# 
   508   003D66                     I2C2BTO         equ	15718	;# 
   509   003D6A                     I2C1RXB         equ	15722	;# 
   510   003D6B                     I2C1TXB         equ	15723	;# 
   511   003D6C                     I2C1CNT         equ	15724	;# 
   512   003D6D                     I2C1ADB0        equ	15725	;# 
   513   003D6E                     I2C1ADB1        equ	15726	;# 
   514   003D6F                     I2C1ADR0        equ	15727	;# 
   515   003D70                     I2C1ADR1        equ	15728	;# 
   516   003D71                     I2C1ADR2        equ	15729	;# 
   517   003D72                     I2C1ADR3        equ	15730	;# 
   518   003D73                     I2C1CON0        equ	15731	;# 
   519   003D74                     I2C1CON1        equ	15732	;# 
   520   003D75                     I2C1CON2        equ	15733	;# 
   521   003D76                     I2C1ERR         equ	15734	;# 
   522   003D77                     I2C1STAT0       equ	15735	;# 
   523   003D78                     I2C1STAT1       equ	15736	;# 
   524   003D79                     I2C1PIR         equ	15737	;# 
   525   003D7A                     I2C1PIE         equ	15738	;# 
   526   003D7B                     I2C1CLK         equ	15739	;# 
   527   003D7C                     I2C1BTO         equ	15740	;# 
   528   003DD0                     U2RXB           equ	15824	;# 
   529   003DD0                     U2RXBL          equ	15824	;# 
   530   003DD2                     U2TXB           equ	15826	;# 
   531   003DD2                     U2TXBL          equ	15826	;# 
   532   003DD4                     U2P1            equ	15828	;# 
   533   003DD4                     U2P1L           equ	15828	;# 
   534   003DD6                     U2P2            equ	15830	;# 
   535   003DD6                     U2P2L           equ	15830	;# 
   536   003DD8                     U2P3            equ	15832	;# 
   537   003DD8                     U2P3L           equ	15832	;# 
   538   003DDA                     U2CON0          equ	15834	;# 
   539   003DDB                     U2CON1          equ	15835	;# 
   540   003DDC                     U2CON2          equ	15836	;# 
   541   003DDD                     U2BRG           equ	15837	;# 
   542   003DDD                     U2BRGL          equ	15837	;# 
   543   003DDE                     U2BRGH          equ	15838	;# 
   544   003DDF                     U2FIFO          equ	15839	;# 
   545   003DE0                     U2UIR           equ	15840	;# 
   546   003DE1                     U2ERRIR         equ	15841	;# 
   547   003DE2                     U2ERRIE         equ	15842	;# 
   548   003DE8                     U1RXB           equ	15848	;# 
   549   003DE8                     U1RXBL          equ	15848	;# 
   550   003DE9                     U1RXCHK         equ	15849	;# 
   551   003DEA                     U1TXB           equ	15850	;# 
   552   003DEA                     U1TXBL          equ	15850	;# 
   553   003DEB                     U1TXCHK         equ	15851	;# 
   554   003DEC                     U1P1            equ	15852	;# 
   555   003DEC                     U1P1L           equ	15852	;# 
   556   003DED                     U1P1H           equ	15853	;# 
   557   003DEE                     U1P2            equ	15854	;# 
   558   003DEE                     U1P2L           equ	15854	;# 
   559   003DEF                     U1P2H           equ	15855	;# 
   560   003DF0                     U1P3            equ	15856	;# 
   561   003DF0                     U1P3L           equ	15856	;# 
   562   003DF1                     U1P3H           equ	15857	;# 
   563   003DF2                     U1CON0          equ	15858	;# 
   564   003DF3                     U1CON1          equ	15859	;# 
   565   003DF4                     U1CON2          equ	15860	;# 
   566   003DF5                     U1BRG           equ	15861	;# 
   567   003DF5                     U1BRGL          equ	15861	;# 
   568   003DF6                     U1BRGH          equ	15862	;# 
   569   003DF7                     U1FIFO          equ	15863	;# 
   570   003DF8                     U1UIR           equ	15864	;# 
   571   003DF9                     U1ERRIR         equ	15865	;# 
   572   003DFA                     U1ERRIE         equ	15866	;# 
   573   003E9C                     DAC1CON1        equ	16028	;# 
   574   003E9E                     DAC1CON0        equ	16030	;# 
   575   003EB8                     CM2CON0         equ	16056	;# 
   576   003EB9                     CM2CON1         equ	16057	;# 
   577   003EBA                     CM2NCH          equ	16058	;# 
   578   003EBB                     CM2PCH          equ	16059	;# 
   579   003EBC                     CM1CON0         equ	16060	;# 
   580   003EBD                     CM1CON1         equ	16061	;# 
   581   003EBE                     CM1NCH          equ	16062	;# 
   582   003EBF                     CM1PCH          equ	16063	;# 
   583   003EC0                     CMOUT           equ	16064	;# 
   584   003EC1                     FVRCON          equ	16065	;# 
   585   003EC3                     ZCDCON          equ	16067	;# 
   586   003EC9                     HLVDCON0        equ	16073	;# 
   587   003ECA                     HLVDCON1        equ	16074	;# 
   588   003ED7                     ADCP            equ	16087	;# 
   589   003EDE                     ADLTH           equ	16094	;# 
   590   003EDE                     ADLTHL          equ	16094	;# 
   591   003EDF                     ADLTHH          equ	16095	;# 
   592   003EE0                     ADUTH           equ	16096	;# 
   593   003EE0                     ADUTHL          equ	16096	;# 
   594   003EE1                     ADUTHH          equ	16097	;# 
   595   003EE2                     ADERR           equ	16098	;# 
   596   003EE2                     ADERRL          equ	16098	;# 
   597   003EE3                     ADERRH          equ	16099	;# 
   598   003EE4                     ADSTPT          equ	16100	;# 
   599   003EE4                     ADSTPTL         equ	16100	;# 
   600   003EE5                     ADSTPTH         equ	16101	;# 
   601   003EE6                     ADFLTR          equ	16102	;# 
   602   003EE6                     ADFLTRL         equ	16102	;# 
   603   003EE7                     ADFLTRH         equ	16103	;# 
   604   003EE8                     ADACC           equ	16104	;# 
   605   003EE8                     ADACCL          equ	16104	;# 
   606   003EE9                     ADACCH          equ	16105	;# 
   607   003EEA                     ADACCU          equ	16106	;# 
   608   003EEB                     ADCNT           equ	16107	;# 
   609   003EEC                     ADRPT           equ	16108	;# 
   610   003EED                     ADPREV          equ	16109	;# 
   611   003EED                     ADPREVL         equ	16109	;# 
   612   003EEE                     ADPREVH         equ	16110	;# 
   613   003EEF                     ADRES           equ	16111	;# 
   614   003EEF                     ADRESL          equ	16111	;# 
   615   003EF0                     ADRESH          equ	16112	;# 
   616   003EF1                     ADPCH           equ	16113	;# 
   617   003EF3                     ADACQ           equ	16115	;# 
   618   003EF3                     ADACQL          equ	16115	;# 
   619   003EF4                     ADACQH          equ	16116	;# 
   620   003EF5                     ADCAP           equ	16117	;# 
   621   003EF6                     ADPRE           equ	16118	;# 
   622   003EF6                     ADPREL          equ	16118	;# 
   623   003EF7                     ADPREH          equ	16119	;# 
   624   003EF8                     ADCON0          equ	16120	;# 
   625   003EF9                     ADCON1          equ	16121	;# 
   626   003EFA                     ADCON2          equ	16122	;# 
   627   003EFB                     ADCON3          equ	16123	;# 
   628   003EFC                     ADSTAT          equ	16124	;# 
   629   003EFD                     ADREF           equ	16125	;# 
   630   003EFE                     ADACT           equ	16126	;# 
   631   003EFF                     ADCLK           equ	16127	;# 
   632   003F12                     SMT1TMR         equ	16146	;# 
   633   003F12                     SMT1TMRL        equ	16146	;# 
   634   003F13                     SMT1TMRH        equ	16147	;# 
   635   003F14                     SMT1TMRU        equ	16148	;# 
   636   003F15                     SMT1CPR         equ	16149	;# 
   637   003F15                     SMT1CPRL        equ	16149	;# 
   638   003F16                     SMT1CPRH        equ	16150	;# 
   639   003F17                     SMT1CPRU        equ	16151	;# 
   640   003F18                     SMT1CPW         equ	16152	;# 
   641   003F18                     SMT1CPWL        equ	16152	;# 
   642   003F19                     SMT1CPWH        equ	16153	;# 
   643   003F1A                     SMT1CPWU        equ	16154	;# 
   644   003F1B                     SMT1PR          equ	16155	;# 
   645   003F1B                     SMT1PRL         equ	16155	;# 
   646   003F1C                     SMT1PRH         equ	16156	;# 
   647   003F1D                     SMT1PRU         equ	16157	;# 
   648   003F1E                     SMT1CON0        equ	16158	;# 
   649   003F1F                     SMT1CON1        equ	16159	;# 
   650   003F20                     SMT1STAT        equ	16160	;# 
   651   003F21                     SMT1CLK         equ	16161	;# 
   652   003F22                     SMT1SIG         equ	16162	;# 
   653   003F23                     SMT1WIN         equ	16163	;# 
   654   003F38                     NCO1ACC         equ	16184	;# 
   655   003F38                     NCO1ACCL        equ	16184	;# 
   656   003F39                     NCO1ACCH        equ	16185	;# 
   657   003F3A                     NCO1ACCU        equ	16186	;# 
   658   003F3B                     NCO1INC         equ	16187	;# 
   659   003F3B                     NCO1INCL        equ	16187	;# 
   660   003F3C                     NCO1INCH        equ	16188	;# 
   661   003F3D                     NCO1INCU        equ	16189	;# 
   662   003F3E                     NCO1CON         equ	16190	;# 
   663   003F3F                     NCO1CLK         equ	16191	;# 
   664   003F40                     CWG3CLK         equ	16192	;# 
   665   003F40                     CWG3CLKCON      equ	16192	;# 
   666   003F41                     CWG3ISM         equ	16193	;# 
   667   003F41                     CWG3DAT         equ	16193	;# 
   668   003F42                     CWG3DBR         equ	16194	;# 
   669   003F43                     CWG3DBF         equ	16195	;# 
   670   003F44                     CWG3CON0        equ	16196	;# 
   671   003F45                     CWG3CON1        equ	16197	;# 
   672   003F46                     CWG3AS0         equ	16198	;# 
   673   003F47                     CWG3AS1         equ	16199	;# 
   674   003F48                     CWG3STR         equ	16200	;# 
   675   003F49                     CWG2CLK         equ	16201	;# 
   676   003F49                     CWG2CLKCON      equ	16201	;# 
   677   003F4A                     CWG2ISM         equ	16202	;# 
   678   003F4A                     CWG2DAT         equ	16202	;# 
   679   003F4B                     CWG2DBR         equ	16203	;# 
   680   003F4C                     CWG2DBF         equ	16204	;# 
   681   003F4D                     CWG2CON0        equ	16205	;# 
   682   003F4E                     CWG2CON1        equ	16206	;# 
   683   003F4F                     CWG2AS0         equ	16207	;# 
   684   003F50                     CWG2AS1         equ	16208	;# 
   685   003F51                     CWG2STR         equ	16209	;# 
   686   003F52                     CWG1CLK         equ	16210	;# 
   687   003F52                     CWG1CLKCON      equ	16210	;# 
   688   003F53                     CWG1ISM         equ	16211	;# 
   689   003F53                     CWG1DAT         equ	16211	;# 
   690   003F54                     CWG1DBR         equ	16212	;# 
   691   003F55                     CWG1DBF         equ	16213	;# 
   692   003F56                     CWG1CON0        equ	16214	;# 
   693   003F57                     CWG1CON1        equ	16215	;# 
   694   003F58                     CWG1AS0         equ	16216	;# 
   695   003F59                     CWG1AS1         equ	16217	;# 
   696   003F5A                     CWG1STR         equ	16218	;# 
   697   003F5E                     CCPTMRS0        equ	16222	;# 
   698   003F5F                     CCPTMRS1        equ	16223	;# 
   699   003F60                     PWM8DC          equ	16224	;# 
   700   003F60                     PWM8DCL         equ	16224	;# 
   701   003F61                     PWM8DCH         equ	16225	;# 
   702   003F62                     PWM8CON         equ	16226	;# 
   703   003F64                     PWM7DC          equ	16228	;# 
   704   003F64                     PWM7DCL         equ	16228	;# 
   705   003F65                     PWM7DCH         equ	16229	;# 
   706   003F66                     PWM7CON         equ	16230	;# 
   707   003F68                     PWM6DC          equ	16232	;# 
   708   003F68                     PWM6DCL         equ	16232	;# 
   709   003F69                     PWM6DCH         equ	16233	;# 
   710   003F6A                     PWM6CON         equ	16234	;# 
   711   003F6C                     PWM5DC          equ	16236	;# 
   712   003F6C                     PWM5DCL         equ	16236	;# 
   713   003F6D                     PWM5DCH         equ	16237	;# 
   714   003F6E                     PWM5CON         equ	16238	;# 
   715   003F70                     CCPR4           equ	16240	;# 
   716   003F70                     CCPR4L          equ	16240	;# 
   717   003F71                     CCPR4H          equ	16241	;# 
   718   003F72                     CCP4CON         equ	16242	;# 
   719   003F73                     CCP4CAP         equ	16243	;# 
   720   003F74                     CCPR3           equ	16244	;# 
   721   003F74                     CCPR3L          equ	16244	;# 
   722   003F75                     CCPR3H          equ	16245	;# 
   723   003F76                     CCP3CON         equ	16246	;# 
   724   003F77                     CCP3CAP         equ	16247	;# 
   725   003F78                     CCPR2           equ	16248	;# 
   726   003F78                     CCPR2L          equ	16248	;# 
   727   003F79                     CCPR2H          equ	16249	;# 
   728   003F7A                     CCP2CON         equ	16250	;# 
   729   003F7B                     CCP2CAP         equ	16251	;# 
   730   003F7C                     CCPR1           equ	16252	;# 
   731   003F7C                     CCPR1L          equ	16252	;# 
   732   003F7D                     CCPR1H          equ	16253	;# 
   733   003F7E                     CCP1CON         equ	16254	;# 
   734   003F7F                     CCP1CAP         equ	16255	;# 
   735   003F92                     T6TMR           equ	16274	;# 
   736   003F92                     TMR6            equ	16274	;# 
   737   003F93                     T6PR            equ	16275	;# 
   738   003F93                     PR6             equ	16275	;# 
   739   003F94                     T6CON           equ	16276	;# 
   740   003F95                     T6HLT           equ	16277	;# 
   741   003F96                     T6CLKCON        equ	16278	;# 
   742   003F96                     T6CLK           equ	16278	;# 
   743   003F97                     T6RST           equ	16279	;# 
   744   003F98                     TMR5            equ	16280	;# 
   745   003F98                     TMR5L           equ	16280	;# 
   746   003F99                     TMR5H           equ	16281	;# 
   747   003F9A                     T5CON           equ	16282	;# 
   748   003F9A                     TMR5CON         equ	16282	;# 
   749   003F9B                     T5GCON          equ	16283	;# 
   750   003F9B                     TMR5GCON        equ	16283	;# 
   751   003F9C                     T5GATE          equ	16284	;# 
   752   003F9C                     TMR5GATE        equ	16284	;# 
   753   003F9D                     T5CLK           equ	16285	;# 
   754   003F9D                     TMR5CLK         equ	16285	;# 
   755   003F9D                     PR5             equ	16285	;# 
   756   003F9E                     T4TMR           equ	16286	;# 
   757   003F9E                     TMR4            equ	16286	;# 
   758   003F9F                     T4PR            equ	16287	;# 
   759   003F9F                     PR4             equ	16287	;# 
   760   003FA0                     T4CON           equ	16288	;# 
   761   003FA1                     T4HLT           equ	16289	;# 
   762   003FA2                     T4CLKCON        equ	16290	;# 
   763   003FA2                     T4CLK           equ	16290	;# 
   764   003FA3                     T4RST           equ	16291	;# 
   765   003FA4                     TMR3            equ	16292	;# 
   766   003FA4                     TMR3L           equ	16292	;# 
   767   003FA5                     TMR3H           equ	16293	;# 
   768   003FA6                     T3CON           equ	16294	;# 
   769   003FA6                     TMR3CON         equ	16294	;# 
   770   003FA7                     T3GCON          equ	16295	;# 
   771   003FA7                     TMR3GCON        equ	16295	;# 
   772   003FA8                     T3GATE          equ	16296	;# 
   773   003FA8                     TMR3GATE        equ	16296	;# 
   774   003FA9                     T3CLK           equ	16297	;# 
   775   003FA9                     TMR3CLK         equ	16297	;# 
   776   003FA9                     PR3             equ	16297	;# 
   777   003FAA                     T2TMR           equ	16298	;# 
   778   003FAA                     TMR2            equ	16298	;# 
   779   003FAB                     T2PR            equ	16299	;# 
   780   003FAB                     PR2             equ	16299	;# 
   781   003FAC                     T2CON           equ	16300	;# 
   782   003FAD                     T2HLT           equ	16301	;# 
   783   003FAE                     T2CLKCON        equ	16302	;# 
   784   003FAE                     T2CLK           equ	16302	;# 
   785   003FAF                     T2RST           equ	16303	;# 
   786   003FB0                     TMR1            equ	16304	;# 
   787   003FB0                     TMR1L           equ	16304	;# 
   788   003FB1                     TMR1H           equ	16305	;# 
   789   003FB2                     T1CON           equ	16306	;# 
   790   003FB2                     TMR1CON         equ	16306	;# 
   791   003FB3                     T1GCON          equ	16307	;# 
   792   003FB3                     TMR1GCON        equ	16307	;# 
   793   003FB4                     T1GATE          equ	16308	;# 
   794   003FB4                     TMR1GATE        equ	16308	;# 
   795   003FB5                     T1CLK           equ	16309	;# 
   796   003FB5                     TMR1CLK         equ	16309	;# 
   797   003FB5                     PR1             equ	16309	;# 
   798   003FB6                     TMR0L           equ	16310	;# 
   799   003FB6                     TMR0            equ	16310	;# 
   800   003FB7                     TMR0H           equ	16311	;# 
   801   003FB7                     PR0             equ	16311	;# 
   802   003FB8                     T0CON0          equ	16312	;# 
   803   003FB9                     T0CON1          equ	16313	;# 
   804   003FBA                     LATA            equ	16314	;# 
   805   003FBB                     LATB            equ	16315	;# 
   806   003FBC                     LATC            equ	16316	;# 
   807   003FBD                     LATD            equ	16317	;# 
   808   003FBE                     LATE            equ	16318	;# 
   809   003FC2                     TRISA           equ	16322	;# 
   810   003FC3                     TRISB           equ	16323	;# 
   811   003FC4                     TRISC           equ	16324	;# 
   812   003FC5                     TRISD           equ	16325	;# 
   813   003FC6                     TRISE           equ	16326	;# 
   814   003FCA                     PORTA           equ	16330	;# 
   815   003FCB                     PORTB           equ	16331	;# 
   816   003FCC                     PORTC           equ	16332	;# 
   817   003FCD                     PORTD           equ	16333	;# 
   818   003FCE                     PORTE           equ	16334	;# 
   819   003FD2                     INTCON0         equ	16338	;# 
   820   003FD3                     INTCON1         equ	16339	;# 
   821   003FD4                     IVTLOCK         equ	16340	;# 
   822   003FD5                     IVTBASE         equ	16341	;# 
   823   003FD5                     IVTBASEL        equ	16341	;# 
   824   003FD6                     IVTBASEH        equ	16342	;# 
   825   003FD7                     IVTBASEU        equ	16343	;# 
   826   003FD8                     STATUS          equ	16344	;# 
   827   003FD9                     FSR2            equ	16345	;# 
   828   003FD9                     FSR2L           equ	16345	;# 
   829   003FDA                     FSR2H           equ	16346	;# 
   830   003FDB                     PLUSW2          equ	16347	;# 
   831   003FDC                     PREINC2         equ	16348	;# 
   832   003FDD                     POSTDEC2        equ	16349	;# 
   833   003FDE                     POSTINC2        equ	16350	;# 
   834   003FDF                     INDF2           equ	16351	;# 
   835   003FE0                     BSR             equ	16352	;# 
   836   003FE1                     FSR1            equ	16353	;# 
   837   003FE1                     FSR1L           equ	16353	;# 
   838   003FE2                     FSR1H           equ	16354	;# 
   839   003FE3                     PLUSW1          equ	16355	;# 
   840   003FE4                     PREINC1         equ	16356	;# 
   841   003FE5                     POSTDEC1        equ	16357	;# 
   842   003FE6                     POSTINC1        equ	16358	;# 
   843   003FE7                     INDF1           equ	16359	;# 
   844   003FE8                     WREG            equ	16360	;# 
   845   003FE9                     FSR0            equ	16361	;# 
   846   003FE9                     FSR0L           equ	16361	;# 
   847   003FEA                     FSR0H           equ	16362	;# 
   848   003FEB                     PLUSW0          equ	16363	;# 
   849   003FEC                     PREINC0         equ	16364	;# 
   850   003FED                     POSTDEC0        equ	16365	;# 
   851   003FEE                     POSTINC0        equ	16366	;# 
   852   003FEF                     INDF0           equ	16367	;# 
   853   003FF0                     PCON0           equ	16368	;# 
   854   003FF1                     PCON1           equ	16369	;# 
   855   003FF3                     PROD            equ	16371	;# 
   856   003FF3                     PRODL           equ	16371	;# 
   857   003FF4                     PRODH           equ	16372	;# 
   858   003FF5                     TABLAT          equ	16373	;# 
   859   003FF6                     TBLPTR          equ	16374	;# 
   860   003FF6                     TBLPTRL         equ	16374	;# 
   861   003FF7                     TBLPTRH         equ	16375	;# 
   862   003FF8                     TBLPTRU         equ	16376	;# 
   863   003FF9                     PCLAT           equ	16377	;# 
   864   003FF9                     PCL             equ	16377	;# 
   865   003FFA                     PCLATH          equ	16378	;# 
   866   003FFB                     PCLATU          equ	16379	;# 
   867   003FFC                     STKPTR          equ	16380	;# 
   868   003FFD                     TOS             equ	16381	;# 
   869   003FFD                     TOSL            equ	16381	;# 
   870   003FFE                     TOSH            equ	16382	;# 
   871   003FFF                     TOSU            equ	16383	;# 
   872   003A80                     _ANSELE         set	14976
   873   003A50                     _ANSELB         set	14928
   874   003A70                     _ANSELD         set	14960
   875   003A40                     _ANSELAbits     set	14912
   876   003EF4                     _ADACQH         set	16116
   877   003EF3                     _ADACQL         set	16115
   878   003EF7                     _ADPREH         set	16119
   879   003EF6                     _ADPREL         set	16118
   880   003EEF                     _ADRESL         set	16111
   881   003EF0                     _ADRESH         set	16112
   882   003EFF                     _ADCLK          set	16127
   883   003EF1                     _ADPCH          set	16113
   884   003EF8                     _ADCON0bits     set	16120
   885   003FCE                     _PORTEbits      set	16334
   886   003FCD                     _PORTD          set	16333
   887   003FCD                     _PORTDbits      set	16333
   888   003FBD                     _LATDbits       set	16317
   889   003FBB                     _LATB           set	16315
   890   003FC6                     _TRISE          set	16326
   891   003FC5                     _TRISD          set	16325
   892   003FC3                     _TRISB          set	16323
   893   003FC2                     _TRISAbits      set	16322
   894                           
   895                           	psect	smallconst
   896   002000                     __psmallconst:
   897                           	callstack 0
   898   002000  00                 	db	0
   899   002001                     STR_2:
   900                           
   901                           ; BSR set to: 62
   902   002001  44                 	db	68	;'D'
   903   002002  69                 	db	105	;'i'
   904   002003  66                 	db	102	;'f'
   905   002004  66                 	db	102	;'f'
   906   002005  69                 	db	105	;'i'
   907   002006  63                 	db	99	;'c'
   908   002007  75                 	db	117	;'u'
   909   002008  6C                 	db	108	;'l'
   910   002009  74                 	db	116	;'t'
   911   00200A  79                 	db	121	;'y'
   912   00200B  20                 	db	32
   913   00200C  4C                 	db	76	;'L'
   914   00200D  65                 	db	101	;'e'
   915   00200E  76                 	db	118	;'v'
   916   00200F  65                 	db	101	;'e'
   917   002010  6C                 	db	108	;'l'
   918   002011  3A                 	db	58	;':'
   919   002012  00                 	db	0
   920   002013                     STR_16:
   921                           
   922                           ; BSR set to: 62
   923   002013  4E                 	db	78	;'N'
   924   002014  65                 	db	101	;'e'
   925   002015  78                 	db	120	;'x'
   926   002016  74                 	db	116	;'t'
   927   002017  20                 	db	32
   928   002018  53                 	db	83	;'S'
   929   002019  74                 	db	116	;'t'
   930   00201A  61                 	db	97	;'a'
   931   00201B  67                 	db	103	;'g'
   932   00201C  65                 	db	101	;'e'
   933   00201D  20                 	db	32
   934   00201E  69                 	db	105	;'i'
   935   00201F  6E                 	db	110	;'n'
   936   002020  20                 	db	32
   937   002021  31                 	db	49	;'1'
   938   002022  3A                 	db	58	;':'
   939   002023  00                 	db	0
   940   002024                     STR_14:
   941                           
   942                           ; BSR set to: 62
   943   002024  4E                 	db	78	;'N'
   944   002025  65                 	db	101	;'e'
   945   002026  78                 	db	120	;'x'
   946   002027  74                 	db	116	;'t'
   947   002028  20                 	db	32
   948   002029  53                 	db	83	;'S'
   949   00202A  74                 	db	116	;'t'
   950   00202B  61                 	db	97	;'a'
   951   00202C  67                 	db	103	;'g'
   952   00202D  65                 	db	101	;'e'
   953   00202E  20                 	db	32
   954   00202F  69                 	db	105	;'i'
   955   002030  6E                 	db	110	;'n'
   956   002031  20                 	db	32
   957   002032  33                 	db	51	;'3'
   958   002033  3A                 	db	58	;':'
   959   002034  00                 	db	0
   960   002035                     STR_15:
   961                           
   962                           ; BSR set to: 62
   963   002035  4E                 	db	78	;'N'
   964   002036  65                 	db	101	;'e'
   965   002037  78                 	db	120	;'x'
   966   002038  74                 	db	116	;'t'
   967   002039  20                 	db	32
   968   00203A  53                 	db	83	;'S'
   969   00203B  74                 	db	116	;'t'
   970   00203C  61                 	db	97	;'a'
   971   00203D  67                 	db	103	;'g'
   972   00203E  65                 	db	101	;'e'
   973   00203F  20                 	db	32
   974   002040  69                 	db	105	;'i'
   975   002041  6E                 	db	110	;'n'
   976   002042  20                 	db	32
   977   002043  32                 	db	50	;'2'
   978   002044  00                 	db	0
   979   002045                     STR_5:
   980                           
   981                           ; BSR set to: 62
   982   002045  53                 	db	83	;'S'
   983   002046  74                 	db	116	;'t'
   984   002047  61                 	db	97	;'a'
   985   002048  72                 	db	114	;'r'
   986   002049  74                 	db	116	;'t'
   987   00204A  69                 	db	105	;'i'
   988   00204B  6E                 	db	110	;'n'
   989   00204C  67                 	db	103	;'g'
   990   00204D  20                 	db	32
   991   00204E  69                 	db	105	;'i'
   992   00204F  6E                 	db	110	;'n'
   993   002050  20                 	db	32
   994   002051  31                 	db	49	;'1'
   995   002052  3A                 	db	58	;':'
   996   002053  00                 	db	0
   997   002054                     STR_4:
   998                           
   999                           ; BSR set to: 62
  1000   002054  53                 	db	83	;'S'
  1001   002055  74                 	db	116	;'t'
  1002   002056  61                 	db	97	;'a'
  1003   002057  72                 	db	114	;'r'
  1004   002058  74                 	db	116	;'t'
  1005   002059  69                 	db	105	;'i'
  1006   00205A  6E                 	db	110	;'n'
  1007   00205B  67                 	db	103	;'g'
  1008   00205C  20                 	db	32
  1009   00205D  69                 	db	105	;'i'
  1010   00205E  6E                 	db	110	;'n'
  1011   00205F  20                 	db	32
  1012   002060  32                 	db	50	;'2'
  1013   002061  3A                 	db	58	;':'
  1014   002062  00                 	db	0
  1015   002063                     STR_3:
  1016                           
  1017                           ; BSR set to: 62
  1018   002063  53                 	db	83	;'S'
  1019   002064  74                 	db	116	;'t'
  1020   002065  61                 	db	97	;'a'
  1021   002066  72                 	db	114	;'r'
  1022   002067  74                 	db	116	;'t'
  1023   002068  69                 	db	105	;'i'
  1024   002069  6E                 	db	110	;'n'
  1025   00206A  67                 	db	103	;'g'
  1026   00206B  20                 	db	32
  1027   00206C  69                 	db	105	;'i'
  1028   00206D  6E                 	db	110	;'n'
  1029   00206E  20                 	db	32
  1030   00206F  33                 	db	51	;'3'
  1031   002070  3A                 	db	58	;':'
  1032   002071  00                 	db	0
  1033   002072                     STR_13:
  1034                           
  1035                           ; BSR set to: 62
  1036   002072  59                 	db	89	;'Y'
  1037   002073  4F                 	db	79	;'O'
  1038   002074  55                 	db	85	;'U'
  1039   002075  20                 	db	32
  1040   002076  4C                 	db	76	;'L'
  1041   002077  4F                 	db	79	;'O'
  1042   002078  53                 	db	83	;'S'
  1043   002079  45                 	db	69	;'E'
  1044   00207A  20                 	db	32
  1045   00207B  3A                 	db	58	;':'
  1046   00207C  28                 	db	40
  1047   00207D  20                 	db	32
  1048   00207E  00                 	db	0
  1049   00207F                     STR_36:
  1050                           
  1051                           ; BSR set to: 62
  1052   00207F  46                 	db	70	;'F'
  1053   002080  69                 	db	105	;'i'
  1054   002081  6E                 	db	110	;'n'
  1055   002082  61                 	db	97	;'a'
  1056   002083  6C                 	db	108	;'l'
  1057   002084  20                 	db	32
  1058   002085  53                 	db	83	;'S'
  1059   002086  63                 	db	99	;'c'
  1060   002087  6F                 	db	111	;'o'
  1061   002088  72                 	db	114	;'r'
  1062   002089  65                 	db	101	;'e'
  1063   00208A  3A                 	db	58	;':'
  1064   00208B  00                 	db	0
  1065   00208C                     STR_6:
  1066                           
  1067                           ; BSR set to: 62
  1068   00208C  45                 	db	69	;'E'
  1069   00208D  6E                 	db	110	;'n'
  1070   00208E  74                 	db	116	;'t'
  1071   00208F  65                 	db	101	;'e'
  1072   002090  72                 	db	114	;'r'
  1073   002091  20                 	db	32
  1074   002092  47                 	db	71	;'G'
  1075   002093  75                 	db	117	;'u'
  1076   002094  65                 	db	101	;'e'
  1077   002095  73                 	db	115	;'s'
  1078   002096  73                 	db	115	;'s'
  1079   002097  3A                 	db	58	;':'
  1080   002098  00                 	db	0
  1081   002099                     STR_12:
  1082                           
  1083                           ; BSR set to: 62
  1084   002099  59                 	db	89	;'Y'
  1085   00209A  4F                 	db	79	;'O'
  1086   00209B  55                 	db	85	;'U'
  1087   00209C  20                 	db	32
  1088   00209D  57                 	db	87	;'W'
  1089   00209E  49                 	db	73	;'I'
  1090   00209F  4E                 	db	78	;'N'
  1091   0020A0  21                 	db	33
  1092   0020A1  21                 	db	33
  1093   0020A2  00                 	db	0
  1094   0020A3                     STR_38:
  1095                           
  1096                           ; BSR set to: 62
  1097   0020A3  25                 	db	37
  1098   0020A4  31                 	db	49	;'1'
  1099   0020A5  2E                 	db	46
  1100   0020A6  30                 	db	48	;'0'
  1101   0020A7  64                 	db	100	;'d'
  1102   0020A8  00                 	db	0
  1103   0020A9                     STR_7:
  1104                           
  1105                           ; BSR set to: 62
  1106   0020A9  30                 	db	48	;'0'
  1107   0020AA  2E                 	db	46
  1108   0020AB  30                 	db	48	;'0'
  1109   0020AC  30                 	db	48	;'0'
  1110   0020AD  00                 	db	0
  1111   0020AE                     STR_1:
  1112                           
  1113                           ; BSR set to: 62
  1114   0020AE  25                 	db	37
  1115   0020AF  2E                 	db	46
  1116   0020B0  32                 	db	50	;'2'
  1117   0020B1  66                 	db	102	;'f'
  1118   0020B2  00                 	db	0
  1119   0020B3                     STR_66:
  1120                           
  1121                           ; BSR set to: 62
  1122   0020B3  69                 	db	105	;'i'
  1123   0020B4  6E                 	db	110	;'n'
  1124   0020B5  66                 	db	102	;'f'
  1125   0020B6  00                 	db	0
  1126   0020B7                     STR_69:
  1127                           
  1128                           ; BSR set to: 62
  1129   0020B7  6E                 	db	110	;'n'
  1130   0020B8  61                 	db	97	;'a'
  1131   0020B9  6E                 	db	110	;'n'
  1132   0020BA  00                 	db	0
  1133   0020BB                     STR_37:
  1134                           
  1135                           ; BSR set to: 62
  1136   0020BB  30                 	db	48	;'0'
  1137   0020BC  2F                 	db	47
  1138   0020BD  33                 	db	51	;'3'
  1139   0020BE  00                 	db	0
  1140   0020B7                     STR_70          equ	STR_69
  1141   0020B7                     STR_71          equ	STR_69
  1142   0020B3                     STR_67          equ	STR_66
  1143   0020B3                     STR_68          equ	STR_66
  1144   0020AE                     STR_8           equ	STR_1
  1145   0020AE                     STR_10          equ	STR_1
  1146   0020AE                     STR_19          equ	STR_1
  1147   0020AE                     STR_21          equ	STR_1
  1148   0020AE                     STR_30          equ	STR_1
  1149   0020AE                     STR_32          equ	STR_1
  1150   0020AE                     STR_43          equ	STR_1
  1151   0020AE                     STR_45          equ	STR_1
  1152   0020AE                     STR_51          equ	STR_1
  1153   0020AE                     STR_53          equ	STR_1
  1154   0020AE                     STR_59          equ	STR_1
  1155   0020AE                     STR_61          equ	STR_1
  1156   00208C                     STR_9           equ	STR_6
  1157   00208C                     STR_11          equ	STR_6
  1158   00208C                     STR_17          equ	STR_6
  1159   00208C                     STR_20          equ	STR_6
  1160   00208C                     STR_22          equ	STR_6
  1161   00208C                     STR_28          equ	STR_6
  1162   00208C                     STR_31          equ	STR_6
  1163   00208C                     STR_33          equ	STR_6
  1164   00208C                     STR_41          equ	STR_6
  1165   00208C                     STR_44          equ	STR_6
  1166   00208C                     STR_46          equ	STR_6
  1167   00208C                     STR_49          equ	STR_6
  1168   00208C                     STR_52          equ	STR_6
  1169   00208C                     STR_54          equ	STR_6
  1170   00208C                     STR_57          equ	STR_6
  1171   00208C                     STR_60          equ	STR_6
  1172   00208C                     STR_62          equ	STR_6
  1173   00207F                     STR_39          equ	STR_36
  1174   002024                     STR_25          equ	STR_14
  1175   002013                     STR_27          equ	STR_16
  1176   0020BC                     STR_40          equ	STR_37+1
  1177   002035                     STR_26          equ	STR_15
  1178   0020A9                     STR_18          equ	STR_7
  1179   0020A9                     STR_29          equ	STR_7
  1180   0020A9                     STR_42          equ	STR_7
  1181   0020A9                     STR_50          equ	STR_7
  1182   0020A9                     STR_58          equ	STR_7
  1183   002099                     STR_23          equ	STR_12
  1184   002099                     STR_34          equ	STR_12
  1185   002099                     STR_47          equ	STR_12
  1186   002099                     STR_55          equ	STR_12
  1187   002099                     STR_63          equ	STR_12
  1188   002099                     STR_64          equ	STR_12
  1189   002072                     STR_24          equ	STR_13
  1190   002072                     STR_35          equ	STR_13
  1191   002072                     STR_48          equ	STR_13
  1192   002072                     STR_56          equ	STR_13
  1193   002072                     STR_65          equ	STR_13
  1194   0020BF  00                 	db	0	; dummy byte at the end
  1195   002000                     __smallconst    set	__psmallconst
  1196   002000                     __mediumconst   set	__psmallconst
  1197   000003                     __activetblptr  equ	3
  1198                           
  1199                           ; #config settings
  1200                           
  1201                           	psect	cinit
  1202   006092                     __pcinit:
  1203                           	callstack 0
  1204   006092                     start_initialization:
  1205                           	callstack 0
  1206   006092                     __initialization:
  1207                           	callstack 0
  1208                           
  1209                           ; Clear objects allocated to BANK1 (80 bytes)
  1210   006092  EE00  F100         	lfsr	0,__pbssBANK1
  1211   006096  0E50               	movlw	80
  1212   006098                     clear_0:
  1213   006098  6AEE               	clrf	postinc0,c
  1214   00609A  06E8               	decf	wreg,f,c
  1215   00609C  E1FD               	bnz	clear_0
  1216                           
  1217                           ; Clear objects allocated to BANK0 (38 bytes)
  1218   00609E  EE00  F094         	lfsr	0,__pbssBANK0
  1219   0060A2  0E26               	movlw	38
  1220   0060A4                     clear_1:
  1221   0060A4  6AEE               	clrf	postinc0,c
  1222   0060A6  06E8               	decf	wreg,f,c
  1223   0060A8  E1FD               	bnz	clear_1
  1224                           
  1225                           ; Clear objects allocated to COMRAM (9 bytes)
  1226   0060AA  EE00  F056         	lfsr	0,__pbssCOMRAM
  1227   0060AE  0E09               	movlw	9
  1228   0060B0                     clear_2:
  1229   0060B0  6AEE               	clrf	postinc0,c
  1230   0060B2  06E8               	decf	wreg,f,c
  1231   0060B4  E1FD               	bnz	clear_2
  1232   0060B6                     end_of_initialization:
  1233                           	callstack 0
  1234   0060B6                     __end_of__initialization:
  1235                           	callstack 0
  1236   0060B6  0100               	movlb	0
  1237   0060B8  EF60  F010         	goto	_main	;jump to C main() function
  1238                           
  1239                           	psect	bssCOMRAM
  1240   000056                     __pbssCOMRAM:
  1241                           	callstack 0
  1242   000056                     _count1:
  1243                           	callstack 0
  1244   000056                     	ds	4
  1245   00005A                     _num:
  1246                           	callstack 0
  1247   00005A                     	ds	2
  1248   00005C                     _count2:
  1249                           	callstack 0
  1250   00005C                     	ds	2
  1251   00005E                     _flags:
  1252                           	callstack 0
  1253   00005E                     	ds	1
  1254                           
  1255                           	psect	bssBANK0
  1256   000094                     __pbssBANK0:
  1257                           	callstack 0
  1258   000094                     floorf@F521:
  1259                           	callstack 0
  1260   000094                     	ds	4
  1261   000098                     ___fpclassifyf@F465:
  1262                           	callstack 0
  1263   000098                     	ds	4
  1264   00009C                     _Difficulty:
  1265                           	callstack 0
  1266   00009C                     	ds	4
  1267   0000A0                     _voltage:
  1268                           	callstack 0
  1269   0000A0                     	ds	4
  1270   0000A4                     _width:
  1271                           	callstack 0
  1272   0000A4                     	ds	2
  1273   0000A6                     _prec:
  1274                           	callstack 0
  1275   0000A6                     	ds	2
  1276   0000A8                     _digital:
  1277                           	callstack 0
  1278   0000A8                     	ds	2
  1279   0000AA                     _elapsed_time_counts:
  1280                           	callstack 0
  1281   0000AA                     	ds	2
  1282   0000AC                     _data:
  1283                           	callstack 0
  1284   0000AC                     	ds	10
  1285   0000B6                     _seed:
  1286                           	callstack 0
  1287   0000B6                     	ds	4
  1288                           
  1289                           	psect	bssBANK1
  1290   000100                     __pbssBANK1:
  1291                           	callstack 0
  1292   000100                     _dbuf:
  1293                           	callstack 0
  1294   000100                     	ds	80
  1295                           
  1296                           	psect	cstackBANK0
  1297   000060                     __pcstackBANK0:
  1298                           	callstack 0
  1299   000060                     efgtoa@ne:
  1300                           	callstack 0
  1301                           
  1302                           ; 2 bytes @ 0x0
  1303   000060                     	ds	2
  1304   000062                     efgtoa@p:
  1305                           	callstack 0
  1306                           
  1307                           ; 2 bytes @ 0x2
  1308   000062                     	ds	2
  1309   000064                     efgtoa@t:
  1310                           	callstack 0
  1311                           
  1312                           ; 2 bytes @ 0x4
  1313   000064                     	ds	2
  1314   000066                     _efgtoa$976:
  1315                           	callstack 0
  1316                           
  1317                           ; 2 bytes @ 0x6
  1318   000066                     	ds	2
  1319   000068                     efgtoa@pp:
  1320                           	callstack 0
  1321                           
  1322                           ; 1 bytes @ 0x8
  1323   000068                     	ds	1
  1324   000069                     efgtoa@mode:
  1325                           	callstack 0
  1326                           
  1327                           ; 1 bytes @ 0x9
  1328   000069                     	ds	1
  1329   00006A                     efgtoa@nmode:
  1330                           	callstack 0
  1331                           
  1332                           ; 1 bytes @ 0xA
  1333   00006A                     	ds	1
  1334   00006B                     efgtoa@d:
  1335                           	callstack 0
  1336                           
  1337                           ; 2 bytes @ 0xB
  1338   00006B                     	ds	2
  1339   00006D                     efgtoa@m:
  1340                           	callstack 0
  1341                           
  1342                           ; 2 bytes @ 0xD
  1343   00006D                     	ds	2
  1344   00006F                     efgtoa@e:
  1345                           	callstack 0
  1346                           
  1347                           ; 2 bytes @ 0xF
  1348   00006F                     	ds	2
  1349   000071                     efgtoa@w:
  1350                           	callstack 0
  1351                           
  1352                           ; 2 bytes @ 0x11
  1353   000071                     	ds	2
  1354   000073                     efgtoa@ou:
  1355                           	callstack 0
  1356                           
  1357                           ; 4 bytes @ 0x13
  1358   000073                     	ds	4
  1359   000077                     efgtoa@i:
  1360                           	callstack 0
  1361                           
  1362                           ; 2 bytes @ 0x17
  1363   000077                     	ds	2
  1364   000079                     efgtoa@h:
  1365                           	callstack 0
  1366                           
  1367                           ; 4 bytes @ 0x19
  1368   000079                     	ds	4
  1369   00007D                     efgtoa@l:
  1370                           	callstack 0
  1371                           
  1372                           ; 4 bytes @ 0x1D
  1373   00007D                     	ds	4
  1374   000081                     efgtoa@sign:
  1375                           	callstack 0
  1376                           
  1377                           ; 1 bytes @ 0x21
  1378   000081                     	ds	1
  1379   000082                     efgtoa@n:
  1380                           	callstack 0
  1381                           
  1382                           ; 2 bytes @ 0x22
  1383   000082                     	ds	2
  1384   000084                     efgtoa@g:
  1385                           	callstack 0
  1386                           
  1387                           ; 4 bytes @ 0x24
  1388   000084                     	ds	4
  1389   000088                     efgtoa@u:
  1390                           	callstack 0
  1391                           
  1392                           ; 4 bytes @ 0x28
  1393   000088                     	ds	4
  1394   00008C                     ?_sprintf:
  1395                           	callstack 0
  1396   00008C                     sprintf@s:
  1397                           	callstack 0
  1398                           
  1399                           ; 1 bytes @ 0x2C
  1400   00008C                     	ds	1
  1401   00008D                     sprintf@fmt:
  1402                           	callstack 0
  1403                           
  1404                           ; 1 bytes @ 0x2D
  1405   00008D                     	ds	5
  1406   000092                     ??_main:
  1407                           
  1408                           ; 1 bytes @ 0x32
  1409   000092                     	ds	2
  1410                           
  1411                           	psect	cstackCOMRAM
  1412   000001                     __pcstackCOMRAM:
  1413                           	callstack 0
  1414   000001                     ?___fpclassifyf:
  1415                           	callstack 0
  1416   000001                     ?___awdiv:
  1417                           	callstack 0
  1418   000001                     ?_read_prec_or_width:
  1419                           	callstack 0
  1420   000001                     ?___fladd:
  1421                           	callstack 0
  1422   000001                     ?___fldiv:
  1423                           	callstack 0
  1424   000001                     ?_labs:
  1425                           	callstack 0
  1426   000001                     ?___lmul:
  1427                           	callstack 0
  1428   000001                     ?___flneg:
  1429                           	callstack 0
  1430   000001                     ?___fltol:
  1431                           	callstack 0
  1432   000001                     ?___xxtofl:
  1433                           	callstack 0
  1434   000001                     read_prec_or_width@fmt:
  1435                           	callstack 0
  1436   000001                     strcat@dest:
  1437                           	callstack 0
  1438   000001                     MSdelay@val:
  1439                           	callstack 0
  1440   000001                     ___awdiv@dividend:
  1441                           	callstack 0
  1442   000001                     memcpy@d1:
  1443                           	callstack 0
  1444   000001                     fputc@c:
  1445                           	callstack 0
  1446   000001                     strcpy@dest:
  1447                           	callstack 0
  1448   000001                     ___lmul@multiplier:
  1449                           	callstack 0
  1450   000001                     ___flneg@f1:
  1451                           	callstack 0
  1452   000001                     ___fltol@f1:
  1453                           	callstack 0
  1454   000001                     ___fladd@b:
  1455                           	callstack 0
  1456   000001                     ___fldiv@b:
  1457                           	callstack 0
  1458   000001                     ___xxtofl@val:
  1459                           	callstack 0
  1460   000001                     ___fpclassifyf@x:
  1461                           	callstack 0
  1462   000001                     labs@a:
  1463                           	callstack 0
  1464   000001                     
  1465                           ; 1 bytes @ 0x0
  1466   000001                     	ds	1
  1467   000002                     read_prec_or_width@ap:
  1468                           	callstack 0
  1469   000002                     strcat@src:
  1470                           	callstack 0
  1471                           
  1472                           ; 1 bytes @ 0x1
  1473   000002                     	ds	1
  1474   000003                     fputc@fp:
  1475                           	callstack 0
  1476   000003                     strcpy@src:
  1477                           	callstack 0
  1478   000003                     MSdelay@i:
  1479                           	callstack 0
  1480   000003                     ___awdiv@divisor:
  1481                           	callstack 0
  1482   000003                     memcpy@s1:
  1483                           	callstack 0
  1484   000003                     strcat@i:
  1485                           	callstack 0
  1486   000003                     ??_read_prec_or_width:
  1487                           
  1488                           ; 1 bytes @ 0x2
  1489   000003                     	ds	1
  1490   000004                     ??_fputc:
  1491   000004                     ??_strcpy:
  1492                           
  1493                           ; 1 bytes @ 0x3
  1494   000004                     	ds	1
  1495   000005                     ___awdiv@counter:
  1496                           	callstack 0
  1497   000005                     read_prec_or_width@c:
  1498                           	callstack 0
  1499   000005                     MSdelay@j:
  1500                           	callstack 0
  1501   000005                     memcpy@n:
  1502                           	callstack 0
  1503   000005                     strcpy@d:
  1504                           	callstack 0
  1505   000005                     ___lmul@multiplicand:
  1506                           	callstack 0
  1507   000005                     ___fladd@a:
  1508                           	callstack 0
  1509   000005                     ___fldiv@a:
  1510                           	callstack 0
  1511   000005                     ??___fpclassifyf:
  1512   000005                     ??_labs:
  1513   000005                     ??___fltol:
  1514   000005                     ??___xxtofl:
  1515                           
  1516                           ; 1 bytes @ 0x4
  1517   000005                     	ds	1
  1518   000006                     ___awdiv@sign:
  1519                           	callstack 0
  1520   000006                     read_prec_or_width@n:
  1521                           	callstack 0
  1522                           
  1523                           ; 2 bytes @ 0x5
  1524   000006                     	ds	1
  1525   000007                     LCD_Command@cmd:
  1526                           	callstack 0
  1527   000007                     LCD_Char@dat:
  1528                           	callstack 0
  1529   000007                     ___awdiv@quotient:
  1530                           	callstack 0
  1531   000007                     memcpy@d:
  1532                           	callstack 0
  1533   000007                     
  1534                           ; 1 bytes @ 0x6
  1535   000007                     	ds	1
  1536   000008                     LCD_String@msg:
  1537                           	callstack 0
  1538   000008                     
  1539                           ; 1 bytes @ 0x7
  1540   000008                     	ds	1
  1541   000009                     ___fltol@sign1:
  1542                           	callstack 0
  1543   000009                     ___xxtofl@sign:
  1544                           	callstack 0
  1545   000009                     ___fpclassifyf@e:
  1546                           	callstack 0
  1547   000009                     memcpy@s:
  1548                           	callstack 0
  1549   000009                     fputs@s:
  1550                           	callstack 0
  1551   000009                     ___lmul@product:
  1552                           	callstack 0
  1553   000009                     ??___fladd:
  1554   000009                     ??___fldiv:
  1555   000009                     
  1556                           ; 1 bytes @ 0x8
  1557   000009                     	ds	1
  1558   00000A                     LCD_String_xy@pos:
  1559                           	callstack 0
  1560   00000A                     ___fltol@exp1:
  1561                           	callstack 0
  1562   00000A                     ___xxtofl@exp:
  1563                           	callstack 0
  1564   00000A                     
  1565                           ; 1 bytes @ 0x9
  1566   00000A                     	ds	1
  1567   00000B                     memcpy@tmp:
  1568                           	callstack 0
  1569   00000B                     fputs@fp:
  1570                           	callstack 0
  1571   00000B                     LCD_String_xy@msg:
  1572                           	callstack 0
  1573   00000B                     ___xxtofl@arg:
  1574                           	callstack 0
  1575   00000B                     ___fpclassifyf@u:
  1576                           	callstack 0
  1577                           
  1578                           ; 4 bytes @ 0xA
  1579   00000B                     	ds	1
  1580   00000C                     fputs@c:
  1581                           	callstack 0
  1582   00000C                     
  1583                           ; 1 bytes @ 0xB
  1584   00000C                     	ds	1
  1585   00000D                     ?_rand:
  1586                           	callstack 0
  1587   00000D                     LCD_String_xy@row:
  1588                           	callstack 0
  1589   00000D                     ___fladd@signs:
  1590                           	callstack 0
  1591   00000D                     fputs@i:
  1592                           	callstack 0
  1593   00000D                     ___fldiv@rem:
  1594                           	callstack 0
  1595   00000D                     
  1596                           ; 1 bytes @ 0xC
  1597   00000D                     	ds	1
  1598   00000E                     LCD_String_xy@location:
  1599                           	callstack 0
  1600   00000E                     ___fladd@aexp:
  1601                           	callstack 0
  1602                           
  1603                           ; 1 bytes @ 0xD
  1604   00000E                     	ds	1
  1605   00000F                     ?___flmul:
  1606                           	callstack 0
  1607   00000F                     ___fladd@bexp:
  1608                           	callstack 0
  1609   00000F                     pad@fp:
  1610                           	callstack 0
  1611   00000F                     ___fleq@ff1:
  1612                           	callstack 0
  1613   00000F                     ___flmul@b:
  1614                           	callstack 0
  1615   00000F                     ??_rand:
  1616                           
  1617                           ; 1 bytes @ 0xE
  1618   00000F                     	ds	1
  1619   000010                     ___fladd@grs:
  1620                           	callstack 0
  1621   000010                     pad@buf:
  1622                           	callstack 0
  1623                           
  1624                           ; 2 bytes @ 0xF
  1625   000010                     	ds	1
  1626   000011                     ___fldiv@sign:
  1627                           	callstack 0
  1628                           
  1629                           ; 1 bytes @ 0x10
  1630   000011                     	ds	1
  1631   000012                     ___fldiv@new_exp:
  1632                           	callstack 0
  1633   000012                     pad@p:
  1634                           	callstack 0
  1635                           
  1636                           ; 2 bytes @ 0x11
  1637   000012                     	ds	1
  1638   000013                     ?___awmod:
  1639                           	callstack 0
  1640   000013                     ___awmod@dividend:
  1641                           	callstack 0
  1642   000013                     ___fleq@ff2:
  1643                           	callstack 0
  1644   000013                     ___flmul@a:
  1645                           	callstack 0
  1646                           
  1647                           ; 4 bytes @ 0x12
  1648   000013                     	ds	1
  1649   000014                     ___fldiv@grs:
  1650                           	callstack 0
  1651   000014                     ??_pad:
  1652                           
  1653                           ; 1 bytes @ 0x13
  1654   000014                     	ds	1
  1655   000015                     ___awmod@divisor:
  1656                           	callstack 0
  1657   000015                     pad@i:
  1658                           	callstack 0
  1659                           
  1660                           ; 2 bytes @ 0x14
  1661   000015                     	ds	2
  1662   000017                     ___awmod@counter:
  1663                           	callstack 0
  1664   000017                     ??___flmul:
  1665   000017                     ??___fleq:
  1666                           
  1667                           ; 1 bytes @ 0x16
  1668   000017                     	ds	1
  1669   000018                     ___awmod@sign:
  1670                           	callstack 0
  1671   000018                     ___fldiv@bexp:
  1672                           	callstack 0
  1673                           
  1674                           ; 1 bytes @ 0x17
  1675   000018                     	ds	1
  1676   000019                     ?_abs:
  1677                           	callstack 0
  1678   000019                     ___fldiv@aexp:
  1679                           	callstack 0
  1680   000019                     abs@a:
  1681                           	callstack 0
  1682                           
  1683                           ; 2 bytes @ 0x18
  1684   000019                     	ds	1
  1685   00001A                     ?_floorf:
  1686                           	callstack 0
  1687   00001A                     floorf@x:
  1688                           	callstack 0
  1689                           
  1690                           ; 4 bytes @ 0x19
  1691   00001A                     	ds	1
  1692   00001B                     ___flmul@sign:
  1693                           	callstack 0
  1694   00001B                     ??_abs:
  1695                           
  1696                           ; 1 bytes @ 0x1A
  1697   00001B                     	ds	1
  1698   00001C                     ___flmul@grs:
  1699                           	callstack 0
  1700                           
  1701                           ; 4 bytes @ 0x1B
  1702   00001C                     	ds	1
  1703   00001D                     dtoa@fp:
  1704                           	callstack 0
  1705                           
  1706                           ; 1 bytes @ 0x1C
  1707   00001D                     	ds	1
  1708   00001E                     dtoa@d:
  1709                           	callstack 0
  1710   00001E                     ??_floorf:
  1711                           
  1712                           ; 1 bytes @ 0x1D
  1713   00001E                     	ds	2
  1714   000020                     ___flmul@aexp:
  1715                           	callstack 0
  1716   000020                     _dtoa$945:
  1717                           	callstack 0
  1718   000020                     
  1719                           ; 1 bytes @ 0x1F
  1720   000020                     	ds	1
  1721   000021                     ___flmul@bexp:
  1722                           	callstack 0
  1723                           
  1724                           ; 1 bytes @ 0x20
  1725   000021                     	ds	1
  1726   000022                     dtoa@w:
  1727                           	callstack 0
  1728   000022                     ___flmul@prod:
  1729                           	callstack 0
  1730                           
  1731                           ; 4 bytes @ 0x21
  1732   000022                     	ds	2
  1733   000024                     dtoa@p:
  1734                           	callstack 0
  1735   000024                     floorf@m:
  1736                           	callstack 0
  1737                           
  1738                           ; 4 bytes @ 0x23
  1739   000024                     	ds	2
  1740   000026                     dtoa@s:
  1741                           	callstack 0
  1742   000026                     ___flmul@temp:
  1743                           	callstack 0
  1744                           
  1745                           ; 2 bytes @ 0x25
  1746   000026                     	ds	1
  1747   000027                     dtoa@i:
  1748                           	callstack 0
  1749                           
  1750                           ; 2 bytes @ 0x26
  1751   000027                     	ds	1
  1752   000028                     ?___flsub:
  1753                           	callstack 0
  1754   000028                     floorf@e:
  1755                           	callstack 0
  1756   000028                     ___flge@ff1:
  1757                           	callstack 0
  1758   000028                     ___flsub@b:
  1759                           	callstack 0
  1760                           
  1761                           ; 4 bytes @ 0x27
  1762   000028                     	ds	2
  1763   00002A                     floorf@u:
  1764                           	callstack 0
  1765                           
  1766                           ; 4 bytes @ 0x29
  1767   00002A                     	ds	2
  1768   00002C                     ___flge@ff2:
  1769                           	callstack 0
  1770   00002C                     ___flsub@a:
  1771                           	callstack 0
  1772                           
  1773                           ; 4 bytes @ 0x2B
  1774   00002C                     	ds	4
  1775   000030                     ??___flge:
  1776                           
  1777                           ; 1 bytes @ 0x2F
  1778   000030                     	ds	4
  1779   000034                     efgtoa@fp:
  1780                           	callstack 0
  1781                           
  1782                           ; 1 bytes @ 0x33
  1783   000034                     	ds	1
  1784   000035                     efgtoa@f:
  1785                           	callstack 0
  1786                           
  1787                           ; 4 bytes @ 0x34
  1788   000035                     	ds	4
  1789   000039                     efgtoa@c:
  1790                           	callstack 0
  1791                           
  1792                           ; 1 bytes @ 0x38
  1793   000039                     	ds	1
  1794   00003A                     ??_efgtoa:
  1795                           
  1796                           ; 1 bytes @ 0x39
  1797   00003A                     	ds	2
  1798   00003C                     vfpfcnvrt@fp:
  1799                           	callstack 0
  1800                           
  1801                           ; 1 bytes @ 0x3B
  1802   00003C                     	ds	1
  1803   00003D                     vfpfcnvrt@fmt:
  1804                           	callstack 0
  1805                           
  1806                           ; 1 bytes @ 0x3C
  1807   00003D                     	ds	1
  1808   00003E                     vfpfcnvrt@ap:
  1809                           	callstack 0
  1810                           
  1811                           ; 1 bytes @ 0x3D
  1812   00003E                     	ds	1
  1813   00003F                     ??_vfpfcnvrt:
  1814                           
  1815                           ; 1 bytes @ 0x3E
  1816   00003F                     	ds	1
  1817   000040                     vfpfcnvrt@convarg:
  1818                           	callstack 0
  1819                           
  1820                           ; 4 bytes @ 0x3F
  1821   000040                     	ds	4
  1822   000044                     vfpfcnvrt@c:
  1823                           	callstack 0
  1824                           
  1825                           ; 1 bytes @ 0x43
  1826   000044                     	ds	1
  1827   000045                     vfpfcnvrt@cp:
  1828                           	callstack 0
  1829                           
  1830                           ; 1 bytes @ 0x44
  1831   000045                     	ds	1
  1832   000046                     ?_vfprintf:
  1833                           	callstack 0
  1834   000046                     vfprintf@fp:
  1835                           	callstack 0
  1836                           
  1837                           ; 1 bytes @ 0x45
  1838   000046                     	ds	1
  1839   000047                     vfprintf@fmt:
  1840                           	callstack 0
  1841                           
  1842                           ; 1 bytes @ 0x46
  1843   000047                     	ds	1
  1844   000048                     vfprintf@ap:
  1845                           	callstack 0
  1846                           
  1847                           ; 1 bytes @ 0x47
  1848   000048                     	ds	1
  1849   000049                     vfprintf@cfmt:
  1850                           	callstack 0
  1851   000049                     
  1852                           ; 1 bytes @ 0x48
  1853   000049                     	ds	1
  1854   00004A                     sprintf@ap:
  1855                           	callstack 0
  1856   00004A                     
  1857                           ; 1 bytes @ 0x49
  1858   00004A                     	ds	1
  1859   00004B                     sprintf@f:
  1860                           	callstack 0
  1861                           
  1862                           ; 11 bytes @ 0x4A
  1863   00004B                     	ds	11
  1864                           
  1865 ;;
  1866 ;;Main: autosize = 0, tempsize = 2, incstack = 0, save=0
  1867 ;;
  1868 ;; *************** function _main *****************
  1869 ;; Defined at:
  1870 ;;		line 35 in file "310FinalP.c"
  1871 ;; Parameters:    Size  Location     Type
  1872 ;;		None
  1873 ;; Auto vars:     Size  Location     Type
  1874 ;;		None
  1875 ;; Return value:  Size  Location     Type
  1876 ;;                  1    wreg      void 
  1877 ;; Registers used:
  1878 ;;		wreg, fsr1l, fsr1h, fsr2l, fsr2h, status,2, status,0, tblptrl, tblptrh, tblptru, prodl, prodh, cstack
  1879 ;; Tracked objects:
  1880 ;;		On entry : 0/0
  1881 ;;		On exit  : 0/0
  1882 ;;		Unchanged: 0/0
  1883 ;; Data sizes:     COMRAM   BANK0   BANK1   BANK2   BANK3   BANK4   BANK5   BANK6   BANK7   BANK8   BANK9  BANK10  BANK1
      +1  BANK12  BANK13  BANK14  BANK15  BANK16  BANK17  BANK18  BANK19  BANK20  BANK21  BANK22  BANK23  BANK24  BANK25  BANK2
      +6  BANK27  BANK28  BANK29  BANK30  BANK31
  1884 ;;      Params:         0       0       0       0       0       0       0       0       0       0       0       0       
      +0       0       0       0       0       0       0       0       0       0       0       0       0       0       0       
      +0       0       0       0       0       0
  1885 ;;      Locals:         0       0       0       0       0       0       0       0       0       0       0       0       
      +0       0       0       0       0       0       0       0       0       0       0       0       0       0       0       
      +0       0       0       0       0       0
  1886 ;;      Temps:          0       2       0       0       0       0       0       0       0       0       0       0       
      +0       0       0       0       0       0       0       0       0       0       0       0       0       0       0       
      +0       0       0       0       0       0
  1887 ;;      Totals:         0       2       0       0       0       0       0       0       0       0       0       0       
      +0       0       0       0       0       0       0       0       0       0       0       0       0       0       0       
      +0       0       0       0       0       0
  1888 ;;Total ram usage:        2 bytes
  1889 ;; Hardware stack levels required when called: 8
  1890 ;; This function calls:
  1891 ;;		_ADC_Init
  1892 ;;		_LCD_Clear
  1893 ;;		_LCD_Init
  1894 ;;		_LCD_String_xy
  1895 ;;		_MSdelay
  1896 ;;		___awmod
  1897 ;;		___fladd
  1898 ;;		___fleq
  1899 ;;		___flge
  1900 ;;		___flmul
  1901 ;;		___flsub
  1902 ;;		___xxtofl
  1903 ;;		_rand
  1904 ;;		_sprintf
  1905 ;;		_strcat
  1906 ;; This function is called by:
  1907 ;;		Startup code after reset
  1908 ;; This function uses a non-reentrant model
  1909 ;;
  1910                           
  1911                           	psect	text0
  1912   0020C0                     __ptext0:
  1913                           	callstack 0
  1914   0020C0                     _main:
  1915                           	callstack 23
  1916   0020C0                     l117:
  1917   0020C0  EC14  F030         	call	_LCD_Init	;wreg free
  1918   0020C4  EC5E  F030         	call	_ADC_Init	;wreg free
  1919   0020C8  0E00               	movlw	0
  1920   0020CA  6E5D               	movwf	(_count2+1)^0,c
  1921   0020CC  0E00               	movlw	0
  1922   0020CE  6E5C               	movwf	_count2^0,c
  1923   0020D0  0E00               	movlw	0
  1924   0020D2  6E56               	movwf	_count1^0,c
  1925   0020D4  0E00               	movlw	0
  1926   0020D6  6E57               	movwf	(_count1+1)^0,c
  1927   0020D8  0E00               	movlw	0
  1928   0020DA  6E58               	movwf	(_count1+2)^0,c
  1929   0020DC  0E00               	movlw	0
  1930   0020DE  6E59               	movwf	(_count1+3)^0,c
  1931   0020E0                     l4663:
  1932   0020E0  013E               	movlb	62	; () banked
  1933   0020E2  81F8               	bsf	248,0,b	;volatile
  1934   0020E4                     l119:
  1935                           
  1936                           ; BSR set to: 62
  1937   0020E4  B1F8               	btfsc	248,0,b	;volatile
  1938   0020E6  EF77  F010         	goto	u4931
  1939   0020EA  EF79  F010         	goto	u4930
  1940   0020EE                     u4931:
  1941   0020EE  EF72  F010         	goto	l119
  1942   0020F2                     u4930:
  1943   0020F2                     
  1944                           ; BSR set to: 62
  1945   0020F2  51EF               	movf	239,w,b	;volatile
  1946   0020F4  006F FBC0  F092    	movff	16112,??_main	;volatile
  1947   0020FA  0100               	movlb	0	; () banked
  1948   0020FC  6B93               	clrf	(??_main+1)& (0+255),b
  1949   0020FE  C092  F093         	movff	??_main,??_main+1
  1950   002102  6B92               	clrf	??_main& (0+255),b
  1951   002104  1192               	iorwf	??_main& (0+255),w,b
  1952   002106  6FA8               	movwf	_digital& (0+255),b
  1953   002108  5193               	movf	(??_main+1)& (0+255),w,b
  1954   00210A  6FA9               	movwf	(_digital+1)& (0+255),b
  1955   00210C                     
  1956                           ; BSR set to: 0
  1957   00210C  C0A8  F001         	movff	_digital,___xxtofl@val
  1958   002110  C0A9  F002         	movff	_digital+1,___xxtofl@val+1
  1959   002114  0E00               	movlw	0
  1960   002116  BE02               	btfsc	(___xxtofl@val+1)^0,7,c
  1961   002118  0EFF               	movlw	-1
  1962   00211A  6E03               	movwf	(___xxtofl@val+2)^0,c
  1963   00211C  6E04               	movwf	(___xxtofl@val+3)^0,c
  1964   00211E  0E01               	movlw	1
  1965   002120  ECBF  F028         	call	___xxtofl
  1966   002124  C001  F00F         	movff	?___xxtofl,___flmul@b
  1967   002128  C002  F010         	movff	?___xxtofl+1,___flmul@b+1
  1968   00212C  C003  F011         	movff	?___xxtofl+2,___flmul@b+2
  1969   002130  C004  F012         	movff	?___xxtofl+3,___flmul@b+3
  1970   002134  0E33               	movlw	51
  1971   002136  6E13               	movwf	___flmul@a^0,c
  1972   002138  0E33               	movlw	51
  1973   00213A  6E14               	movwf	(___flmul@a+1)^0,c
  1974   00213C  0E53               	movlw	83
  1975   00213E  6E15               	movwf	(___flmul@a+2)^0,c
  1976   002140  0E3A               	movlw	58
  1977   002142  6E16               	movwf	(___flmul@a+3)^0,c
  1978   002144  EC66  F022         	call	___flmul	;wreg free
  1979   002148  C00F  F0A0         	movff	?___flmul,_voltage
  1980   00214C  C010  F0A1         	movff	?___flmul+1,_voltage+1
  1981   002150  C011  F0A2         	movff	?___flmul+2,_voltage+2
  1982   002154  C012  F0A3         	movff	?___flmul+3,_voltage+3
  1983   002158  C0A0  F028         	movff	_voltage,___flge@ff1
  1984   00215C  C0A1  F029         	movff	_voltage+1,___flge@ff1+1
  1985   002160  C0A2  F02A         	movff	_voltage+2,___flge@ff1+2
  1986   002164  C0A3  F02B         	movff	_voltage+3,___flge@ff1+3
  1987   002168  0E00               	movlw	0
  1988   00216A  6E2C               	movwf	___flge@ff2^0,c
  1989   00216C  0E00               	movlw	0
  1990   00216E  6E2D               	movwf	(___flge@ff2+1)^0,c
  1991   002170  0E80               	movlw	128
  1992   002172  6E2E               	movwf	(___flge@ff2+2)^0,c
  1993   002174  0E3F               	movlw	63
  1994   002176  6E2F               	movwf	(___flge@ff2+3)^0,c
  1995   002178  ECD9  F02A         	call	___flge	;wreg free
  1996   00217C  B0D8               	btfsc	status,0,c
  1997   00217E  EFC3  F010         	goto	u4941
  1998   002182  EFC5  F010         	goto	u4940
  1999   002186                     u4941:
  2000   002186  EFCE  F010         	goto	l4673
  2001   00218A                     u4940:
  2002   00218A  0E00               	movlw	0
  2003   00218C  0100               	movlb	0	; () banked
  2004   00218E  6F9C               	movwf	_Difficulty& (0+255),b
  2005   002190  0E00               	movlw	0
  2006   002192  6F9D               	movwf	(_Difficulty+1)& (0+255),b
  2007   002194  0E80               	movlw	128
  2008   002196  6F9E               	movwf	(_Difficulty+2)& (0+255),b
  2009   002198  0E3F               	movlw	63
  2010   00219A  6F9F               	movwf	(_Difficulty+3)& (0+255),b
  2011   00219C                     l4673:
  2012   00219C  0E00               	movlw	0
  2013   00219E  6E28               	movwf	___flge@ff1^0,c
  2014   0021A0  0E00               	movlw	0
  2015   0021A2  6E29               	movwf	(___flge@ff1+1)^0,c
  2016   0021A4  0E80               	movlw	128
  2017   0021A6  6E2A               	movwf	(___flge@ff1+2)^0,c
  2018   0021A8  0E3F               	movlw	63
  2019   0021AA  6E2B               	movwf	(___flge@ff1+3)^0,c
  2020   0021AC  C0A0  F02C         	movff	_voltage,___flge@ff2
  2021   0021B0  C0A1  F02D         	movff	_voltage+1,___flge@ff2+1
  2022   0021B4  C0A2  F02E         	movff	_voltage+2,___flge@ff2+2
  2023   0021B8  C0A3  F02F         	movff	_voltage+3,___flge@ff2+3
  2024   0021BC  ECD9  F02A         	call	___flge	;wreg free
  2025   0021C0  B0D8               	btfsc	status,0,c
  2026   0021C2  EFE5  F010         	goto	u4951
  2027   0021C6  EFE7  F010         	goto	u4950
  2028   0021CA                     u4951:
  2029   0021CA  EFF0  F010         	goto	l4677
  2030   0021CE                     u4950:
  2031   0021CE  0E00               	movlw	0
  2032   0021D0  0100               	movlb	0	; () banked
  2033   0021D2  6F9C               	movwf	_Difficulty& (0+255),b
  2034   0021D4  0E00               	movlw	0
  2035   0021D6  6F9D               	movwf	(_Difficulty+1)& (0+255),b
  2036   0021D8  0E00               	movlw	0
  2037   0021DA  6F9E               	movwf	(_Difficulty+2)& (0+255),b
  2038   0021DC  0E40               	movlw	64
  2039   0021DE  6F9F               	movwf	(_Difficulty+3)& (0+255),b
  2040   0021E0                     l4677:
  2041   0021E0  0E00               	movlw	0
  2042   0021E2  6E28               	movwf	___flge@ff1^0,c
  2043   0021E4  0E00               	movlw	0
  2044   0021E6  6E29               	movwf	(___flge@ff1+1)^0,c
  2045   0021E8  0EC0               	movlw	192
  2046   0021EA  6E2A               	movwf	(___flge@ff1+2)^0,c
  2047   0021EC  0E3F               	movlw	63
  2048   0021EE  6E2B               	movwf	(___flge@ff1+3)^0,c
  2049   0021F0  C0A0  F02C         	movff	_voltage,___flge@ff2
  2050   0021F4  C0A1  F02D         	movff	_voltage+1,___flge@ff2+1
  2051   0021F8  C0A2  F02E         	movff	_voltage+2,___flge@ff2+2
  2052   0021FC  C0A3  F02F         	movff	_voltage+3,___flge@ff2+3
  2053   002200  ECD9  F02A         	call	___flge	;wreg free
  2054   002204  B0D8               	btfsc	status,0,c
  2055   002206  EF07  F011         	goto	u4961
  2056   00220A  EF09  F011         	goto	u4960
  2057   00220E                     u4961:
  2058   00220E  EF12  F011         	goto	l4681
  2059   002212                     u4960:
  2060   002212  0E00               	movlw	0
  2061   002214  0100               	movlb	0	; () banked
  2062   002216  6F9C               	movwf	_Difficulty& (0+255),b
  2063   002218  0E00               	movlw	0
  2064   00221A  6F9D               	movwf	(_Difficulty+1)& (0+255),b
  2065   00221C  0E40               	movlw	64
  2066   00221E  6F9E               	movwf	(_Difficulty+2)& (0+255),b
  2067   002220  0E40               	movlw	64
  2068   002222  6F9F               	movwf	(_Difficulty+3)& (0+255),b
  2069   002224                     l4681:
  2070   002224  0E00               	movlw	0
  2071   002226  6E28               	movwf	___flge@ff1^0,c
  2072   002228  0E00               	movlw	0
  2073   00222A  6E29               	movwf	(___flge@ff1+1)^0,c
  2074   00222C  0E00               	movlw	0
  2075   00222E  6E2A               	movwf	(___flge@ff1+2)^0,c
  2076   002230  0E40               	movlw	64
  2077   002232  6E2B               	movwf	(___flge@ff1+3)^0,c
  2078   002234  C0A0  F02C         	movff	_voltage,___flge@ff2
  2079   002238  C0A1  F02D         	movff	_voltage+1,___flge@ff2+1
  2080   00223C  C0A2  F02E         	movff	_voltage+2,___flge@ff2+2
  2081   002240  C0A3  F02F         	movff	_voltage+3,___flge@ff2+3
  2082   002244  ECD9  F02A         	call	___flge	;wreg free
  2083   002248  B0D8               	btfsc	status,0,c
  2084   00224A  EF29  F011         	goto	u4971
  2085   00224E  EF2B  F011         	goto	u4970
  2086   002252                     u4971:
  2087   002252  EF34  F011         	goto	l4685
  2088   002256                     u4970:
  2089   002256  0E00               	movlw	0
  2090   002258  0100               	movlb	0	; () banked
  2091   00225A  6F9C               	movwf	_Difficulty& (0+255),b
  2092   00225C  0E00               	movlw	0
  2093   00225E  6F9D               	movwf	(_Difficulty+1)& (0+255),b
  2094   002260  0E80               	movlw	128
  2095   002262  6F9E               	movwf	(_Difficulty+2)& (0+255),b
  2096   002264  0E40               	movlw	64
  2097   002266  6F9F               	movwf	(_Difficulty+3)& (0+255),b
  2098   002268                     l4685:
  2099   002268  0EAC               	movlw	low _data
  2100   00226A  0100               	movlb	0	; () banked
  2101   00226C  6F8C               	movwf	sprintf@s& (0+255),b
  2102   00226E  0EAE               	movlw	low STR_1
  2103   002270  6F8D               	movwf	sprintf@fmt& (0+255),b
  2104   002272  C09C  F08E         	movff	_Difficulty,?_sprintf+2
  2105   002276  C09D  F08F         	movff	_Difficulty+1,?_sprintf+3
  2106   00227A  C09E  F090         	movff	_Difficulty+2,?_sprintf+4
  2107   00227E  C09F  F091         	movff	_Difficulty+3,?_sprintf+5
  2108   002282  ECF9  F02F         	call	_sprintf	;wreg free
  2109   002286  0E00               	movlw	0
  2110   002288  6E0A               	movwf	LCD_String_xy@pos^0,c
  2111   00228A  0E01               	movlw	low STR_2
  2112   00228C  6E0B               	movwf	LCD_String_xy@msg^0,c
  2113   00228E  500B               	movf	LCD_String_xy@msg^0,w,c
  2114   002290  A4D8               	btfss	status,2,c
  2115   002292  0E20               	movlw	high __smallconst
  2116   002294  6E0C               	movwf	(LCD_String_xy@msg+1)^0,c
  2117   002296  0E01               	movlw	1
  2118   002298  ECBD  F02F         	call	_LCD_String_xy
  2119   00229C  0E04               	movlw	4
  2120   00229E  6E0A               	movwf	LCD_String_xy@pos^0,c
  2121   0022A0  0EAC               	movlw	low _data
  2122   0022A2  6E0B               	movwf	LCD_String_xy@msg^0,c
  2123   0022A4  6A0C               	clrf	(LCD_String_xy@msg+1)^0,c
  2124   0022A6  0E02               	movlw	2
  2125   0022A8  ECBD  F02F         	call	_LCD_String_xy
  2126   0022AC  0E00               	movlw	0
  2127   0022AE  6E02               	movwf	(MSdelay@val+1)^0,c
  2128   0022B0  0E64               	movlw	100
  2129   0022B2  6E01               	movwf	MSdelay@val^0,c
  2130   0022B4  EC10  F02F         	call	_MSdelay	;wreg free
  2131   0022B8  BECD               	btfsc	205,7,c	;volatile
  2132   0022BA  EF61  F011         	goto	u4981
  2133   0022BE  EF63  F011         	goto	u4980
  2134   0022C2                     u4981:
  2135   0022C2  EF70  F010         	goto	l4663
  2136   0022C6                     u4980:
  2137   0022C6  EC90  F030         	call	_LCD_Clear	;wreg free
  2138   0022CA  0E00               	movlw	0
  2139   0022CC  6E0A               	movwf	LCD_String_xy@pos^0,c
  2140   0022CE  0E63               	movlw	low STR_3
  2141   0022D0  6E0B               	movwf	LCD_String_xy@msg^0,c
  2142   0022D2  500B               	movf	LCD_String_xy@msg^0,w,c
  2143   0022D4  A4D8               	btfss	status,2,c
  2144   0022D6  0E20               	movlw	high __smallconst
  2145   0022D8  6E0C               	movwf	(LCD_String_xy@msg+1)^0,c
  2146   0022DA  0E01               	movlw	1
  2147   0022DC  ECBD  F02F         	call	_LCD_String_xy
  2148   0022E0  0E06               	movlw	6
  2149   0022E2  0100               	movlb	0	; () banked
  2150   0022E4  6F93               	movwf	(??_main+1)& (0+255),b
  2151   0022E6  0E13               	movlw	19
  2152   0022E8  6F92               	movwf	??_main& (0+255),b
  2153   0022EA  0EAD               	movlw	173
  2154   0022EC                     u5297:
  2155   0022EC  2EE8               	decfsz	wreg,f,c
  2156   0022EE  D7FE               	bra	u5297
  2157   0022F0  2F92               	decfsz	??_main& (0+255),f,b
  2158   0022F2  D7FC               	bra	u5297
  2159   0022F4  2F93               	decfsz	(??_main+1)& (0+255),f,b
  2160   0022F6  D7FA               	bra	u5297
  2161   0022F8  D000               	nop2	
  2162   0022FA  0E00               	movlw	0
  2163   0022FC  6E0A               	movwf	LCD_String_xy@pos^0,c
  2164   0022FE  0E54               	movlw	low STR_4
  2165   002300  6E0B               	movwf	LCD_String_xy@msg^0,c
  2166   002302  500B               	movf	LCD_String_xy@msg^0,w,c
  2167   002304  A4D8               	btfss	status,2,c
  2168   002306  0E20               	movlw	high __smallconst
  2169   002308  6E0C               	movwf	(LCD_String_xy@msg+1)^0,c
  2170   00230A  0E01               	movlw	1
  2171   00230C  ECBD  F02F         	call	_LCD_String_xy
  2172   002310  0E06               	movlw	6
  2173   002312  0100               	movlb	0	; () banked
  2174   002314  6F93               	movwf	(??_main+1)& (0+255),b
  2175   002316  0E13               	movlw	19
  2176   002318  6F92               	movwf	??_main& (0+255),b
  2177   00231A  0EAD               	movlw	173
  2178   00231C                     u5307:
  2179   00231C  2EE8               	decfsz	wreg,f,c
  2180   00231E  D7FE               	bra	u5307
  2181   002320  2F92               	decfsz	??_main& (0+255),f,b
  2182   002322  D7FC               	bra	u5307
  2183   002324  2F93               	decfsz	(??_main+1)& (0+255),f,b
  2184   002326  D7FA               	bra	u5307
  2185   002328  D000               	nop2	
  2186   00232A  0E00               	movlw	0
  2187   00232C  6E0A               	movwf	LCD_String_xy@pos^0,c
  2188   00232E  0E45               	movlw	low STR_5
  2189   002330  6E0B               	movwf	LCD_String_xy@msg^0,c
  2190   002332  500B               	movf	LCD_String_xy@msg^0,w,c
  2191   002334  A4D8               	btfss	status,2,c
  2192   002336  0E20               	movlw	high __smallconst
  2193   002338  6E0C               	movwf	(LCD_String_xy@msg+1)^0,c
  2194   00233A  0E01               	movlw	1
  2195   00233C  ECBD  F02F         	call	_LCD_String_xy
  2196   002340  0E06               	movlw	6
  2197   002342  0100               	movlb	0	; () banked
  2198   002344  6F93               	movwf	(??_main+1)& (0+255),b
  2199   002346  0E13               	movlw	19
  2200   002348  6F92               	movwf	??_main& (0+255),b
  2201   00234A  0EAD               	movlw	173
  2202   00234C                     u5317:
  2203   00234C  2EE8               	decfsz	wreg,f,c
  2204   00234E  D7FE               	bra	u5317
  2205   002350  2F92               	decfsz	??_main& (0+255),f,b
  2206   002352  D7FC               	bra	u5317
  2207   002354  2F93               	decfsz	(??_main+1)& (0+255),f,b
  2208   002356  D7FA               	bra	u5317
  2209   002358  D000               	nop2	
  2210   00235A  EC90  F030         	call	_LCD_Clear	;wreg free
  2211   00235E                     l4711:
  2212   00235E  C09C  F00F         	movff	_Difficulty,___fleq@ff1
  2213   002362  C09D  F010         	movff	_Difficulty+1,___fleq@ff1+1
  2214   002366  C09E  F011         	movff	_Difficulty+2,___fleq@ff1+2
  2215   00236A  C09F  F012         	movff	_Difficulty+3,___fleq@ff1+3
  2216   00236E  0E00               	movlw	0
  2217   002370  6E13               	movwf	___fleq@ff2^0,c
  2218   002372  0E00               	movlw	0
  2219   002374  6E14               	movwf	(___fleq@ff2+1)^0,c
  2220   002376  0E80               	movlw	128
  2221   002378  6E15               	movwf	(___fleq@ff2+2)^0,c
  2222   00237A  0E40               	movlw	64
  2223   00237C  6E16               	movwf	(___fleq@ff2+3)^0,c
  2224   00237E  EC44  F02D         	call	___fleq	;wreg free
  2225   002382  A0D8               	btfss	status,0,c
  2226   002384  EFC6  F011         	goto	u4991
  2227   002388  EFC8  F011         	goto	u4990
  2228   00238C                     u4991:
  2229   00238C  EF92  F016         	goto	l4935
  2230   002390                     u4990:
  2231   002390  EC1B  F02E         	call	_rand	;wreg free
  2232   002394  0E0F               	movlw	15
  2233   002396  140D               	andwf	?_rand^0,w,c
  2234   002398  6E5A               	movwf	_num^0,c
  2235   00239A  6A5B               	clrf	(_num+1)^0,c
  2236   00239C  0060  F16B  FFCD   	movff	_num,16333	;volatile
  2237   0023A2  0E02               	movlw	2
  2238   0023A4  0100               	movlb	0	; () banked
  2239   0023A6  6F93               	movwf	(??_main+1)& (0+255),b
  2240   0023A8  0E45               	movlw	69
  2241   0023AA  6F92               	movwf	??_main& (0+255),b
  2242   0023AC  0EA9               	movlw	169
  2243   0023AE                     u5327:
  2244   0023AE  2EE8               	decfsz	wreg,f,c
  2245   0023B0  D7FE               	bra	u5327
  2246   0023B2  2F92               	decfsz	??_main& (0+255),f,b
  2247   0023B4  D7FC               	bra	u5327
  2248   0023B6  2F93               	decfsz	(??_main+1)& (0+255),f,b
  2249   0023B8  D7FA               	bra	u5327
  2250   0023BA  D000               	nop2	
  2251   0023BC  6ACD               	clrf	205,c	;volatile
  2252   0023BE  0E82               	movlw	130
  2253   0023C0  0100               	movlb	0	; () banked
  2254   0023C2  6F92               	movwf	??_main& (0+255),b
  2255   0023C4  0EDD               	movlw	221
  2256   0023C6                     u5337:
  2257   0023C6  2EE8               	decfsz	wreg,f,c
  2258   0023C8  D7FE               	bra	u5337
  2259   0023CA  2F92               	decfsz	??_main& (0+255),f,b
  2260   0023CC  D7FC               	bra	u5337
  2261   0023CE  D000               	nop2	
  2262   0023D0  0E00               	movlw	0
  2263   0023D2  6E0A               	movwf	LCD_String_xy@pos^0,c
  2264   0023D4  0E8C               	movlw	low STR_6
  2265   0023D6  6E0B               	movwf	LCD_String_xy@msg^0,c
  2266   0023D8  500B               	movf	LCD_String_xy@msg^0,w,c
  2267   0023DA  A4D8               	btfss	status,2,c
  2268   0023DC  0E20               	movlw	high __smallconst
  2269   0023DE  6E0C               	movwf	(LCD_String_xy@msg+1)^0,c
  2270   0023E0  0E01               	movlw	1
  2271   0023E2  ECBD  F02F         	call	_LCD_String_xy
  2272   0023E6  0E04               	movlw	4
  2273   0023E8  6E0A               	movwf	LCD_String_xy@pos^0,c
  2274   0023EA  0EA9               	movlw	low STR_7
  2275   0023EC  6E0B               	movwf	LCD_String_xy@msg^0,c
  2276   0023EE  500B               	movf	LCD_String_xy@msg^0,w,c
  2277   0023F0  A4D8               	btfss	status,2,c
  2278   0023F2  0E20               	movlw	high __smallconst
  2279   0023F4  6E0C               	movwf	(LCD_String_xy@msg+1)^0,c
  2280   0023F6  0E02               	movlw	2
  2281   0023F8  ECBD  F02F         	call	_LCD_String_xy
  2282   0023FC  EFA0  F012         	goto	l4749
  2283   002400                     l130:
  2284   002400  B2CE               	btfsc	206,1,c	;volatile
  2285   002402  EF05  F012         	goto	u5001
  2286   002406  EF07  F012         	goto	u5000
  2287   00240A                     u5001:
  2288   00240A  EF50  F012         	goto	l4737
  2289   00240E                     u5000:
  2290   00240E  C056  F001         	movff	_count1,___fladd@b
  2291   002412  C057  F002         	movff	_count1+1,___fladd@b+1
  2292   002416  C058  F003         	movff	_count1+2,___fladd@b+2
  2293   00241A  C059  F004         	movff	_count1+3,___fladd@b+3
  2294   00241E  0E00               	movlw	0
  2295   002420  6E05               	movwf	___fladd@a^0,c
  2296   002422  0E00               	movlw	0
  2297   002424  6E06               	movwf	(___fladd@a+1)^0,c
  2298   002426  0E80               	movlw	128
  2299   002428  6E07               	movwf	(___fladd@a+2)^0,c
  2300   00242A  0E3F               	movlw	63
  2301   00242C  6E08               	movwf	(___fladd@a+3)^0,c
  2302   00242E  EC0B  F020         	call	___fladd	;wreg free
  2303   002432  C001  F056         	movff	?___fladd,_count1
  2304   002436  C002  F057         	movff	?___fladd+1,_count1+1
  2305   00243A  C003  F058         	movff	?___fladd+2,_count1+2
  2306   00243E  C004  F059         	movff	?___fladd+3,_count1+3
  2307   002442  0E02               	movlw	2
  2308   002444  0100               	movlb	0	; () banked
  2309   002446  6F93               	movwf	(??_main+1)& (0+255),b
  2310   002448  0E45               	movlw	69
  2311   00244A  6F92               	movwf	??_main& (0+255),b
  2312   00244C  0EA9               	movlw	169
  2313   00244E                     u5347:
  2314   00244E  2EE8               	decfsz	wreg,f,c
  2315   002450  D7FE               	bra	u5347
  2316   002452  2F92               	decfsz	??_main& (0+255),f,b
  2317   002454  D7FC               	bra	u5347
  2318   002456  2F93               	decfsz	(??_main+1)& (0+255),f,b
  2319   002458  D7FA               	bra	u5347
  2320   00245A  D000               	nop2	
  2321   00245C  0EAC               	movlw	low _data
  2322   00245E  0100               	movlb	0	; () banked
  2323   002460  6F8C               	movwf	sprintf@s& (0+255),b
  2324   002462  0EAE               	movlw	low STR_1
  2325   002464  6F8D               	movwf	sprintf@fmt& (0+255),b
  2326   002466  C056  F08E         	movff	_count1,?_sprintf+2
  2327   00246A  C057  F08F         	movff	_count1+1,?_sprintf+3
  2328   00246E  C058  F090         	movff	_count1+2,?_sprintf+4
  2329   002472  C059  F091         	movff	_count1+3,?_sprintf+5
  2330   002476  ECF9  F02F         	call	_sprintf	;wreg free
  2331   00247A  0E00               	movlw	0
  2332   00247C  6E0A               	movwf	LCD_String_xy@pos^0,c
  2333   00247E  0E8C               	movlw	low STR_6
  2334   002480  6E0B               	movwf	LCD_String_xy@msg^0,c
  2335   002482  500B               	movf	LCD_String_xy@msg^0,w,c
  2336   002484  A4D8               	btfss	status,2,c
  2337   002486  0E20               	movlw	high __smallconst
  2338   002488  6E0C               	movwf	(LCD_String_xy@msg+1)^0,c
  2339   00248A  0E01               	movlw	1
  2340   00248C  ECBD  F02F         	call	_LCD_String_xy
  2341   002490  0E04               	movlw	4
  2342   002492  6E0A               	movwf	LCD_String_xy@pos^0,c
  2343   002494  0EAC               	movlw	low _data
  2344   002496  6E0B               	movwf	LCD_String_xy@msg^0,c
  2345   002498  6A0C               	clrf	(LCD_String_xy@msg+1)^0,c
  2346   00249A  0E02               	movlw	2
  2347   00249C  ECBD  F02F         	call	_LCD_String_xy
  2348   0024A0                     l4737:
  2349   0024A0  B0CE               	btfsc	206,0,c	;volatile
  2350   0024A2  EF55  F012         	goto	u5011
  2351   0024A6  EF57  F012         	goto	u5010
  2352   0024AA                     u5011:
  2353   0024AA  EFA0  F012         	goto	l4749
  2354   0024AE                     u5010:
  2355   0024AE  C056  F028         	movff	_count1,___flsub@b
  2356   0024B2  C057  F029         	movff	_count1+1,___flsub@b+1
  2357   0024B6  C058  F02A         	movff	_count1+2,___flsub@b+2
  2358   0024BA  C059  F02B         	movff	_count1+3,___flsub@b+3
  2359   0024BE  0E00               	movlw	0
  2360   0024C0  6E2C               	movwf	___flsub@a^0,c
  2361   0024C2  0E00               	movlw	0
  2362   0024C4  6E2D               	movwf	(___flsub@a+1)^0,c
  2363   0024C6  0E80               	movlw	128
  2364   0024C8  6E2E               	movwf	(___flsub@a+2)^0,c
  2365   0024CA  0E3F               	movlw	63
  2366   0024CC  6E2F               	movwf	(___flsub@a+3)^0,c
  2367   0024CE  EC58  F02F         	call	___flsub	;wreg free
  2368   0024D2  C028  F056         	movff	?___flsub,_count1
  2369   0024D6  C029  F057         	movff	?___flsub+1,_count1+1
  2370   0024DA  C02A  F058         	movff	?___flsub+2,_count1+2
  2371   0024DE  C02B  F059         	movff	?___flsub+3,_count1+3
  2372   0024E2  0E02               	movlw	2
  2373   0024E4  0100               	movlb	0	; () banked
  2374   0024E6  6F93               	movwf	(??_main+1)& (0+255),b
  2375   0024E8  0E45               	movlw	69
  2376   0024EA  6F92               	movwf	??_main& (0+255),b
  2377   0024EC  0EA9               	movlw	169
  2378   0024EE                     u5357:
  2379   0024EE  2EE8               	decfsz	wreg,f,c
  2380   0024F0  D7FE               	bra	u5357
  2381   0024F2  2F92               	decfsz	??_main& (0+255),f,b
  2382   0024F4  D7FC               	bra	u5357
  2383   0024F6  2F93               	decfsz	(??_main+1)& (0+255),f,b
  2384   0024F8  D7FA               	bra	u5357
  2385   0024FA  D000               	nop2	
  2386   0024FC  0EAC               	movlw	low _data
  2387   0024FE  0100               	movlb	0	; () banked
  2388   002500  6F8C               	movwf	sprintf@s& (0+255),b
  2389   002502  0EAE               	movlw	low STR_1
  2390   002504  6F8D               	movwf	sprintf@fmt& (0+255),b
  2391   002506  C056  F08E         	movff	_count1,?_sprintf+2
  2392   00250A  C057  F08F         	movff	_count1+1,?_sprintf+3
  2393   00250E  C058  F090         	movff	_count1+2,?_sprintf+4
  2394   002512  C059  F091         	movff	_count1+3,?_sprintf+5
  2395   002516  ECF9  F02F         	call	_sprintf	;wreg free
  2396   00251A  0E00               	movlw	0
  2397   00251C  6E0A               	movwf	LCD_String_xy@pos^0,c
  2398   00251E  0E8C               	movlw	low STR_6
  2399   002520  6E0B               	movwf	LCD_String_xy@msg^0,c
  2400   002522  500B               	movf	LCD_String_xy@msg^0,w,c
  2401   002524  A4D8               	btfss	status,2,c
  2402   002526  0E20               	movlw	high __smallconst
  2403   002528  6E0C               	movwf	(LCD_String_xy@msg+1)^0,c
  2404   00252A  0E01               	movlw	1
  2405   00252C  ECBD  F02F         	call	_LCD_String_xy
  2406   002530  0E04               	movlw	4
  2407   002532  6E0A               	movwf	LCD_String_xy@pos^0,c
  2408   002534  0EAC               	movlw	low _data
  2409   002536  6E0B               	movwf	LCD_String_xy@msg^0,c
  2410   002538  6A0C               	clrf	(LCD_String_xy@msg+1)^0,c
  2411   00253A  0E02               	movlw	2
  2412   00253C  ECBD  F02F         	call	_LCD_String_xy
  2413   002540                     l4749:
  2414   002540  BCCD               	btfsc	205,6,c	;volatile
  2415   002542  EFA5  F012         	goto	u5021
  2416   002546  EFA7  F012         	goto	u5020
  2417   00254A                     u5021:
  2418   00254A  EF00  F012         	goto	l130
  2419   00254E                     u5020:
  2420   00254E  C05A  F001         	movff	_num,___xxtofl@val
  2421   002552  C05B  F002         	movff	_num+1,___xxtofl@val+1
  2422   002556  0E00               	movlw	0
  2423   002558  BE02               	btfsc	(___xxtofl@val+1)^0,7,c
  2424   00255A  0EFF               	movlw	-1
  2425   00255C  6E03               	movwf	(___xxtofl@val+2)^0,c
  2426   00255E  6E04               	movwf	(___xxtofl@val+3)^0,c
  2427   002560  0E01               	movlw	1
  2428   002562  ECBF  F028         	call	___xxtofl
  2429   002566  C001  F00F         	movff	?___xxtofl,___fleq@ff1
  2430   00256A  C002  F010         	movff	?___xxtofl+1,___fleq@ff1+1
  2431   00256E  C003  F011         	movff	?___xxtofl+2,___fleq@ff1+2
  2432   002572  C004  F012         	movff	?___xxtofl+3,___fleq@ff1+3
  2433   002576  C056  F013         	movff	_count1,___fleq@ff2
  2434   00257A  C057  F014         	movff	_count1+1,___fleq@ff2+1
  2435   00257E  C058  F015         	movff	_count1+2,___fleq@ff2+2
  2436   002582  C059  F016         	movff	_count1+3,___fleq@ff2+3
  2437   002586  EC44  F02D         	call	___fleq	;wreg free
  2438   00258A  A0D8               	btfss	status,0,c
  2439   00258C  EFCA  F012         	goto	u5031
  2440   002590  EFCC  F012         	goto	u5030
  2441   002594                     u5031:
  2442   002594  EFF6  F012         	goto	l4763
  2443   002598                     u5030:
  2444   002598  EC90  F030         	call	_LCD_Clear	;wreg free
  2445   00259C  0E01               	movlw	1
  2446   00259E  245C               	addwf	_count2^0,w,c
  2447   0025A0  6E5C               	movwf	_count2^0,c
  2448   0025A2  0E00               	movlw	0
  2449   0025A4  205D               	addwfc	(_count2+1)^0,w,c
  2450   0025A6  6E5D               	movwf	(_count2+1)^0,c
  2451   0025A8  0E00               	movlw	0
  2452   0025AA  6E0A               	movwf	LCD_String_xy@pos^0,c
  2453   0025AC  0E99               	movlw	low STR_12
  2454   0025AE  6E0B               	movwf	LCD_String_xy@msg^0,c
  2455   0025B0  500B               	movf	LCD_String_xy@msg^0,w,c
  2456   0025B2  A4D8               	btfss	status,2,c
  2457   0025B4  0E20               	movlw	high __smallconst
  2458   0025B6  6E0C               	movwf	(LCD_String_xy@msg+1)^0,c
  2459   0025B8  0E01               	movlw	1
  2460   0025BA  ECBD  F02F         	call	_LCD_String_xy
  2461   0025BE  0E1A               	movlw	26
  2462   0025C0  0100               	movlb	0	; () banked
  2463   0025C2  6F93               	movwf	(??_main+1)& (0+255),b
  2464   0025C4  0E5E               	movlw	94
  2465   0025C6  6F92               	movwf	??_main& (0+255),b
  2466   0025C8  0E6E               	movlw	110
  2467   0025CA                     u5367:
  2468   0025CA  2EE8               	decfsz	wreg,f,c
  2469   0025CC  D7FE               	bra	u5367
  2470   0025CE  2F92               	decfsz	??_main& (0+255),f,b
  2471   0025D0  D7FC               	bra	u5367
  2472   0025D2  2F93               	decfsz	(??_main+1)& (0+255),f,b
  2473   0025D4  D7FA               	bra	u5367
  2474   0025D6  0000               	nop	
  2475   0025D8  0E00               	movlw	0
  2476   0025DA  6E56               	movwf	_count1^0,c
  2477   0025DC  0E00               	movlw	0
  2478   0025DE  6E57               	movwf	(_count1+1)^0,c
  2479   0025E0  0E00               	movlw	0
  2480   0025E2  6E58               	movwf	(_count1+2)^0,c
  2481   0025E4  0E00               	movlw	0
  2482   0025E6  6E59               	movwf	(_count1+3)^0,c
  2483   0025E8  EF18  F013         	goto	l4771
  2484   0025EC                     l4763:
  2485   0025EC  EC90  F030         	call	_LCD_Clear	;wreg free
  2486   0025F0  0E00               	movlw	0
  2487   0025F2  6E0A               	movwf	LCD_String_xy@pos^0,c
  2488   0025F4  0E72               	movlw	low STR_13
  2489   0025F6  6E0B               	movwf	LCD_String_xy@msg^0,c
  2490   0025F8  500B               	movf	LCD_String_xy@msg^0,w,c
  2491   0025FA  A4D8               	btfss	status,2,c
  2492   0025FC  0E20               	movlw	high __smallconst
  2493   0025FE  6E0C               	movwf	(LCD_String_xy@msg+1)^0,c
  2494   002600  0E01               	movlw	1
  2495   002602  ECBD  F02F         	call	_LCD_String_xy
  2496   002606  0E1A               	movlw	26
  2497   002608  0100               	movlb	0	; () banked
  2498   00260A  6F93               	movwf	(??_main+1)& (0+255),b
  2499   00260C  0E5E               	movlw	94
  2500   00260E  6F92               	movwf	??_main& (0+255),b
  2501   002610  0E6E               	movlw	110
  2502   002612                     u5377:
  2503   002612  2EE8               	decfsz	wreg,f,c
  2504   002614  D7FE               	bra	u5377
  2505   002616  2F92               	decfsz	??_main& (0+255),f,b
  2506   002618  D7FC               	bra	u5377
  2507   00261A  2F93               	decfsz	(??_main+1)& (0+255),f,b
  2508   00261C  D7FA               	bra	u5377
  2509   00261E  0000               	nop	
  2510   002620  0E00               	movlw	0
  2511   002622  6E56               	movwf	_count1^0,c
  2512   002624  0E00               	movlw	0
  2513   002626  6E57               	movwf	(_count1+1)^0,c
  2514   002628  0E00               	movlw	0
  2515   00262A  6E58               	movwf	(_count1+2)^0,c
  2516   00262C  0E00               	movlw	0
  2517   00262E  6E59               	movwf	(_count1+3)^0,c
  2518   002630                     l4771:
  2519   002630  EC90  F030         	call	_LCD_Clear	;wreg free
  2520   002634  0E00               	movlw	0
  2521   002636  6E0A               	movwf	LCD_String_xy@pos^0,c
  2522   002638  0E24               	movlw	low STR_14
  2523   00263A  6E0B               	movwf	LCD_String_xy@msg^0,c
  2524   00263C  500B               	movf	LCD_String_xy@msg^0,w,c
  2525   00263E  A4D8               	btfss	status,2,c
  2526   002640  0E20               	movlw	high __smallconst
  2527   002642  6E0C               	movwf	(LCD_String_xy@msg+1)^0,c
  2528   002644  0E01               	movlw	1
  2529   002646  ECBD  F02F         	call	_LCD_String_xy
  2530   00264A  0E06               	movlw	6
  2531   00264C  0100               	movlb	0	; () banked
  2532   00264E  6F93               	movwf	(??_main+1)& (0+255),b
  2533   002650  0E13               	movlw	19
  2534   002652  6F92               	movwf	??_main& (0+255),b
  2535   002654  0EAD               	movlw	173
  2536   002656                     u5387:
  2537   002656  2EE8               	decfsz	wreg,f,c
  2538   002658  D7FE               	bra	u5387
  2539   00265A  2F92               	decfsz	??_main& (0+255),f,b
  2540   00265C  D7FC               	bra	u5387
  2541   00265E  2F93               	decfsz	(??_main+1)& (0+255),f,b
  2542   002660  D7FA               	bra	u5387
  2543   002662  D000               	nop2	
  2544   002664  0E00               	movlw	0
  2545   002666  6E0A               	movwf	LCD_String_xy@pos^0,c
  2546   002668  0E35               	movlw	low STR_15
  2547   00266A  6E0B               	movwf	LCD_String_xy@msg^0,c
  2548   00266C  500B               	movf	LCD_String_xy@msg^0,w,c
  2549   00266E  A4D8               	btfss	status,2,c
  2550   002670  0E20               	movlw	high __smallconst
  2551   002672  6E0C               	movwf	(LCD_String_xy@msg+1)^0,c
  2552   002674  0E01               	movlw	1
  2553   002676  ECBD  F02F         	call	_LCD_String_xy
  2554   00267A  0E06               	movlw	6
  2555   00267C  0100               	movlb	0	; () banked
  2556   00267E  6F93               	movwf	(??_main+1)& (0+255),b
  2557   002680  0E13               	movlw	19
  2558   002682  6F92               	movwf	??_main& (0+255),b
  2559   002684  0EAD               	movlw	173
  2560   002686                     u5397:
  2561   002686  2EE8               	decfsz	wreg,f,c
  2562   002688  D7FE               	bra	u5397
  2563   00268A  2F92               	decfsz	??_main& (0+255),f,b
  2564   00268C  D7FC               	bra	u5397
  2565   00268E  2F93               	decfsz	(??_main+1)& (0+255),f,b
  2566   002690  D7FA               	bra	u5397
  2567   002692  D000               	nop2	
  2568   002694  0E00               	movlw	0
  2569   002696  6E0A               	movwf	LCD_String_xy@pos^0,c
  2570   002698  0E13               	movlw	low STR_16
  2571   00269A  6E0B               	movwf	LCD_String_xy@msg^0,c
  2572   00269C  500B               	movf	LCD_String_xy@msg^0,w,c
  2573   00269E  A4D8               	btfss	status,2,c
  2574   0026A0  0E20               	movlw	high __smallconst
  2575   0026A2  6E0C               	movwf	(LCD_String_xy@msg+1)^0,c
  2576   0026A4  0E01               	movlw	1
  2577   0026A6  ECBD  F02F         	call	_LCD_String_xy
  2578   0026AA  0E06               	movlw	6
  2579   0026AC  0100               	movlb	0	; () banked
  2580   0026AE  6F93               	movwf	(??_main+1)& (0+255),b
  2581   0026B0  0E13               	movlw	19
  2582   0026B2  6F92               	movwf	??_main& (0+255),b
  2583   0026B4  0EAD               	movlw	173
  2584   0026B6                     u5407:
  2585   0026B6  2EE8               	decfsz	wreg,f,c
  2586   0026B8  D7FE               	bra	u5407
  2587   0026BA  2F92               	decfsz	??_main& (0+255),f,b
  2588   0026BC  D7FC               	bra	u5407
  2589   0026BE  2F93               	decfsz	(??_main+1)& (0+255),f,b
  2590   0026C0  D7FA               	bra	u5407
  2591   0026C2  D000               	nop2	
  2592   0026C4  EC90  F030         	call	_LCD_Clear	;wreg free
  2593   0026C8  EC1B  F02E         	call	_rand	;wreg free
  2594   0026CC  0E0F               	movlw	15
  2595   0026CE  140D               	andwf	?_rand^0,w,c
  2596   0026D0  6E5A               	movwf	_num^0,c
  2597   0026D2  6A5B               	clrf	(_num+1)^0,c
  2598   0026D4  0060  F16B  FFCD   	movff	_num,16333	;volatile
  2599   0026DA  0E02               	movlw	2
  2600   0026DC  0100               	movlb	0	; () banked
  2601   0026DE  6F93               	movwf	(??_main+1)& (0+255),b
  2602   0026E0  0E45               	movlw	69
  2603   0026E2  6F92               	movwf	??_main& (0+255),b
  2604   0026E4  0EA9               	movlw	169
  2605   0026E6                     u5417:
  2606   0026E6  2EE8               	decfsz	wreg,f,c
  2607   0026E8  D7FE               	bra	u5417
  2608   0026EA  2F92               	decfsz	??_main& (0+255),f,b
  2609   0026EC  D7FC               	bra	u5417
  2610   0026EE  2F93               	decfsz	(??_main+1)& (0+255),f,b
  2611   0026F0  D7FA               	bra	u5417
  2612   0026F2  D000               	nop2	
  2613   0026F4  6ACD               	clrf	205,c	;volatile
  2614   0026F6  0E82               	movlw	130
  2615   0026F8  0100               	movlb	0	; () banked
  2616   0026FA  6F92               	movwf	??_main& (0+255),b
  2617   0026FC  0EDD               	movlw	221
  2618   0026FE                     u5427:
  2619   0026FE  2EE8               	decfsz	wreg,f,c
  2620   002700  D7FE               	bra	u5427
  2621   002702  2F92               	decfsz	??_main& (0+255),f,b
  2622   002704  D7FC               	bra	u5427
  2623   002706  D000               	nop2	
  2624   002708  0E00               	movlw	0
  2625   00270A  6E0A               	movwf	LCD_String_xy@pos^0,c
  2626   00270C  0E8C               	movlw	low STR_6
  2627   00270E  6E0B               	movwf	LCD_String_xy@msg^0,c
  2628   002710  500B               	movf	LCD_String_xy@msg^0,w,c
  2629   002712  A4D8               	btfss	status,2,c
  2630   002714  0E20               	movlw	high __smallconst
  2631   002716  6E0C               	movwf	(LCD_String_xy@msg+1)^0,c
  2632   002718  0E01               	movlw	1
  2633   00271A  ECBD  F02F         	call	_LCD_String_xy
  2634   00271E  0E04               	movlw	4
  2635   002720  6E0A               	movwf	LCD_String_xy@pos^0,c
  2636   002722  0EA9               	movlw	low STR_7
  2637   002724  6E0B               	movwf	LCD_String_xy@msg^0,c
  2638   002726  500B               	movf	LCD_String_xy@msg^0,w,c
  2639   002728  A4D8               	btfss	status,2,c
  2640   00272A  0E20               	movlw	high __smallconst
  2641   00272C  6E0C               	movwf	(LCD_String_xy@msg+1)^0,c
  2642   00272E  0E02               	movlw	2
  2643   002730  ECBD  F02F         	call	_LCD_String_xy
  2644   002734  EF32  F014         	goto	l4823
  2645   002738                     l137:
  2646   002738  B2CE               	btfsc	206,1,c	;volatile
  2647   00273A  EFA1  F013         	goto	u5041
  2648   00273E  EFA3  F013         	goto	u5040
  2649   002742                     u5041:
  2650   002742  EFE7  F013         	goto	l4811
  2651   002746                     u5040:
  2652   002746  C056  F001         	movff	_count1,___fladd@b
  2653   00274A  C057  F002         	movff	_count1+1,___fladd@b+1
  2654   00274E  C058  F003         	movff	_count1+2,___fladd@b+2
  2655   002752  C059  F004         	movff	_count1+3,___fladd@b+3
  2656   002756  0E00               	movlw	0
  2657   002758  6E05               	movwf	___fladd@a^0,c
  2658   00275A  0E00               	movlw	0
  2659   00275C  6E06               	movwf	(___fladd@a+1)^0,c
  2660   00275E  0E80               	movlw	128
  2661   002760  6E07               	movwf	(___fladd@a+2)^0,c
  2662   002762  0E3F               	movlw	63
  2663   002764  6E08               	movwf	(___fladd@a+3)^0,c
  2664   002766  EC0B  F020         	call	___fladd	;wreg free
  2665   00276A  C001  F056         	movff	?___fladd,_count1
  2666   00276E  C002  F057         	movff	?___fladd+1,_count1+1
  2667   002772  C003  F058         	movff	?___fladd+2,_count1+2
  2668   002776  C004  F059         	movff	?___fladd+3,_count1+3
  2669   00277A  0EC3               	movlw	195
  2670   00277C  0100               	movlb	0	; () banked
  2671   00277E  6F92               	movwf	??_main& (0+255),b
  2672   002780  0ECD               	movlw	205
  2673   002782                     u5437:
  2674   002782  2EE8               	decfsz	wreg,f,c
  2675   002784  D7FE               	bra	u5437
  2676   002786  2F92               	decfsz	??_main& (0+255),f,b
  2677   002788  D7FC               	bra	u5437
  2678   00278A  0EAC               	movlw	low _data
  2679   00278C  0100               	movlb	0	; () banked
  2680   00278E  6F8C               	movwf	sprintf@s& (0+255),b
  2681   002790  0EAE               	movlw	low STR_1
  2682   002792  6F8D               	movwf	sprintf@fmt& (0+255),b
  2683   002794  C056  F08E         	movff	_count1,?_sprintf+2
  2684   002798  C057  F08F         	movff	_count1+1,?_sprintf+3
  2685   00279C  C058  F090         	movff	_count1+2,?_sprintf+4
  2686   0027A0  C059  F091         	movff	_count1+3,?_sprintf+5
  2687   0027A4  ECF9  F02F         	call	_sprintf	;wreg free
  2688   0027A8  0E00               	movlw	0
  2689   0027AA  6E0A               	movwf	LCD_String_xy@pos^0,c
  2690   0027AC  0E8C               	movlw	low STR_6
  2691   0027AE  6E0B               	movwf	LCD_String_xy@msg^0,c
  2692   0027B0  500B               	movf	LCD_String_xy@msg^0,w,c
  2693   0027B2  A4D8               	btfss	status,2,c
  2694   0027B4  0E20               	movlw	high __smallconst
  2695   0027B6  6E0C               	movwf	(LCD_String_xy@msg+1)^0,c
  2696   0027B8  0E01               	movlw	1
  2697   0027BA  ECBD  F02F         	call	_LCD_String_xy
  2698   0027BE  0E04               	movlw	4
  2699   0027C0  6E0A               	movwf	LCD_String_xy@pos^0,c
  2700   0027C2  0EAC               	movlw	low _data
  2701   0027C4  6E0B               	movwf	LCD_String_xy@msg^0,c
  2702   0027C6  6A0C               	clrf	(LCD_String_xy@msg+1)^0,c
  2703   0027C8  0E02               	movlw	2
  2704   0027CA  ECBD  F02F         	call	_LCD_String_xy
  2705   0027CE                     l4811:
  2706   0027CE  B0CE               	btfsc	206,0,c	;volatile
  2707   0027D0  EFEC  F013         	goto	u5051
  2708   0027D4  EFEE  F013         	goto	u5050
  2709   0027D8                     u5051:
  2710   0027D8  EF32  F014         	goto	l4823
  2711   0027DC                     u5050:
  2712   0027DC  C056  F028         	movff	_count1,___flsub@b
  2713   0027E0  C057  F029         	movff	_count1+1,___flsub@b+1
  2714   0027E4  C058  F02A         	movff	_count1+2,___flsub@b+2
  2715   0027E8  C059  F02B         	movff	_count1+3,___flsub@b+3
  2716   0027EC  0E00               	movlw	0
  2717   0027EE  6E2C               	movwf	___flsub@a^0,c
  2718   0027F0  0E00               	movlw	0
  2719   0027F2  6E2D               	movwf	(___flsub@a+1)^0,c
  2720   0027F4  0E80               	movlw	128
  2721   0027F6  6E2E               	movwf	(___flsub@a+2)^0,c
  2722   0027F8  0E3F               	movlw	63
  2723   0027FA  6E2F               	movwf	(___flsub@a+3)^0,c
  2724   0027FC  EC58  F02F         	call	___flsub	;wreg free
  2725   002800  C028  F056         	movff	?___flsub,_count1
  2726   002804  C029  F057         	movff	?___flsub+1,_count1+1
  2727   002808  C02A  F058         	movff	?___flsub+2,_count1+2
  2728   00280C  C02B  F059         	movff	?___flsub+3,_count1+3
  2729   002810  0EC3               	movlw	195
  2730   002812  0100               	movlb	0	; () banked
  2731   002814  6F92               	movwf	??_main& (0+255),b
  2732   002816  0ECD               	movlw	205
  2733   002818                     u5447:
  2734   002818  2EE8               	decfsz	wreg,f,c
  2735   00281A  D7FE               	bra	u5447
  2736   00281C  2F92               	decfsz	??_main& (0+255),f,b
  2737   00281E  D7FC               	bra	u5447
  2738   002820  0EAC               	movlw	low _data
  2739   002822  0100               	movlb	0	; () banked
  2740   002824  6F8C               	movwf	sprintf@s& (0+255),b
  2741   002826  0EAE               	movlw	low STR_1
  2742   002828  6F8D               	movwf	sprintf@fmt& (0+255),b
  2743   00282A  C056  F08E         	movff	_count1,?_sprintf+2
  2744   00282E  C057  F08F         	movff	_count1+1,?_sprintf+3
  2745   002832  C058  F090         	movff	_count1+2,?_sprintf+4
  2746   002836  C059  F091         	movff	_count1+3,?_sprintf+5
  2747   00283A  ECF9  F02F         	call	_sprintf	;wreg free
  2748   00283E  0E00               	movlw	0
  2749   002840  6E0A               	movwf	LCD_String_xy@pos^0,c
  2750   002842  0E8C               	movlw	low STR_6
  2751   002844  6E0B               	movwf	LCD_String_xy@msg^0,c
  2752   002846  500B               	movf	LCD_String_xy@msg^0,w,c
  2753   002848  A4D8               	btfss	status,2,c
  2754   00284A  0E20               	movlw	high __smallconst
  2755   00284C  6E0C               	movwf	(LCD_String_xy@msg+1)^0,c
  2756   00284E  0E01               	movlw	1
  2757   002850  ECBD  F02F         	call	_LCD_String_xy
  2758   002854  0E04               	movlw	4
  2759   002856  6E0A               	movwf	LCD_String_xy@pos^0,c
  2760   002858  0EAC               	movlw	low _data
  2761   00285A  6E0B               	movwf	LCD_String_xy@msg^0,c
  2762   00285C  6A0C               	clrf	(LCD_String_xy@msg+1)^0,c
  2763   00285E  0E02               	movlw	2
  2764   002860  ECBD  F02F         	call	_LCD_String_xy
  2765   002864                     l4823:
  2766   002864  BCCD               	btfsc	205,6,c	;volatile
  2767   002866  EF37  F014         	goto	u5061
  2768   00286A  EF39  F014         	goto	u5060
  2769   00286E                     u5061:
  2770   00286E  EF9C  F013         	goto	l137
  2771   002872                     u5060:
  2772   002872  C05A  F001         	movff	_num,___xxtofl@val
  2773   002876  C05B  F002         	movff	_num+1,___xxtofl@val+1
  2774   00287A  0E00               	movlw	0
  2775   00287C  BE02               	btfsc	(___xxtofl@val+1)^0,7,c
  2776   00287E  0EFF               	movlw	-1
  2777   002880  6E03               	movwf	(___xxtofl@val+2)^0,c
  2778   002882  6E04               	movwf	(___xxtofl@val+3)^0,c
  2779   002884  0E01               	movlw	1
  2780   002886  ECBF  F028         	call	___xxtofl
  2781   00288A  C001  F00F         	movff	?___xxtofl,___fleq@ff1
  2782   00288E  C002  F010         	movff	?___xxtofl+1,___fleq@ff1+1
  2783   002892  C003  F011         	movff	?___xxtofl+2,___fleq@ff1+2
  2784   002896  C004  F012         	movff	?___xxtofl+3,___fleq@ff1+3
  2785   00289A  C056  F013         	movff	_count1,___fleq@ff2
  2786   00289E  C057  F014         	movff	_count1+1,___fleq@ff2+1
  2787   0028A2  C058  F015         	movff	_count1+2,___fleq@ff2+2
  2788   0028A6  C059  F016         	movff	_count1+3,___fleq@ff2+3
  2789   0028AA  EC44  F02D         	call	___fleq	;wreg free
  2790   0028AE  A0D8               	btfss	status,0,c
  2791   0028B0  EF5C  F014         	goto	u5071
  2792   0028B4  EF5E  F014         	goto	u5070
  2793   0028B8                     u5071:
  2794   0028B8  EF88  F014         	goto	l4837
  2795   0028BC                     u5070:
  2796   0028BC  EC90  F030         	call	_LCD_Clear	;wreg free
  2797   0028C0  0E01               	movlw	1
  2798   0028C2  245C               	addwf	_count2^0,w,c
  2799   0028C4  6E5C               	movwf	_count2^0,c
  2800   0028C6  0E00               	movlw	0
  2801   0028C8  205D               	addwfc	(_count2+1)^0,w,c
  2802   0028CA  6E5D               	movwf	(_count2+1)^0,c
  2803   0028CC  0E00               	movlw	0
  2804   0028CE  6E0A               	movwf	LCD_String_xy@pos^0,c
  2805   0028D0  0E99               	movlw	low STR_12
  2806   0028D2  6E0B               	movwf	LCD_String_xy@msg^0,c
  2807   0028D4  500B               	movf	LCD_String_xy@msg^0,w,c
  2808   0028D6  A4D8               	btfss	status,2,c
  2809   0028D8  0E20               	movlw	high __smallconst
  2810   0028DA  6E0C               	movwf	(LCD_String_xy@msg+1)^0,c
  2811   0028DC  0E01               	movlw	1
  2812   0028DE  ECBD  F02F         	call	_LCD_String_xy
  2813   0028E2  0E1A               	movlw	26
  2814   0028E4  0100               	movlb	0	; () banked
  2815   0028E6  6F93               	movwf	(??_main+1)& (0+255),b
  2816   0028E8  0E5E               	movlw	94
  2817   0028EA  6F92               	movwf	??_main& (0+255),b
  2818   0028EC  0E6E               	movlw	110
  2819   0028EE                     u5457:
  2820   0028EE  2EE8               	decfsz	wreg,f,c
  2821   0028F0  D7FE               	bra	u5457
  2822   0028F2  2F92               	decfsz	??_main& (0+255),f,b
  2823   0028F4  D7FC               	bra	u5457
  2824   0028F6  2F93               	decfsz	(??_main+1)& (0+255),f,b
  2825   0028F8  D7FA               	bra	u5457
  2826   0028FA  0000               	nop	
  2827   0028FC  0E00               	movlw	0
  2828   0028FE  6E56               	movwf	_count1^0,c
  2829   002900  0E00               	movlw	0
  2830   002902  6E57               	movwf	(_count1+1)^0,c
  2831   002904  0E00               	movlw	0
  2832   002906  6E58               	movwf	(_count1+2)^0,c
  2833   002908  0E00               	movlw	0
  2834   00290A  6E59               	movwf	(_count1+3)^0,c
  2835   00290C  EFAA  F014         	goto	l4845
  2836   002910                     l4837:
  2837   002910  EC90  F030         	call	_LCD_Clear	;wreg free
  2838   002914  0E00               	movlw	0
  2839   002916  6E0A               	movwf	LCD_String_xy@pos^0,c
  2840   002918  0E72               	movlw	low STR_13
  2841   00291A  6E0B               	movwf	LCD_String_xy@msg^0,c
  2842   00291C  500B               	movf	LCD_String_xy@msg^0,w,c
  2843   00291E  A4D8               	btfss	status,2,c
  2844   002920  0E20               	movlw	high __smallconst
  2845   002922  6E0C               	movwf	(LCD_String_xy@msg+1)^0,c
  2846   002924  0E01               	movlw	1
  2847   002926  ECBD  F02F         	call	_LCD_String_xy
  2848   00292A  0E1A               	movlw	26
  2849   00292C  0100               	movlb	0	; () banked
  2850   00292E  6F93               	movwf	(??_main+1)& (0+255),b
  2851   002930  0E5E               	movlw	94
  2852   002932  6F92               	movwf	??_main& (0+255),b
  2853   002934  0E6E               	movlw	110
  2854   002936                     u5467:
  2855   002936  2EE8               	decfsz	wreg,f,c
  2856   002938  D7FE               	bra	u5467
  2857   00293A  2F92               	decfsz	??_main& (0+255),f,b
  2858   00293C  D7FC               	bra	u5467
  2859   00293E  2F93               	decfsz	(??_main+1)& (0+255),f,b
  2860   002940  D7FA               	bra	u5467
  2861   002942  0000               	nop	
  2862   002944  0E00               	movlw	0
  2863   002946  6E56               	movwf	_count1^0,c
  2864   002948  0E00               	movlw	0
  2865   00294A  6E57               	movwf	(_count1+1)^0,c
  2866   00294C  0E00               	movlw	0
  2867   00294E  6E58               	movwf	(_count1+2)^0,c
  2868   002950  0E00               	movlw	0
  2869   002952  6E59               	movwf	(_count1+3)^0,c
  2870   002954                     l4845:
  2871   002954  EC90  F030         	call	_LCD_Clear	;wreg free
  2872   002958  0E00               	movlw	0
  2873   00295A  6E0A               	movwf	LCD_String_xy@pos^0,c
  2874   00295C  0E24               	movlw	low STR_14
  2875   00295E  6E0B               	movwf	LCD_String_xy@msg^0,c
  2876   002960  500B               	movf	LCD_String_xy@msg^0,w,c
  2877   002962  A4D8               	btfss	status,2,c
  2878   002964  0E20               	movlw	high __smallconst
  2879   002966  6E0C               	movwf	(LCD_String_xy@msg+1)^0,c
  2880   002968  0E01               	movlw	1
  2881   00296A  ECBD  F02F         	call	_LCD_String_xy
  2882   00296E  0E06               	movlw	6
  2883   002970  0100               	movlb	0	; () banked
  2884   002972  6F93               	movwf	(??_main+1)& (0+255),b
  2885   002974  0E13               	movlw	19
  2886   002976  6F92               	movwf	??_main& (0+255),b
  2887   002978  0EAD               	movlw	173
  2888   00297A                     u5477:
  2889   00297A  2EE8               	decfsz	wreg,f,c
  2890   00297C  D7FE               	bra	u5477
  2891   00297E  2F92               	decfsz	??_main& (0+255),f,b
  2892   002980  D7FC               	bra	u5477
  2893   002982  2F93               	decfsz	(??_main+1)& (0+255),f,b
  2894   002984  D7FA               	bra	u5477
  2895   002986  D000               	nop2	
  2896   002988  0E00               	movlw	0
  2897   00298A  6E0A               	movwf	LCD_String_xy@pos^0,c
  2898   00298C  0E35               	movlw	low STR_15
  2899   00298E  6E0B               	movwf	LCD_String_xy@msg^0,c
  2900   002990  500B               	movf	LCD_String_xy@msg^0,w,c
  2901   002992  A4D8               	btfss	status,2,c
  2902   002994  0E20               	movlw	high __smallconst
  2903   002996  6E0C               	movwf	(LCD_String_xy@msg+1)^0,c
  2904   002998  0E01               	movlw	1
  2905   00299A  ECBD  F02F         	call	_LCD_String_xy
  2906   00299E  0E06               	movlw	6
  2907   0029A0  0100               	movlb	0	; () banked
  2908   0029A2  6F93               	movwf	(??_main+1)& (0+255),b
  2909   0029A4  0E13               	movlw	19
  2910   0029A6  6F92               	movwf	??_main& (0+255),b
  2911   0029A8  0EAD               	movlw	173
  2912   0029AA                     u5487:
  2913   0029AA  2EE8               	decfsz	wreg,f,c
  2914   0029AC  D7FE               	bra	u5487
  2915   0029AE  2F92               	decfsz	??_main& (0+255),f,b
  2916   0029B0  D7FC               	bra	u5487
  2917   0029B2  2F93               	decfsz	(??_main+1)& (0+255),f,b
  2918   0029B4  D7FA               	bra	u5487
  2919   0029B6  D000               	nop2	
  2920   0029B8  0E00               	movlw	0
  2921   0029BA  6E0A               	movwf	LCD_String_xy@pos^0,c
  2922   0029BC  0E13               	movlw	low STR_16
  2923   0029BE  6E0B               	movwf	LCD_String_xy@msg^0,c
  2924   0029C0  500B               	movf	LCD_String_xy@msg^0,w,c
  2925   0029C2  A4D8               	btfss	status,2,c
  2926   0029C4  0E20               	movlw	high __smallconst
  2927   0029C6  6E0C               	movwf	(LCD_String_xy@msg+1)^0,c
  2928   0029C8  0E01               	movlw	1
  2929   0029CA  ECBD  F02F         	call	_LCD_String_xy
  2930   0029CE  0E06               	movlw	6
  2931   0029D0  0100               	movlb	0	; () banked
  2932   0029D2  6F93               	movwf	(??_main+1)& (0+255),b
  2933   0029D4  0E13               	movlw	19
  2934   0029D6  6F92               	movwf	??_main& (0+255),b
  2935   0029D8  0EAD               	movlw	173
  2936   0029DA                     u5497:
  2937   0029DA  2EE8               	decfsz	wreg,f,c
  2938   0029DC  D7FE               	bra	u5497
  2939   0029DE  2F92               	decfsz	??_main& (0+255),f,b
  2940   0029E0  D7FC               	bra	u5497
  2941   0029E2  2F93               	decfsz	(??_main+1)& (0+255),f,b
  2942   0029E4  D7FA               	bra	u5497
  2943   0029E6  D000               	nop2	
  2944   0029E8  EC90  F030         	call	_LCD_Clear	;wreg free
  2945   0029EC  EC1B  F02E         	call	_rand	;wreg free
  2946   0029F0  0E0F               	movlw	15
  2947   0029F2  140D               	andwf	?_rand^0,w,c
  2948   0029F4  6E5A               	movwf	_num^0,c
  2949   0029F6  6A5B               	clrf	(_num+1)^0,c
  2950   0029F8  0060  F16B  FFCD   	movff	_num,16333	;volatile
  2951   0029FE  0E02               	movlw	2
  2952   002A00  0100               	movlb	0	; () banked
  2953   002A02  6F93               	movwf	(??_main+1)& (0+255),b
  2954   002A04  0E45               	movlw	69
  2955   002A06  6F92               	movwf	??_main& (0+255),b
  2956   002A08  0EA9               	movlw	169
  2957   002A0A                     u5507:
  2958   002A0A  2EE8               	decfsz	wreg,f,c
  2959   002A0C  D7FE               	bra	u5507
  2960   002A0E  2F92               	decfsz	??_main& (0+255),f,b
  2961   002A10  D7FC               	bra	u5507
  2962   002A12  2F93               	decfsz	(??_main+1)& (0+255),f,b
  2963   002A14  D7FA               	bra	u5507
  2964   002A16  D000               	nop2	
  2965   002A18  6ACD               	clrf	205,c	;volatile
  2966   002A1A  0E82               	movlw	130
  2967   002A1C  0100               	movlb	0	; () banked
  2968   002A1E  6F92               	movwf	??_main& (0+255),b
  2969   002A20  0EDD               	movlw	221
  2970   002A22                     u5517:
  2971   002A22  2EE8               	decfsz	wreg,f,c
  2972   002A24  D7FE               	bra	u5517
  2973   002A26  2F92               	decfsz	??_main& (0+255),f,b
  2974   002A28  D7FC               	bra	u5517
  2975   002A2A  D000               	nop2	
  2976   002A2C  0E00               	movlw	0
  2977   002A2E  6E0A               	movwf	LCD_String_xy@pos^0,c
  2978   002A30  0E8C               	movlw	low STR_6
  2979   002A32  6E0B               	movwf	LCD_String_xy@msg^0,c
  2980   002A34  500B               	movf	LCD_String_xy@msg^0,w,c
  2981   002A36  A4D8               	btfss	status,2,c
  2982   002A38  0E20               	movlw	high __smallconst
  2983   002A3A  6E0C               	movwf	(LCD_String_xy@msg+1)^0,c
  2984   002A3C  0E01               	movlw	1
  2985   002A3E  ECBD  F02F         	call	_LCD_String_xy
  2986   002A42  0E04               	movlw	4
  2987   002A44  6E0A               	movwf	LCD_String_xy@pos^0,c
  2988   002A46  0EA9               	movlw	low STR_7
  2989   002A48  6E0B               	movwf	LCD_String_xy@msg^0,c
  2990   002A4A  500B               	movf	LCD_String_xy@msg^0,w,c
  2991   002A4C  A4D8               	btfss	status,2,c
  2992   002A4E  0E20               	movlw	high __smallconst
  2993   002A50  6E0C               	movwf	(LCD_String_xy@msg+1)^0,c
  2994   002A52  0E02               	movlw	2
  2995   002A54  ECBD  F02F         	call	_LCD_String_xy
  2996   002A58  EFC6  F015         	goto	l4897
  2997   002A5C                     l144:
  2998   002A5C  B2CE               	btfsc	206,1,c	;volatile
  2999   002A5E  EF33  F015         	goto	u5081
  3000   002A62  EF35  F015         	goto	u5080
  3001   002A66                     u5081:
  3002   002A66  EF7A  F015         	goto	l4885
  3003   002A6A                     u5080:
  3004   002A6A  C056  F001         	movff	_count1,___fladd@b
  3005   002A6E  C057  F002         	movff	_count1+1,___fladd@b+1
  3006   002A72  C058  F003         	movff	_count1+2,___fladd@b+2
  3007   002A76  C059  F004         	movff	_count1+3,___fladd@b+3
  3008   002A7A  0E00               	movlw	0
  3009   002A7C  6E05               	movwf	___fladd@a^0,c
  3010   002A7E  0E00               	movlw	0
  3011   002A80  6E06               	movwf	(___fladd@a+1)^0,c
  3012   002A82  0E80               	movlw	128
  3013   002A84  6E07               	movwf	(___fladd@a+2)^0,c
  3014   002A86  0E3F               	movlw	63
  3015   002A88  6E08               	movwf	(___fladd@a+3)^0,c
  3016   002A8A  EC0B  F020         	call	___fladd	;wreg free
  3017   002A8E  C001  F056         	movff	?___fladd,_count1
  3018   002A92  C002  F057         	movff	?___fladd+1,_count1+1
  3019   002A96  C003  F058         	movff	?___fladd+2,_count1+2
  3020   002A9A  C004  F059         	movff	?___fladd+3,_count1+3
  3021   002A9E  0E41               	movlw	65
  3022   002AA0  0100               	movlb	0	; () banked
  3023   002AA2  6F92               	movwf	??_main& (0+255),b
  3024   002AA4  0EEE               	movlw	238
  3025   002AA6                     u5527:
  3026   002AA6  2EE8               	decfsz	wreg,f,c
  3027   002AA8  D7FE               	bra	u5527
  3028   002AAA  2F92               	decfsz	??_main& (0+255),f,b
  3029   002AAC  D7FC               	bra	u5527
  3030   002AAE  0000               	nop	
  3031   002AB0  0EAC               	movlw	low _data
  3032   002AB2  0100               	movlb	0	; () banked
  3033   002AB4  6F8C               	movwf	sprintf@s& (0+255),b
  3034   002AB6  0EAE               	movlw	low STR_1
  3035   002AB8  6F8D               	movwf	sprintf@fmt& (0+255),b
  3036   002ABA  C056  F08E         	movff	_count1,?_sprintf+2
  3037   002ABE  C057  F08F         	movff	_count1+1,?_sprintf+3
  3038   002AC2  C058  F090         	movff	_count1+2,?_sprintf+4
  3039   002AC6  C059  F091         	movff	_count1+3,?_sprintf+5
  3040   002ACA  ECF9  F02F         	call	_sprintf	;wreg free
  3041   002ACE  0E00               	movlw	0
  3042   002AD0  6E0A               	movwf	LCD_String_xy@pos^0,c
  3043   002AD2  0E8C               	movlw	low STR_6
  3044   002AD4  6E0B               	movwf	LCD_String_xy@msg^0,c
  3045   002AD6  500B               	movf	LCD_String_xy@msg^0,w,c
  3046   002AD8  A4D8               	btfss	status,2,c
  3047   002ADA  0E20               	movlw	high __smallconst
  3048   002ADC  6E0C               	movwf	(LCD_String_xy@msg+1)^0,c
  3049   002ADE  0E01               	movlw	1
  3050   002AE0  ECBD  F02F         	call	_LCD_String_xy
  3051   002AE4  0E04               	movlw	4
  3052   002AE6  6E0A               	movwf	LCD_String_xy@pos^0,c
  3053   002AE8  0EAC               	movlw	low _data
  3054   002AEA  6E0B               	movwf	LCD_String_xy@msg^0,c
  3055   002AEC  6A0C               	clrf	(LCD_String_xy@msg+1)^0,c
  3056   002AEE  0E02               	movlw	2
  3057   002AF0  ECBD  F02F         	call	_LCD_String_xy
  3058   002AF4                     l4885:
  3059   002AF4  B0CE               	btfsc	206,0,c	;volatile
  3060   002AF6  EF7F  F015         	goto	u5091
  3061   002AFA  EF81  F015         	goto	u5090
  3062   002AFE                     u5091:
  3063   002AFE  EFC6  F015         	goto	l4897
  3064   002B02                     u5090:
  3065   002B02  C056  F028         	movff	_count1,___flsub@b
  3066   002B06  C057  F029         	movff	_count1+1,___flsub@b+1
  3067   002B0A  C058  F02A         	movff	_count1+2,___flsub@b+2
  3068   002B0E  C059  F02B         	movff	_count1+3,___flsub@b+3
  3069   002B12  0E00               	movlw	0
  3070   002B14  6E2C               	movwf	___flsub@a^0,c
  3071   002B16  0E00               	movlw	0
  3072   002B18  6E2D               	movwf	(___flsub@a+1)^0,c
  3073   002B1A  0E80               	movlw	128
  3074   002B1C  6E2E               	movwf	(___flsub@a+2)^0,c
  3075   002B1E  0E3F               	movlw	63
  3076   002B20  6E2F               	movwf	(___flsub@a+3)^0,c
  3077   002B22  EC58  F02F         	call	___flsub	;wreg free
  3078   002B26  C028  F056         	movff	?___flsub,_count1
  3079   002B2A  C029  F057         	movff	?___flsub+1,_count1+1
  3080   002B2E  C02A  F058         	movff	?___flsub+2,_count1+2
  3081   002B32  C02B  F059         	movff	?___flsub+3,_count1+3
  3082   002B36  0E41               	movlw	65
  3083   002B38  0100               	movlb	0	; () banked
  3084   002B3A  6F92               	movwf	??_main& (0+255),b
  3085   002B3C  0EEE               	movlw	238
  3086   002B3E                     u5537:
  3087   002B3E  2EE8               	decfsz	wreg,f,c
  3088   002B40  D7FE               	bra	u5537
  3089   002B42  2F92               	decfsz	??_main& (0+255),f,b
  3090   002B44  D7FC               	bra	u5537
  3091   002B46  0000               	nop	
  3092   002B48  0EAC               	movlw	low _data
  3093   002B4A  0100               	movlb	0	; () banked
  3094   002B4C  6F8C               	movwf	sprintf@s& (0+255),b
  3095   002B4E  0EAE               	movlw	low STR_1
  3096   002B50  6F8D               	movwf	sprintf@fmt& (0+255),b
  3097   002B52  C056  F08E         	movff	_count1,?_sprintf+2
  3098   002B56  C057  F08F         	movff	_count1+1,?_sprintf+3
  3099   002B5A  C058  F090         	movff	_count1+2,?_sprintf+4
  3100   002B5E  C059  F091         	movff	_count1+3,?_sprintf+5
  3101   002B62  ECF9  F02F         	call	_sprintf	;wreg free
  3102   002B66  0E00               	movlw	0
  3103   002B68  6E0A               	movwf	LCD_String_xy@pos^0,c
  3104   002B6A  0E8C               	movlw	low STR_6
  3105   002B6C  6E0B               	movwf	LCD_String_xy@msg^0,c
  3106   002B6E  500B               	movf	LCD_String_xy@msg^0,w,c
  3107   002B70  A4D8               	btfss	status,2,c
  3108   002B72  0E20               	movlw	high __smallconst
  3109   002B74  6E0C               	movwf	(LCD_String_xy@msg+1)^0,c
  3110   002B76  0E01               	movlw	1
  3111   002B78  ECBD  F02F         	call	_LCD_String_xy
  3112   002B7C  0E04               	movlw	4
  3113   002B7E  6E0A               	movwf	LCD_String_xy@pos^0,c
  3114   002B80  0EAC               	movlw	low _data
  3115   002B82  6E0B               	movwf	LCD_String_xy@msg^0,c
  3116   002B84  6A0C               	clrf	(LCD_String_xy@msg+1)^0,c
  3117   002B86  0E02               	movlw	2
  3118   002B88  ECBD  F02F         	call	_LCD_String_xy
  3119   002B8C                     l4897:
  3120   002B8C  BCCD               	btfsc	205,6,c	;volatile
  3121   002B8E  EFCB  F015         	goto	u5101
  3122   002B92  EFCD  F015         	goto	u5100
  3123   002B96                     u5101:
  3124   002B96  EF2E  F015         	goto	l144
  3125   002B9A                     u5100:
  3126   002B9A  C05A  F001         	movff	_num,___xxtofl@val
  3127   002B9E  C05B  F002         	movff	_num+1,___xxtofl@val+1
  3128   002BA2  0E00               	movlw	0
  3129   002BA4  BE02               	btfsc	(___xxtofl@val+1)^0,7,c
  3130   002BA6  0EFF               	movlw	-1
  3131   002BA8  6E03               	movwf	(___xxtofl@val+2)^0,c
  3132   002BAA  6E04               	movwf	(___xxtofl@val+3)^0,c
  3133   002BAC  0E01               	movlw	1
  3134   002BAE  ECBF  F028         	call	___xxtofl
  3135   002BB2  C001  F00F         	movff	?___xxtofl,___fleq@ff1
  3136   002BB6  C002  F010         	movff	?___xxtofl+1,___fleq@ff1+1
  3137   002BBA  C003  F011         	movff	?___xxtofl+2,___fleq@ff1+2
  3138   002BBE  C004  F012         	movff	?___xxtofl+3,___fleq@ff1+3
  3139   002BC2  C056  F013         	movff	_count1,___fleq@ff2
  3140   002BC6  C057  F014         	movff	_count1+1,___fleq@ff2+1
  3141   002BCA  C058  F015         	movff	_count1+2,___fleq@ff2+2
  3142   002BCE  C059  F016         	movff	_count1+3,___fleq@ff2+3
  3143   002BD2  EC44  F02D         	call	___fleq	;wreg free
  3144   002BD6  A0D8               	btfss	status,0,c
  3145   002BD8  EFF0  F015         	goto	u5111
  3146   002BDC  EFF2  F015         	goto	u5110
  3147   002BE0                     u5111:
  3148   002BE0  EF1C  F016         	goto	l4911
  3149   002BE4                     u5110:
  3150   002BE4  EC90  F030         	call	_LCD_Clear	;wreg free
  3151   002BE8  0E01               	movlw	1
  3152   002BEA  245C               	addwf	_count2^0,w,c
  3153   002BEC  6E5C               	movwf	_count2^0,c
  3154   002BEE  0E00               	movlw	0
  3155   002BF0  205D               	addwfc	(_count2+1)^0,w,c
  3156   002BF2  6E5D               	movwf	(_count2+1)^0,c
  3157   002BF4  0E00               	movlw	0
  3158   002BF6  6E0A               	movwf	LCD_String_xy@pos^0,c
  3159   002BF8  0E99               	movlw	low STR_12
  3160   002BFA  6E0B               	movwf	LCD_String_xy@msg^0,c
  3161   002BFC  500B               	movf	LCD_String_xy@msg^0,w,c
  3162   002BFE  A4D8               	btfss	status,2,c
  3163   002C00  0E20               	movlw	high __smallconst
  3164   002C02  6E0C               	movwf	(LCD_String_xy@msg+1)^0,c
  3165   002C04  0E01               	movlw	1
  3166   002C06  ECBD  F02F         	call	_LCD_String_xy
  3167   002C0A  0E1A               	movlw	26
  3168   002C0C  0100               	movlb	0	; () banked
  3169   002C0E  6F93               	movwf	(??_main+1)& (0+255),b
  3170   002C10  0E5E               	movlw	94
  3171   002C12  6F92               	movwf	??_main& (0+255),b
  3172   002C14  0E6E               	movlw	110
  3173   002C16                     u5547:
  3174   002C16  2EE8               	decfsz	wreg,f,c
  3175   002C18  D7FE               	bra	u5547
  3176   002C1A  2F92               	decfsz	??_main& (0+255),f,b
  3177   002C1C  D7FC               	bra	u5547
  3178   002C1E  2F93               	decfsz	(??_main+1)& (0+255),f,b
  3179   002C20  D7FA               	bra	u5547
  3180   002C22  0000               	nop	
  3181   002C24  0E00               	movlw	0
  3182   002C26  6E56               	movwf	_count1^0,c
  3183   002C28  0E00               	movlw	0
  3184   002C2A  6E57               	movwf	(_count1+1)^0,c
  3185   002C2C  0E00               	movlw	0
  3186   002C2E  6E58               	movwf	(_count1+2)^0,c
  3187   002C30  0E00               	movlw	0
  3188   002C32  6E59               	movwf	(_count1+3)^0,c
  3189   002C34  EF3E  F016         	goto	l4919
  3190   002C38                     l4911:
  3191   002C38  EC90  F030         	call	_LCD_Clear	;wreg free
  3192   002C3C  0E00               	movlw	0
  3193   002C3E  6E0A               	movwf	LCD_String_xy@pos^0,c
  3194   002C40  0E72               	movlw	low STR_13
  3195   002C42  6E0B               	movwf	LCD_String_xy@msg^0,c
  3196   002C44  500B               	movf	LCD_String_xy@msg^0,w,c
  3197   002C46  A4D8               	btfss	status,2,c
  3198   002C48  0E20               	movlw	high __smallconst
  3199   002C4A  6E0C               	movwf	(LCD_String_xy@msg+1)^0,c
  3200   002C4C  0E01               	movlw	1
  3201   002C4E  ECBD  F02F         	call	_LCD_String_xy
  3202   002C52  0E1A               	movlw	26
  3203   002C54  0100               	movlb	0	; () banked
  3204   002C56  6F93               	movwf	(??_main+1)& (0+255),b
  3205   002C58  0E5E               	movlw	94
  3206   002C5A  6F92               	movwf	??_main& (0+255),b
  3207   002C5C  0E6E               	movlw	110
  3208   002C5E                     u5557:
  3209   002C5E  2EE8               	decfsz	wreg,f,c
  3210   002C60  D7FE               	bra	u5557
  3211   002C62  2F92               	decfsz	??_main& (0+255),f,b
  3212   002C64  D7FC               	bra	u5557
  3213   002C66  2F93               	decfsz	(??_main+1)& (0+255),f,b
  3214   002C68  D7FA               	bra	u5557
  3215   002C6A  0000               	nop	
  3216   002C6C  0E00               	movlw	0
  3217   002C6E  6E56               	movwf	_count1^0,c
  3218   002C70  0E00               	movlw	0
  3219   002C72  6E57               	movwf	(_count1+1)^0,c
  3220   002C74  0E00               	movlw	0
  3221   002C76  6E58               	movwf	(_count1+2)^0,c
  3222   002C78  0E00               	movlw	0
  3223   002C7A  6E59               	movwf	(_count1+3)^0,c
  3224   002C7C                     l4919:
  3225   002C7C  505C               	movf	_count2^0,w,c
  3226   002C7E  105D               	iorwf	(_count2+1)^0,w,c
  3227   002C80  A4D8               	btfss	status,2,c
  3228   002C82  EF45  F016         	goto	u5121
  3229   002C86  EF47  F016         	goto	u5120
  3230   002C8A                     u5121:
  3231   002C8A  EF6C  F016         	goto	l4925
  3232   002C8E                     u5120:
  3233   002C8E  0E00               	movlw	0
  3234   002C90  6E0A               	movwf	LCD_String_xy@pos^0,c
  3235   002C92  0E7F               	movlw	low STR_36
  3236   002C94  6E0B               	movwf	LCD_String_xy@msg^0,c
  3237   002C96  500B               	movf	LCD_String_xy@msg^0,w,c
  3238   002C98  A4D8               	btfss	status,2,c
  3239   002C9A  0E20               	movlw	high __smallconst
  3240   002C9C  6E0C               	movwf	(LCD_String_xy@msg+1)^0,c
  3241   002C9E  0E01               	movlw	1
  3242   002CA0  ECBD  F02F         	call	_LCD_String_xy
  3243   002CA4  0E04               	movlw	4
  3244   002CA6  6E0A               	movwf	LCD_String_xy@pos^0,c
  3245   002CA8  0EBB               	movlw	low STR_37
  3246   002CAA  6E0B               	movwf	LCD_String_xy@msg^0,c
  3247   002CAC  500B               	movf	LCD_String_xy@msg^0,w,c
  3248   002CAE  A4D8               	btfss	status,2,c
  3249   002CB0  0E20               	movlw	high __smallconst
  3250   002CB2  6E0C               	movwf	(LCD_String_xy@msg+1)^0,c
  3251   002CB4  0E02               	movlw	2
  3252   002CB6  ECBD  F02F         	call	_LCD_String_xy
  3253   002CBA                     l4923:
  3254   002CBA  0E1A               	movlw	26
  3255   002CBC  0100               	movlb	0	; () banked
  3256   002CBE  6F93               	movwf	(??_main+1)& (0+255),b
  3257   002CC0  0E5E               	movlw	94
  3258   002CC2  6F92               	movwf	??_main& (0+255),b
  3259   002CC4  0E6E               	movlw	110
  3260   002CC6                     u5567:
  3261   002CC6  2EE8               	decfsz	wreg,f,c
  3262   002CC8  D7FE               	bra	u5567
  3263   002CCA  2F92               	decfsz	??_main& (0+255),f,b
  3264   002CCC  D7FC               	bra	u5567
  3265   002CCE  2F93               	decfsz	(??_main+1)& (0+255),f,b
  3266   002CD0  D7FA               	bra	u5567
  3267   002CD2  0000               	nop	
  3268   002CD4  EF60  F010         	goto	l117
  3269   002CD8                     l4925:
  3270   002CD8  0EAC               	movlw	low _data
  3271   002CDA  0100               	movlb	0	; () banked
  3272   002CDC  6F8C               	movwf	sprintf@s& (0+255),b
  3273   002CDE  0EA3               	movlw	low STR_38
  3274   002CE0  6F8D               	movwf	sprintf@fmt& (0+255),b
  3275   002CE2  C05C  F08E         	movff	_count2,?_sprintf+2
  3276   002CE6  C05D  F08F         	movff	_count2+1,?_sprintf+3
  3277   002CEA  ECF9  F02F         	call	_sprintf	;wreg free
  3278   002CEE  0E00               	movlw	0
  3279   002CF0  6E0A               	movwf	LCD_String_xy@pos^0,c
  3280   002CF2  0E7F               	movlw	low STR_36
  3281   002CF4  6E0B               	movwf	LCD_String_xy@msg^0,c
  3282   002CF6  500B               	movf	LCD_String_xy@msg^0,w,c
  3283   002CF8  A4D8               	btfss	status,2,c
  3284   002CFA  0E20               	movlw	high __smallconst
  3285   002CFC  6E0C               	movwf	(LCD_String_xy@msg+1)^0,c
  3286   002CFE  0E01               	movlw	1
  3287   002D00  ECBD  F02F         	call	_LCD_String_xy
  3288   002D04  0EAC               	movlw	low _data
  3289   002D06  6E01               	movwf	strcat@dest^0,c
  3290   002D08  0EBC               	movlw	low (STR_37+1)
  3291   002D0A  6E02               	movwf	strcat@src^0,c
  3292   002D0C  EC87  F02E         	call	_strcat	;wreg free
  3293   002D10  0E04               	movlw	4
  3294   002D12  6E0A               	movwf	LCD_String_xy@pos^0,c
  3295   002D14  0EAC               	movlw	low _data
  3296   002D16  6E0B               	movwf	LCD_String_xy@msg^0,c
  3297   002D18  6A0C               	clrf	(LCD_String_xy@msg+1)^0,c
  3298   002D1A  0E02               	movlw	2
  3299   002D1C  ECBD  F02F         	call	_LCD_String_xy
  3300   002D20  EF5D  F016         	goto	l4923
  3301   002D24                     l4935:
  3302   002D24  C09C  F00F         	movff	_Difficulty,___fleq@ff1
  3303   002D28  C09D  F010         	movff	_Difficulty+1,___fleq@ff1+1
  3304   002D2C  C09E  F011         	movff	_Difficulty+2,___fleq@ff1+2
  3305   002D30  C09F  F012         	movff	_Difficulty+3,___fleq@ff1+3
  3306   002D34  0E00               	movlw	0
  3307   002D36  6E13               	movwf	___fleq@ff2^0,c
  3308   002D38  0E00               	movlw	0
  3309   002D3A  6E14               	movwf	(___fleq@ff2+1)^0,c
  3310   002D3C  0E40               	movlw	64
  3311   002D3E  6E15               	movwf	(___fleq@ff2+2)^0,c
  3312   002D40  0E40               	movlw	64
  3313   002D42  6E16               	movwf	(___fleq@ff2+3)^0,c
  3314   002D44  EC44  F02D         	call	___fleq	;wreg free
  3315   002D48  A0D8               	btfss	status,0,c
  3316   002D4A  EFA9  F016         	goto	u5131
  3317   002D4E  EFAB  F016         	goto	u5130
  3318   002D52                     u5131:
  3319   002D52  EFF7  F017         	goto	l4995
  3320   002D56                     u5130:
  3321   002D56  EC1B  F02E         	call	_rand	;wreg free
  3322   002D5A  0E0F               	movlw	15
  3323   002D5C  140D               	andwf	?_rand^0,w,c
  3324   002D5E  6E5A               	movwf	_num^0,c
  3325   002D60  6A5B               	clrf	(_num+1)^0,c
  3326   002D62  0060  F16B  FFCD   	movff	_num,16333	;volatile
  3327   002D68  0E03               	movlw	3
  3328   002D6A  0100               	movlb	0	; () banked
  3329   002D6C  6F93               	movwf	(??_main+1)& (0+255),b
  3330   002D6E  0E8A               	movlw	138
  3331   002D70  6F92               	movwf	??_main& (0+255),b
  3332   002D72  0E55               	movlw	85
  3333   002D74                     u5577:
  3334   002D74  2EE8               	decfsz	wreg,f,c
  3335   002D76  D7FE               	bra	u5577
  3336   002D78  2F92               	decfsz	??_main& (0+255),f,b
  3337   002D7A  D7FC               	bra	u5577
  3338   002D7C  2F93               	decfsz	(??_main+1)& (0+255),f,b
  3339   002D7E  D7FA               	bra	u5577
  3340   002D80  D000               	nop2	
  3341   002D82  6ACD               	clrf	205,c	;volatile
  3342   002D84  0E82               	movlw	130
  3343   002D86  0100               	movlb	0	; () banked
  3344   002D88  6F92               	movwf	??_main& (0+255),b
  3345   002D8A  0EDD               	movlw	221
  3346   002D8C                     u5587:
  3347   002D8C  2EE8               	decfsz	wreg,f,c
  3348   002D8E  D7FE               	bra	u5587
  3349   002D90  2F92               	decfsz	??_main& (0+255),f,b
  3350   002D92  D7FC               	bra	u5587
  3351   002D94  D000               	nop2	
  3352   002D96  0E00               	movlw	0
  3353   002D98  6E0A               	movwf	LCD_String_xy@pos^0,c
  3354   002D9A  0E8C               	movlw	low STR_6
  3355   002D9C  6E0B               	movwf	LCD_String_xy@msg^0,c
  3356   002D9E  500B               	movf	LCD_String_xy@msg^0,w,c
  3357   002DA0  A4D8               	btfss	status,2,c
  3358   002DA2  0E20               	movlw	high __smallconst
  3359   002DA4  6E0C               	movwf	(LCD_String_xy@msg+1)^0,c
  3360   002DA6  0E01               	movlw	1
  3361   002DA8  ECBD  F02F         	call	_LCD_String_xy
  3362   002DAC  0E04               	movlw	4
  3363   002DAE  6E0A               	movwf	LCD_String_xy@pos^0,c
  3364   002DB0  0EA9               	movlw	low STR_7
  3365   002DB2  6E0B               	movwf	LCD_String_xy@msg^0,c
  3366   002DB4  500B               	movf	LCD_String_xy@msg^0,w,c
  3367   002DB6  A4D8               	btfss	status,2,c
  3368   002DB8  0E20               	movlw	high __smallconst
  3369   002DBA  6E0C               	movwf	(LCD_String_xy@msg+1)^0,c
  3370   002DBC  0E02               	movlw	2
  3371   002DBE  ECBD  F02F         	call	_LCD_String_xy
  3372   002DC2  EF83  F017         	goto	l4973
  3373   002DC6                     l153:
  3374   002DC6  B2CE               	btfsc	206,1,c	;volatile
  3375   002DC8  EFE8  F016         	goto	u5141
  3376   002DCC  EFEA  F016         	goto	u5140
  3377   002DD0                     u5141:
  3378   002DD0  EF33  F017         	goto	l4961
  3379   002DD4                     u5140:
  3380   002DD4  C056  F001         	movff	_count1,___fladd@b
  3381   002DD8  C057  F002         	movff	_count1+1,___fladd@b+1
  3382   002DDC  C058  F003         	movff	_count1+2,___fladd@b+2
  3383   002DE0  C059  F004         	movff	_count1+3,___fladd@b+3
  3384   002DE4  0E00               	movlw	0
  3385   002DE6  6E05               	movwf	___fladd@a^0,c
  3386   002DE8  0E00               	movlw	0
  3387   002DEA  6E06               	movwf	(___fladd@a+1)^0,c
  3388   002DEC  0E80               	movlw	128
  3389   002DEE  6E07               	movwf	(___fladd@a+2)^0,c
  3390   002DF0  0E3F               	movlw	63
  3391   002DF2  6E08               	movwf	(___fladd@a+3)^0,c
  3392   002DF4  EC0B  F020         	call	___fladd	;wreg free
  3393   002DF8  C001  F056         	movff	?___fladd,_count1
  3394   002DFC  C002  F057         	movff	?___fladd+1,_count1+1
  3395   002E00  C003  F058         	movff	?___fladd+2,_count1+2
  3396   002E04  C004  F059         	movff	?___fladd+3,_count1+3
  3397   002E08  0E02               	movlw	2
  3398   002E0A  0100               	movlb	0	; () banked
  3399   002E0C  6F93               	movwf	(??_main+1)& (0+255),b
  3400   002E0E  0E45               	movlw	69
  3401   002E10  6F92               	movwf	??_main& (0+255),b
  3402   002E12  0EA9               	movlw	169
  3403   002E14                     u5597:
  3404   002E14  2EE8               	decfsz	wreg,f,c
  3405   002E16  D7FE               	bra	u5597
  3406   002E18  2F92               	decfsz	??_main& (0+255),f,b
  3407   002E1A  D7FC               	bra	u5597
  3408   002E1C  2F93               	decfsz	(??_main+1)& (0+255),f,b
  3409   002E1E  D7FA               	bra	u5597
  3410   002E20  D000               	nop2	
  3411   002E22  0EAC               	movlw	low _data
  3412   002E24  0100               	movlb	0	; () banked
  3413   002E26  6F8C               	movwf	sprintf@s& (0+255),b
  3414   002E28  0EAE               	movlw	low STR_1
  3415   002E2A  6F8D               	movwf	sprintf@fmt& (0+255),b
  3416   002E2C  C056  F08E         	movff	_count1,?_sprintf+2
  3417   002E30  C057  F08F         	movff	_count1+1,?_sprintf+3
  3418   002E34  C058  F090         	movff	_count1+2,?_sprintf+4
  3419   002E38  C059  F091         	movff	_count1+3,?_sprintf+5
  3420   002E3C  ECF9  F02F         	call	_sprintf	;wreg free
  3421   002E40  0E00               	movlw	0
  3422   002E42  6E0A               	movwf	LCD_String_xy@pos^0,c
  3423   002E44  0E8C               	movlw	low STR_6
  3424   002E46  6E0B               	movwf	LCD_String_xy@msg^0,c
  3425   002E48  500B               	movf	LCD_String_xy@msg^0,w,c
  3426   002E4A  A4D8               	btfss	status,2,c
  3427   002E4C  0E20               	movlw	high __smallconst
  3428   002E4E  6E0C               	movwf	(LCD_String_xy@msg+1)^0,c
  3429   002E50  0E01               	movlw	1
  3430   002E52  ECBD  F02F         	call	_LCD_String_xy
  3431   002E56  0E04               	movlw	4
  3432   002E58  6E0A               	movwf	LCD_String_xy@pos^0,c
  3433   002E5A  0EAC               	movlw	low _data
  3434   002E5C  6E0B               	movwf	LCD_String_xy@msg^0,c
  3435   002E5E  6A0C               	clrf	(LCD_String_xy@msg+1)^0,c
  3436   002E60  0E02               	movlw	2
  3437   002E62  ECBD  F02F         	call	_LCD_String_xy
  3438   002E66                     l4961:
  3439   002E66  B0CE               	btfsc	206,0,c	;volatile
  3440   002E68  EF38  F017         	goto	u5151
  3441   002E6C  EF3A  F017         	goto	u5150
  3442   002E70                     u5151:
  3443   002E70  EF83  F017         	goto	l4973
  3444   002E74                     u5150:
  3445   002E74  C056  F028         	movff	_count1,___flsub@b
  3446   002E78  C057  F029         	movff	_count1+1,___flsub@b+1
  3447   002E7C  C058  F02A         	movff	_count1+2,___flsub@b+2
  3448   002E80  C059  F02B         	movff	_count1+3,___flsub@b+3
  3449   002E84  0E00               	movlw	0
  3450   002E86  6E2C               	movwf	___flsub@a^0,c
  3451   002E88  0E00               	movlw	0
  3452   002E8A  6E2D               	movwf	(___flsub@a+1)^0,c
  3453   002E8C  0E80               	movlw	128
  3454   002E8E  6E2E               	movwf	(___flsub@a+2)^0,c
  3455   002E90  0E3F               	movlw	63
  3456   002E92  6E2F               	movwf	(___flsub@a+3)^0,c
  3457   002E94  EC58  F02F         	call	___flsub	;wreg free
  3458   002E98  C028  F056         	movff	?___flsub,_count1
  3459   002E9C  C029  F057         	movff	?___flsub+1,_count1+1
  3460   002EA0  C02A  F058         	movff	?___flsub+2,_count1+2
  3461   002EA4  C02B  F059         	movff	?___flsub+3,_count1+3
  3462   002EA8  0E02               	movlw	2
  3463   002EAA  0100               	movlb	0	; () banked
  3464   002EAC  6F93               	movwf	(??_main+1)& (0+255),b
  3465   002EAE  0E45               	movlw	69
  3466   002EB0  6F92               	movwf	??_main& (0+255),b
  3467   002EB2  0EA9               	movlw	169
  3468   002EB4                     u5607:
  3469   002EB4  2EE8               	decfsz	wreg,f,c
  3470   002EB6  D7FE               	bra	u5607
  3471   002EB8  2F92               	decfsz	??_main& (0+255),f,b
  3472   002EBA  D7FC               	bra	u5607
  3473   002EBC  2F93               	decfsz	(??_main+1)& (0+255),f,b
  3474   002EBE  D7FA               	bra	u5607
  3475   002EC0  D000               	nop2	
  3476   002EC2  0EAC               	movlw	low _data
  3477   002EC4  0100               	movlb	0	; () banked
  3478   002EC6  6F8C               	movwf	sprintf@s& (0+255),b
  3479   002EC8  0EAE               	movlw	low STR_1
  3480   002ECA  6F8D               	movwf	sprintf@fmt& (0+255),b
  3481   002ECC  C056  F08E         	movff	_count1,?_sprintf+2
  3482   002ED0  C057  F08F         	movff	_count1+1,?_sprintf+3
  3483   002ED4  C058  F090         	movff	_count1+2,?_sprintf+4
  3484   002ED8  C059  F091         	movff	_count1+3,?_sprintf+5
  3485   002EDC  ECF9  F02F         	call	_sprintf	;wreg free
  3486   002EE0  0E00               	movlw	0
  3487   002EE2  6E0A               	movwf	LCD_String_xy@pos^0,c
  3488   002EE4  0E8C               	movlw	low STR_6
  3489   002EE6  6E0B               	movwf	LCD_String_xy@msg^0,c
  3490   002EE8  500B               	movf	LCD_String_xy@msg^0,w,c
  3491   002EEA  A4D8               	btfss	status,2,c
  3492   002EEC  0E20               	movlw	high __smallconst
  3493   002EEE  6E0C               	movwf	(LCD_String_xy@msg+1)^0,c
  3494   002EF0  0E01               	movlw	1
  3495   002EF2  ECBD  F02F         	call	_LCD_String_xy
  3496   002EF6  0E04               	movlw	4
  3497   002EF8  6E0A               	movwf	LCD_String_xy@pos^0,c
  3498   002EFA  0EAC               	movlw	low _data
  3499   002EFC  6E0B               	movwf	LCD_String_xy@msg^0,c
  3500   002EFE  6A0C               	clrf	(LCD_String_xy@msg+1)^0,c
  3501   002F00  0E02               	movlw	2
  3502   002F02  ECBD  F02F         	call	_LCD_String_xy
  3503   002F06                     l4973:
  3504   002F06  BCCD               	btfsc	205,6,c	;volatile
  3505   002F08  EF88  F017         	goto	u5161
  3506   002F0C  EF8A  F017         	goto	u5160
  3507   002F10                     u5161:
  3508   002F10  EFE3  F016         	goto	l153
  3509   002F14                     u5160:
  3510   002F14  C05A  F001         	movff	_num,___xxtofl@val
  3511   002F18  C05B  F002         	movff	_num+1,___xxtofl@val+1
  3512   002F1C  0E00               	movlw	0
  3513   002F1E  BE02               	btfsc	(___xxtofl@val+1)^0,7,c
  3514   002F20  0EFF               	movlw	-1
  3515   002F22  6E03               	movwf	(___xxtofl@val+2)^0,c
  3516   002F24  6E04               	movwf	(___xxtofl@val+3)^0,c
  3517   002F26  0E01               	movlw	1
  3518   002F28  ECBF  F028         	call	___xxtofl
  3519   002F2C  C001  F00F         	movff	?___xxtofl,___fleq@ff1
  3520   002F30  C002  F010         	movff	?___xxtofl+1,___fleq@ff1+1
  3521   002F34  C003  F011         	movff	?___xxtofl+2,___fleq@ff1+2
  3522   002F38  C004  F012         	movff	?___xxtofl+3,___fleq@ff1+3
  3523   002F3C  C056  F013         	movff	_count1,___fleq@ff2
  3524   002F40  C057  F014         	movff	_count1+1,___fleq@ff2+1
  3525   002F44  C058  F015         	movff	_count1+2,___fleq@ff2+2
  3526   002F48  C059  F016         	movff	_count1+3,___fleq@ff2+3
  3527   002F4C  EC44  F02D         	call	___fleq	;wreg free
  3528   002F50  A0D8               	btfss	status,0,c
  3529   002F52  EFAD  F017         	goto	u5171
  3530   002F56  EFAF  F017         	goto	u5170
  3531   002F5A                     u5171:
  3532   002F5A  EFD3  F017         	goto	l4987
  3533   002F5E                     u5170:
  3534   002F5E  EC90  F030         	call	_LCD_Clear	;wreg free
  3535   002F62  0E00               	movlw	0
  3536   002F64  6E0A               	movwf	LCD_String_xy@pos^0,c
  3537   002F66  0E99               	movlw	low STR_12
  3538   002F68  6E0B               	movwf	LCD_String_xy@msg^0,c
  3539   002F6A  500B               	movf	LCD_String_xy@msg^0,w,c
  3540   002F6C  A4D8               	btfss	status,2,c
  3541   002F6E  0E20               	movlw	high __smallconst
  3542   002F70  6E0C               	movwf	(LCD_String_xy@msg+1)^0,c
  3543   002F72  0E01               	movlw	1
  3544   002F74  ECBD  F02F         	call	_LCD_String_xy
  3545   002F78  0E1A               	movlw	26
  3546   002F7A  0100               	movlb	0	; () banked
  3547   002F7C  6F93               	movwf	(??_main+1)& (0+255),b
  3548   002F7E  0E5E               	movlw	94
  3549   002F80  6F92               	movwf	??_main& (0+255),b
  3550   002F82  0E6E               	movlw	110
  3551   002F84                     u5617:
  3552   002F84  2EE8               	decfsz	wreg,f,c
  3553   002F86  D7FE               	bra	u5617
  3554   002F88  2F92               	decfsz	??_main& (0+255),f,b
  3555   002F8A  D7FC               	bra	u5617
  3556   002F8C  2F93               	decfsz	(??_main+1)& (0+255),f,b
  3557   002F8E  D7FA               	bra	u5617
  3558   002F90  0000               	nop	
  3559   002F92  0E00               	movlw	0
  3560   002F94  6E56               	movwf	_count1^0,c
  3561   002F96  0E00               	movlw	0
  3562   002F98  6E57               	movwf	(_count1+1)^0,c
  3563   002F9A  0E00               	movlw	0
  3564   002F9C  6E58               	movwf	(_count1+2)^0,c
  3565   002F9E  0E00               	movlw	0
  3566   002FA0  6E59               	movwf	(_count1+3)^0,c
  3567   002FA2  EF60  F010         	goto	l117
  3568   002FA6                     l4987:
  3569   002FA6  EC90  F030         	call	_LCD_Clear	;wreg free
  3570   002FAA  0E00               	movlw	0
  3571   002FAC  6E0A               	movwf	LCD_String_xy@pos^0,c
  3572   002FAE  0E72               	movlw	low STR_13
  3573   002FB0  6E0B               	movwf	LCD_String_xy@msg^0,c
  3574   002FB2  500B               	movf	LCD_String_xy@msg^0,w,c
  3575   002FB4  A4D8               	btfss	status,2,c
  3576   002FB6  0E20               	movlw	high __smallconst
  3577   002FB8  6E0C               	movwf	(LCD_String_xy@msg+1)^0,c
  3578   002FBA  0E01               	movlw	1
  3579   002FBC  ECBD  F02F         	call	_LCD_String_xy
  3580   002FC0  0E1A               	movlw	26
  3581   002FC2  0100               	movlb	0	; () banked
  3582   002FC4  6F93               	movwf	(??_main+1)& (0+255),b
  3583   002FC6  0E5E               	movlw	94
  3584   002FC8  6F92               	movwf	??_main& (0+255),b
  3585   002FCA  0E6E               	movlw	110
  3586   002FCC                     u5627:
  3587   002FCC  2EE8               	decfsz	wreg,f,c
  3588   002FCE  D7FE               	bra	u5627
  3589   002FD0  2F92               	decfsz	??_main& (0+255),f,b
  3590   002FD2  D7FC               	bra	u5627
  3591   002FD4  2F93               	decfsz	(??_main+1)& (0+255),f,b
  3592   002FD6  D7FA               	bra	u5627
  3593   002FD8  0000               	nop	
  3594   002FDA  0E00               	movlw	0
  3595   002FDC  6E56               	movwf	_count1^0,c
  3596   002FDE  0E00               	movlw	0
  3597   002FE0  6E57               	movwf	(_count1+1)^0,c
  3598   002FE2  0E00               	movlw	0
  3599   002FE4  6E58               	movwf	(_count1+2)^0,c
  3600   002FE6  0E00               	movlw	0
  3601   002FE8  6E59               	movwf	(_count1+3)^0,c
  3602   002FEA  EF60  F010         	goto	l117
  3603   002FEE                     l4995:
  3604   002FEE  C09C  F00F         	movff	_Difficulty,___fleq@ff1
  3605   002FF2  C09D  F010         	movff	_Difficulty+1,___fleq@ff1+1
  3606   002FF6  C09E  F011         	movff	_Difficulty+2,___fleq@ff1+2
  3607   002FFA  C09F  F012         	movff	_Difficulty+3,___fleq@ff1+3
  3608   002FFE  0E00               	movlw	0
  3609   003000  6E13               	movwf	___fleq@ff2^0,c
  3610   003002  0E00               	movlw	0
  3611   003004  6E14               	movwf	(___fleq@ff2+1)^0,c
  3612   003006  0E00               	movlw	0
  3613   003008  6E15               	movwf	(___fleq@ff2+2)^0,c
  3614   00300A  0E40               	movlw	64
  3615   00300C  6E16               	movwf	(___fleq@ff2+3)^0,c
  3616   00300E  EC44  F02D         	call	___fleq	;wreg free
  3617   003012  A0D8               	btfss	status,0,c
  3618   003014  EF0E  F018         	goto	u5181
  3619   003018  EF10  F018         	goto	u5180
  3620   00301C                     u5181:
  3621   00301C  EF68  F019         	goto	l5055
  3622   003020                     u5180:
  3623   003020  EC1B  F02E         	call	_rand	;wreg free
  3624   003024  C00D  F013         	movff	?_rand,___awmod@dividend
  3625   003028  C00E  F014         	movff	?_rand+1,___awmod@dividend+1
  3626   00302C  0E00               	movlw	0
  3627   00302E  6E16               	movwf	(___awmod@divisor+1)^0,c
  3628   003030  0E0E               	movlw	14
  3629   003032  6E15               	movwf	___awmod@divisor^0,c
  3630   003034  EC97  F02C         	call	___awmod	;wreg free
  3631   003038  0E01               	movlw	1
  3632   00303A  2413               	addwf	?___awmod^0,w,c
  3633   00303C  6E5A               	movwf	_num^0,c
  3634   00303E  0E00               	movlw	0
  3635   003040  2014               	addwfc	(?___awmod+1)^0,w,c
  3636   003042  6E5B               	movwf	(_num+1)^0,c
  3637   003044  0060  F16B  FFCD   	movff	_num,16333	;volatile
  3638   00304A  0E06               	movlw	6
  3639   00304C  0100               	movlb	0	; () banked
  3640   00304E  6F93               	movwf	(??_main+1)& (0+255),b
  3641   003050  0E13               	movlw	19
  3642   003052  6F92               	movwf	??_main& (0+255),b
  3643   003054  0EAD               	movlw	173
  3644   003056                     u5637:
  3645   003056  2EE8               	decfsz	wreg,f,c
  3646   003058  D7FE               	bra	u5637
  3647   00305A  2F92               	decfsz	??_main& (0+255),f,b
  3648   00305C  D7FC               	bra	u5637
  3649   00305E  2F93               	decfsz	(??_main+1)& (0+255),f,b
  3650   003060  D7FA               	bra	u5637
  3651   003062  D000               	nop2	
  3652   003064  6ACD               	clrf	205,c	;volatile
  3653   003066  0E82               	movlw	130
  3654   003068  0100               	movlb	0	; () banked
  3655   00306A  6F92               	movwf	??_main& (0+255),b
  3656   00306C  0EDD               	movlw	221
  3657   00306E                     u5647:
  3658   00306E  2EE8               	decfsz	wreg,f,c
  3659   003070  D7FE               	bra	u5647
  3660   003072  2F92               	decfsz	??_main& (0+255),f,b
  3661   003074  D7FC               	bra	u5647
  3662   003076  D000               	nop2	
  3663   003078  0E00               	movlw	0
  3664   00307A  6E0A               	movwf	LCD_String_xy@pos^0,c
  3665   00307C  0E8C               	movlw	low STR_6
  3666   00307E  6E0B               	movwf	LCD_String_xy@msg^0,c
  3667   003080  500B               	movf	LCD_String_xy@msg^0,w,c
  3668   003082  A4D8               	btfss	status,2,c
  3669   003084  0E20               	movlw	high __smallconst
  3670   003086  6E0C               	movwf	(LCD_String_xy@msg+1)^0,c
  3671   003088  0E01               	movlw	1
  3672   00308A  ECBD  F02F         	call	_LCD_String_xy
  3673   00308E  0E04               	movlw	4
  3674   003090  6E0A               	movwf	LCD_String_xy@pos^0,c
  3675   003092  0EA9               	movlw	low STR_7
  3676   003094  6E0B               	movwf	LCD_String_xy@msg^0,c
  3677   003096  500B               	movf	LCD_String_xy@msg^0,w,c
  3678   003098  A4D8               	btfss	status,2,c
  3679   00309A  0E20               	movlw	high __smallconst
  3680   00309C  6E0C               	movwf	(LCD_String_xy@msg+1)^0,c
  3681   00309E  0E02               	movlw	2
  3682   0030A0  ECBD  F02F         	call	_LCD_String_xy
  3683   0030A4  EFF4  F018         	goto	l5033
  3684   0030A8                     l161:
  3685   0030A8  B2CE               	btfsc	206,1,c	;volatile
  3686   0030AA  EF59  F018         	goto	u5191
  3687   0030AE  EF5B  F018         	goto	u5190
  3688   0030B2                     u5191:
  3689   0030B2  EFA4  F018         	goto	l5021
  3690   0030B6                     u5190:
  3691   0030B6  C056  F001         	movff	_count1,___fladd@b
  3692   0030BA  C057  F002         	movff	_count1+1,___fladd@b+1
  3693   0030BE  C058  F003         	movff	_count1+2,___fladd@b+2
  3694   0030C2  C059  F004         	movff	_count1+3,___fladd@b+3
  3695   0030C6  0E00               	movlw	0
  3696   0030C8  6E05               	movwf	___fladd@a^0,c
  3697   0030CA  0E00               	movlw	0
  3698   0030CC  6E06               	movwf	(___fladd@a+1)^0,c
  3699   0030CE  0E80               	movlw	128
  3700   0030D0  6E07               	movwf	(___fladd@a+2)^0,c
  3701   0030D2  0E3F               	movlw	63
  3702   0030D4  6E08               	movwf	(___fladd@a+3)^0,c
  3703   0030D6  EC0B  F020         	call	___fladd	;wreg free
  3704   0030DA  C001  F056         	movff	?___fladd,_count1
  3705   0030DE  C002  F057         	movff	?___fladd+1,_count1+1
  3706   0030E2  C003  F058         	movff	?___fladd+2,_count1+2
  3707   0030E6  C004  F059         	movff	?___fladd+3,_count1+3
  3708   0030EA  0E02               	movlw	2
  3709   0030EC  0100               	movlb	0	; () banked
  3710   0030EE  6F93               	movwf	(??_main+1)& (0+255),b
  3711   0030F0  0E45               	movlw	69
  3712   0030F2  6F92               	movwf	??_main& (0+255),b
  3713   0030F4  0EA9               	movlw	169
  3714   0030F6                     u5657:
  3715   0030F6  2EE8               	decfsz	wreg,f,c
  3716   0030F8  D7FE               	bra	u5657
  3717   0030FA  2F92               	decfsz	??_main& (0+255),f,b
  3718   0030FC  D7FC               	bra	u5657
  3719   0030FE  2F93               	decfsz	(??_main+1)& (0+255),f,b
  3720   003100  D7FA               	bra	u5657
  3721   003102  D000               	nop2	
  3722   003104  0EAC               	movlw	low _data
  3723   003106  0100               	movlb	0	; () banked
  3724   003108  6F8C               	movwf	sprintf@s& (0+255),b
  3725   00310A  0EAE               	movlw	low STR_1
  3726   00310C  6F8D               	movwf	sprintf@fmt& (0+255),b
  3727   00310E  C056  F08E         	movff	_count1,?_sprintf+2
  3728   003112  C057  F08F         	movff	_count1+1,?_sprintf+3
  3729   003116  C058  F090         	movff	_count1+2,?_sprintf+4
  3730   00311A  C059  F091         	movff	_count1+3,?_sprintf+5
  3731   00311E  ECF9  F02F         	call	_sprintf	;wreg free
  3732   003122  0E00               	movlw	0
  3733   003124  6E0A               	movwf	LCD_String_xy@pos^0,c
  3734   003126  0E8C               	movlw	low STR_6
  3735   003128  6E0B               	movwf	LCD_String_xy@msg^0,c
  3736   00312A  500B               	movf	LCD_String_xy@msg^0,w,c
  3737   00312C  A4D8               	btfss	status,2,c
  3738   00312E  0E20               	movlw	high __smallconst
  3739   003130  6E0C               	movwf	(LCD_String_xy@msg+1)^0,c
  3740   003132  0E01               	movlw	1
  3741   003134  ECBD  F02F         	call	_LCD_String_xy
  3742   003138  0E04               	movlw	4
  3743   00313A  6E0A               	movwf	LCD_String_xy@pos^0,c
  3744   00313C  0EAC               	movlw	low _data
  3745   00313E  6E0B               	movwf	LCD_String_xy@msg^0,c
  3746   003140  6A0C               	clrf	(LCD_String_xy@msg+1)^0,c
  3747   003142  0E02               	movlw	2
  3748   003144  ECBD  F02F         	call	_LCD_String_xy
  3749   003148                     l5021:
  3750   003148  B0CE               	btfsc	206,0,c	;volatile
  3751   00314A  EFA9  F018         	goto	u5201
  3752   00314E  EFAB  F018         	goto	u5200
  3753   003152                     u5201:
  3754   003152  EFF4  F018         	goto	l5033
  3755   003156                     u5200:
  3756   003156  C056  F028         	movff	_count1,___flsub@b
  3757   00315A  C057  F029         	movff	_count1+1,___flsub@b+1
  3758   00315E  C058  F02A         	movff	_count1+2,___flsub@b+2
  3759   003162  C059  F02B         	movff	_count1+3,___flsub@b+3
  3760   003166  0E00               	movlw	0
  3761   003168  6E2C               	movwf	___flsub@a^0,c
  3762   00316A  0E00               	movlw	0
  3763   00316C  6E2D               	movwf	(___flsub@a+1)^0,c
  3764   00316E  0E80               	movlw	128
  3765   003170  6E2E               	movwf	(___flsub@a+2)^0,c
  3766   003172  0E3F               	movlw	63
  3767   003174  6E2F               	movwf	(___flsub@a+3)^0,c
  3768   003176  EC58  F02F         	call	___flsub	;wreg free
  3769   00317A  C028  F056         	movff	?___flsub,_count1
  3770   00317E  C029  F057         	movff	?___flsub+1,_count1+1
  3771   003182  C02A  F058         	movff	?___flsub+2,_count1+2
  3772   003186  C02B  F059         	movff	?___flsub+3,_count1+3
  3773   00318A  0E02               	movlw	2
  3774   00318C  0100               	movlb	0	; () banked
  3775   00318E  6F93               	movwf	(??_main+1)& (0+255),b
  3776   003190  0E45               	movlw	69
  3777   003192  6F92               	movwf	??_main& (0+255),b
  3778   003194  0EA9               	movlw	169
  3779   003196                     u5667:
  3780   003196  2EE8               	decfsz	wreg,f,c
  3781   003198  D7FE               	bra	u5667
  3782   00319A  2F92               	decfsz	??_main& (0+255),f,b
  3783   00319C  D7FC               	bra	u5667
  3784   00319E  2F93               	decfsz	(??_main+1)& (0+255),f,b
  3785   0031A0  D7FA               	bra	u5667
  3786   0031A2  D000               	nop2	
  3787   0031A4  0EAC               	movlw	low _data
  3788   0031A6  0100               	movlb	0	; () banked
  3789   0031A8  6F8C               	movwf	sprintf@s& (0+255),b
  3790   0031AA  0EAE               	movlw	low STR_1
  3791   0031AC  6F8D               	movwf	sprintf@fmt& (0+255),b
  3792   0031AE  C056  F08E         	movff	_count1,?_sprintf+2
  3793   0031B2  C057  F08F         	movff	_count1+1,?_sprintf+3
  3794   0031B6  C058  F090         	movff	_count1+2,?_sprintf+4
  3795   0031BA  C059  F091         	movff	_count1+3,?_sprintf+5
  3796   0031BE  ECF9  F02F         	call	_sprintf	;wreg free
  3797   0031C2  0E00               	movlw	0
  3798   0031C4  6E0A               	movwf	LCD_String_xy@pos^0,c
  3799   0031C6  0E8C               	movlw	low STR_6
  3800   0031C8  6E0B               	movwf	LCD_String_xy@msg^0,c
  3801   0031CA  500B               	movf	LCD_String_xy@msg^0,w,c
  3802   0031CC  A4D8               	btfss	status,2,c
  3803   0031CE  0E20               	movlw	high __smallconst
  3804   0031D0  6E0C               	movwf	(LCD_String_xy@msg+1)^0,c
  3805   0031D2  0E01               	movlw	1
  3806   0031D4  ECBD  F02F         	call	_LCD_String_xy
  3807   0031D8  0E04               	movlw	4
  3808   0031DA  6E0A               	movwf	LCD_String_xy@pos^0,c
  3809   0031DC  0EAC               	movlw	low _data
  3810   0031DE  6E0B               	movwf	LCD_String_xy@msg^0,c
  3811   0031E0  6A0C               	clrf	(LCD_String_xy@msg+1)^0,c
  3812   0031E2  0E02               	movlw	2
  3813   0031E4  ECBD  F02F         	call	_LCD_String_xy
  3814   0031E8                     l5033:
  3815   0031E8  BCCD               	btfsc	205,6,c	;volatile
  3816   0031EA  EFF9  F018         	goto	u5211
  3817   0031EE  EFFB  F018         	goto	u5210
  3818   0031F2                     u5211:
  3819   0031F2  EF54  F018         	goto	l161
  3820   0031F6                     u5210:
  3821   0031F6  C05A  F001         	movff	_num,___xxtofl@val
  3822   0031FA  C05B  F002         	movff	_num+1,___xxtofl@val+1
  3823   0031FE  0E00               	movlw	0
  3824   003200  BE02               	btfsc	(___xxtofl@val+1)^0,7,c
  3825   003202  0EFF               	movlw	-1
  3826   003204  6E03               	movwf	(___xxtofl@val+2)^0,c
  3827   003206  6E04               	movwf	(___xxtofl@val+3)^0,c
  3828   003208  0E01               	movlw	1
  3829   00320A  ECBF  F028         	call	___xxtofl
  3830   00320E  C001  F00F         	movff	?___xxtofl,___fleq@ff1
  3831   003212  C002  F010         	movff	?___xxtofl+1,___fleq@ff1+1
  3832   003216  C003  F011         	movff	?___xxtofl+2,___fleq@ff1+2
  3833   00321A  C004  F012         	movff	?___xxtofl+3,___fleq@ff1+3
  3834   00321E  C056  F013         	movff	_count1,___fleq@ff2
  3835   003222  C057  F014         	movff	_count1+1,___fleq@ff2+1
  3836   003226  C058  F015         	movff	_count1+2,___fleq@ff2+2
  3837   00322A  C059  F016         	movff	_count1+3,___fleq@ff2+3
  3838   00322E  EC44  F02D         	call	___fleq	;wreg free
  3839   003232  A0D8               	btfss	status,0,c
  3840   003234  EF1E  F019         	goto	u5221
  3841   003238  EF20  F019         	goto	u5220
  3842   00323C                     u5221:
  3843   00323C  EF44  F019         	goto	l5047
  3844   003240                     u5220:
  3845   003240  EC90  F030         	call	_LCD_Clear	;wreg free
  3846   003244  0E00               	movlw	0
  3847   003246  6E0A               	movwf	LCD_String_xy@pos^0,c
  3848   003248  0E99               	movlw	low STR_12
  3849   00324A  6E0B               	movwf	LCD_String_xy@msg^0,c
  3850   00324C  500B               	movf	LCD_String_xy@msg^0,w,c
  3851   00324E  A4D8               	btfss	status,2,c
  3852   003250  0E20               	movlw	high __smallconst
  3853   003252  6E0C               	movwf	(LCD_String_xy@msg+1)^0,c
  3854   003254  0E01               	movlw	1
  3855   003256  ECBD  F02F         	call	_LCD_String_xy
  3856   00325A  0E1A               	movlw	26
  3857   00325C  0100               	movlb	0	; () banked
  3858   00325E  6F93               	movwf	(??_main+1)& (0+255),b
  3859   003260  0E5E               	movlw	94
  3860   003262  6F92               	movwf	??_main& (0+255),b
  3861   003264  0E6E               	movlw	110
  3862   003266                     u5677:
  3863   003266  2EE8               	decfsz	wreg,f,c
  3864   003268  D7FE               	bra	u5677
  3865   00326A  2F92               	decfsz	??_main& (0+255),f,b
  3866   00326C  D7FC               	bra	u5677
  3867   00326E  2F93               	decfsz	(??_main+1)& (0+255),f,b
  3868   003270  D7FA               	bra	u5677
  3869   003272  0000               	nop	
  3870   003274  0E00               	movlw	0
  3871   003276  6E56               	movwf	_count1^0,c
  3872   003278  0E00               	movlw	0
  3873   00327A  6E57               	movwf	(_count1+1)^0,c
  3874   00327C  0E00               	movlw	0
  3875   00327E  6E58               	movwf	(_count1+2)^0,c
  3876   003280  0E00               	movlw	0
  3877   003282  6E59               	movwf	(_count1+3)^0,c
  3878   003284  EF60  F010         	goto	l117
  3879   003288                     l5047:
  3880   003288  EC90  F030         	call	_LCD_Clear	;wreg free
  3881   00328C  0E00               	movlw	0
  3882   00328E  6E0A               	movwf	LCD_String_xy@pos^0,c
  3883   003290  0E72               	movlw	low STR_13
  3884   003292  6E0B               	movwf	LCD_String_xy@msg^0,c
  3885   003294  500B               	movf	LCD_String_xy@msg^0,w,c
  3886   003296  A4D8               	btfss	status,2,c
  3887   003298  0E20               	movlw	high __smallconst
  3888   00329A  6E0C               	movwf	(LCD_String_xy@msg+1)^0,c
  3889   00329C  0E01               	movlw	1
  3890   00329E  ECBD  F02F         	call	_LCD_String_xy
  3891   0032A2  0E1A               	movlw	26
  3892   0032A4  0100               	movlb	0	; () banked
  3893   0032A6  6F93               	movwf	(??_main+1)& (0+255),b
  3894   0032A8  0E5E               	movlw	94
  3895   0032AA  6F92               	movwf	??_main& (0+255),b
  3896   0032AC  0E6E               	movlw	110
  3897   0032AE                     u5687:
  3898   0032AE  2EE8               	decfsz	wreg,f,c
  3899   0032B0  D7FE               	bra	u5687
  3900   0032B2  2F92               	decfsz	??_main& (0+255),f,b
  3901   0032B4  D7FC               	bra	u5687
  3902   0032B6  2F93               	decfsz	(??_main+1)& (0+255),f,b
  3903   0032B8  D7FA               	bra	u5687
  3904   0032BA  0000               	nop	
  3905   0032BC  0E00               	movlw	0
  3906   0032BE  6E56               	movwf	_count1^0,c
  3907   0032C0  0E00               	movlw	0
  3908   0032C2  6E57               	movwf	(_count1+1)^0,c
  3909   0032C4  0E00               	movlw	0
  3910   0032C6  6E58               	movwf	(_count1+2)^0,c
  3911   0032C8  0E00               	movlw	0
  3912   0032CA  6E59               	movwf	(_count1+3)^0,c
  3913   0032CC  EF60  F010         	goto	l117
  3914   0032D0                     l5055:
  3915   0032D0  C09C  F00F         	movff	_Difficulty,___fleq@ff1
  3916   0032D4  C09D  F010         	movff	_Difficulty+1,___fleq@ff1+1
  3917   0032D8  C09E  F011         	movff	_Difficulty+2,___fleq@ff1+2
  3918   0032DC  C09F  F012         	movff	_Difficulty+3,___fleq@ff1+3
  3919   0032E0  0E00               	movlw	0
  3920   0032E2  6E13               	movwf	___fleq@ff2^0,c
  3921   0032E4  0E00               	movlw	0
  3922   0032E6  6E14               	movwf	(___fleq@ff2+1)^0,c
  3923   0032E8  0E80               	movlw	128
  3924   0032EA  6E15               	movwf	(___fleq@ff2+2)^0,c
  3925   0032EC  0E3F               	movlw	63
  3926   0032EE  6E16               	movwf	(___fleq@ff2+3)^0,c
  3927   0032F0  EC44  F02D         	call	___fleq	;wreg free
  3928   0032F4  A0D8               	btfss	status,0,c
  3929   0032F6  EF7F  F019         	goto	u5231
  3930   0032FA  EF81  F019         	goto	u5230
  3931   0032FE                     u5231:
  3932   0032FE  EFAF  F011         	goto	l4711
  3933   003302                     u5230:
  3934   003302  EC1B  F02E         	call	_rand	;wreg free
  3935   003306  0E0F               	movlw	15
  3936   003308  140D               	andwf	?_rand^0,w,c
  3937   00330A  6E5A               	movwf	_num^0,c
  3938   00330C  6A5B               	clrf	(_num+1)^0,c
  3939   00330E  0060  F16B  FFCD   	movff	_num,16333	;volatile
  3940   003314  0E0B               	movlw	11
  3941   003316  0100               	movlb	0	; () banked
  3942   003318  6F93               	movwf	(??_main+1)& (0+255),b
  3943   00331A  0E26               	movlw	38
  3944   00331C  6F92               	movwf	??_main& (0+255),b
  3945   00331E  0E5D               	movlw	93
  3946   003320                     u5697:
  3947   003320  2EE8               	decfsz	wreg,f,c
  3948   003322  D7FE               	bra	u5697
  3949   003324  2F92               	decfsz	??_main& (0+255),f,b
  3950   003326  D7FC               	bra	u5697
  3951   003328  2F93               	decfsz	(??_main+1)& (0+255),f,b
  3952   00332A  D7FA               	bra	u5697
  3953   00332C  D000               	nop2	
  3954   00332E  6ACD               	clrf	205,c	;volatile
  3955   003330  0E82               	movlw	130
  3956   003332  0100               	movlb	0	; () banked
  3957   003334  6F92               	movwf	??_main& (0+255),b
  3958   003336  0EDD               	movlw	221
  3959   003338                     u5707:
  3960   003338  2EE8               	decfsz	wreg,f,c
  3961   00333A  D7FE               	bra	u5707
  3962   00333C  2F92               	decfsz	??_main& (0+255),f,b
  3963   00333E  D7FC               	bra	u5707
  3964   003340  D000               	nop2	
  3965   003342  0E00               	movlw	0
  3966   003344  6E0A               	movwf	LCD_String_xy@pos^0,c
  3967   003346  0E8C               	movlw	low STR_6
  3968   003348  6E0B               	movwf	LCD_String_xy@msg^0,c
  3969   00334A  500B               	movf	LCD_String_xy@msg^0,w,c
  3970   00334C  A4D8               	btfss	status,2,c
  3971   00334E  0E20               	movlw	high __smallconst
  3972   003350  6E0C               	movwf	(LCD_String_xy@msg+1)^0,c
  3973   003352  0E01               	movlw	1
  3974   003354  ECBD  F02F         	call	_LCD_String_xy
  3975   003358  0E04               	movlw	4
  3976   00335A  6E0A               	movwf	LCD_String_xy@pos^0,c
  3977   00335C  0EA9               	movlw	low STR_7
  3978   00335E  6E0B               	movwf	LCD_String_xy@msg^0,c
  3979   003360  500B               	movf	LCD_String_xy@msg^0,w,c
  3980   003362  A4D8               	btfss	status,2,c
  3981   003364  0E20               	movlw	high __smallconst
  3982   003366  6E0C               	movwf	(LCD_String_xy@msg+1)^0,c
  3983   003368  0E02               	movlw	2
  3984   00336A  ECBD  F02F         	call	_LCD_String_xy
  3985   00336E  EF59  F01A         	goto	l5093
  3986   003372                     l169:
  3987   003372  B2CE               	btfsc	206,1,c	;volatile
  3988   003374  EFBE  F019         	goto	u5241
  3989   003378  EFC0  F019         	goto	u5240
  3990   00337C                     u5241:
  3991   00337C  EF09  F01A         	goto	l5081
  3992   003380                     u5240:
  3993   003380  C056  F001         	movff	_count1,___fladd@b
  3994   003384  C057  F002         	movff	_count1+1,___fladd@b+1
  3995   003388  C058  F003         	movff	_count1+2,___fladd@b+2
  3996   00338C  C059  F004         	movff	_count1+3,___fladd@b+3
  3997   003390  0E00               	movlw	0
  3998   003392  6E05               	movwf	___fladd@a^0,c
  3999   003394  0E00               	movlw	0
  4000   003396  6E06               	movwf	(___fladd@a+1)^0,c
  4001   003398  0E80               	movlw	128
  4002   00339A  6E07               	movwf	(___fladd@a+2)^0,c
  4003   00339C  0E3F               	movlw	63
  4004   00339E  6E08               	movwf	(___fladd@a+3)^0,c
  4005   0033A0  EC0B  F020         	call	___fladd	;wreg free
  4006   0033A4  C001  F056         	movff	?___fladd,_count1
  4007   0033A8  C002  F057         	movff	?___fladd+1,_count1+1
  4008   0033AC  C003  F058         	movff	?___fladd+2,_count1+2
  4009   0033B0  C004  F059         	movff	?___fladd+3,_count1+3
  4010   0033B4  0E02               	movlw	2
  4011   0033B6  0100               	movlb	0	; () banked
  4012   0033B8  6F93               	movwf	(??_main+1)& (0+255),b
  4013   0033BA  0E45               	movlw	69
  4014   0033BC  6F92               	movwf	??_main& (0+255),b
  4015   0033BE  0EA9               	movlw	169
  4016   0033C0                     u5717:
  4017   0033C0  2EE8               	decfsz	wreg,f,c
  4018   0033C2  D7FE               	bra	u5717
  4019   0033C4  2F92               	decfsz	??_main& (0+255),f,b
  4020   0033C6  D7FC               	bra	u5717
  4021   0033C8  2F93               	decfsz	(??_main+1)& (0+255),f,b
  4022   0033CA  D7FA               	bra	u5717
  4023   0033CC  D000               	nop2	
  4024   0033CE  0EAC               	movlw	low _data
  4025   0033D0  0100               	movlb	0	; () banked
  4026   0033D2  6F8C               	movwf	sprintf@s& (0+255),b
  4027   0033D4  0EAE               	movlw	low STR_1
  4028   0033D6  6F8D               	movwf	sprintf@fmt& (0+255),b
  4029   0033D8  C056  F08E         	movff	_count1,?_sprintf+2
  4030   0033DC  C057  F08F         	movff	_count1+1,?_sprintf+3
  4031   0033E0  C058  F090         	movff	_count1+2,?_sprintf+4
  4032   0033E4  C059  F091         	movff	_count1+3,?_sprintf+5
  4033   0033E8  ECF9  F02F         	call	_sprintf	;wreg free
  4034   0033EC  0E00               	movlw	0
  4035   0033EE  6E0A               	movwf	LCD_String_xy@pos^0,c
  4036   0033F0  0E8C               	movlw	low STR_6
  4037   0033F2  6E0B               	movwf	LCD_String_xy@msg^0,c
  4038   0033F4  500B               	movf	LCD_String_xy@msg^0,w,c
  4039   0033F6  A4D8               	btfss	status,2,c
  4040   0033F8  0E20               	movlw	high __smallconst
  4041   0033FA  6E0C               	movwf	(LCD_String_xy@msg+1)^0,c
  4042   0033FC  0E01               	movlw	1
  4043   0033FE  ECBD  F02F         	call	_LCD_String_xy
  4044   003402  0E04               	movlw	4
  4045   003404  6E0A               	movwf	LCD_String_xy@pos^0,c
  4046   003406  0EAC               	movlw	low _data
  4047   003408  6E0B               	movwf	LCD_String_xy@msg^0,c
  4048   00340A  6A0C               	clrf	(LCD_String_xy@msg+1)^0,c
  4049   00340C  0E02               	movlw	2
  4050   00340E  ECBD  F02F         	call	_LCD_String_xy
  4051   003412                     l5081:
  4052   003412  B0CE               	btfsc	206,0,c	;volatile
  4053   003414  EF0E  F01A         	goto	u5251
  4054   003418  EF10  F01A         	goto	u5250
  4055   00341C                     u5251:
  4056   00341C  EF59  F01A         	goto	l5093
  4057   003420                     u5250:
  4058   003420  C056  F028         	movff	_count1,___flsub@b
  4059   003424  C057  F029         	movff	_count1+1,___flsub@b+1
  4060   003428  C058  F02A         	movff	_count1+2,___flsub@b+2
  4061   00342C  C059  F02B         	movff	_count1+3,___flsub@b+3
  4062   003430  0E00               	movlw	0
  4063   003432  6E2C               	movwf	___flsub@a^0,c
  4064   003434  0E00               	movlw	0
  4065   003436  6E2D               	movwf	(___flsub@a+1)^0,c
  4066   003438  0E80               	movlw	128
  4067   00343A  6E2E               	movwf	(___flsub@a+2)^0,c
  4068   00343C  0E3F               	movlw	63
  4069   00343E  6E2F               	movwf	(___flsub@a+3)^0,c
  4070   003440  EC58  F02F         	call	___flsub	;wreg free
  4071   003444  C028  F056         	movff	?___flsub,_count1
  4072   003448  C029  F057         	movff	?___flsub+1,_count1+1
  4073   00344C  C02A  F058         	movff	?___flsub+2,_count1+2
  4074   003450  C02B  F059         	movff	?___flsub+3,_count1+3
  4075   003454  0E02               	movlw	2
  4076   003456  0100               	movlb	0	; () banked
  4077   003458  6F93               	movwf	(??_main+1)& (0+255),b
  4078   00345A  0E45               	movlw	69
  4079   00345C  6F92               	movwf	??_main& (0+255),b
  4080   00345E  0EA9               	movlw	169
  4081   003460                     u5727:
  4082   003460  2EE8               	decfsz	wreg,f,c
  4083   003462  D7FE               	bra	u5727
  4084   003464  2F92               	decfsz	??_main& (0+255),f,b
  4085   003466  D7FC               	bra	u5727
  4086   003468  2F93               	decfsz	(??_main+1)& (0+255),f,b
  4087   00346A  D7FA               	bra	u5727
  4088   00346C  D000               	nop2	
  4089   00346E  0EAC               	movlw	low _data
  4090   003470  0100               	movlb	0	; () banked
  4091   003472  6F8C               	movwf	sprintf@s& (0+255),b
  4092   003474  0EAE               	movlw	low STR_1
  4093   003476  6F8D               	movwf	sprintf@fmt& (0+255),b
  4094   003478  C056  F08E         	movff	_count1,?_sprintf+2
  4095   00347C  C057  F08F         	movff	_count1+1,?_sprintf+3
  4096   003480  C058  F090         	movff	_count1+2,?_sprintf+4
  4097   003484  C059  F091         	movff	_count1+3,?_sprintf+5
  4098   003488  ECF9  F02F         	call	_sprintf	;wreg free
  4099   00348C  0E00               	movlw	0
  4100   00348E  6E0A               	movwf	LCD_String_xy@pos^0,c
  4101   003490  0E8C               	movlw	low STR_6
  4102   003492  6E0B               	movwf	LCD_String_xy@msg^0,c
  4103   003494  500B               	movf	LCD_String_xy@msg^0,w,c
  4104   003496  A4D8               	btfss	status,2,c
  4105   003498  0E20               	movlw	high __smallconst
  4106   00349A  6E0C               	movwf	(LCD_String_xy@msg+1)^0,c
  4107   00349C  0E01               	movlw	1
  4108   00349E  ECBD  F02F         	call	_LCD_String_xy
  4109   0034A2  0E04               	movlw	4
  4110   0034A4  6E0A               	movwf	LCD_String_xy@pos^0,c
  4111   0034A6  0EAC               	movlw	low _data
  4112   0034A8  6E0B               	movwf	LCD_String_xy@msg^0,c
  4113   0034AA  6A0C               	clrf	(LCD_String_xy@msg+1)^0,c
  4114   0034AC  0E02               	movlw	2
  4115   0034AE  ECBD  F02F         	call	_LCD_String_xy
  4116   0034B2                     l5093:
  4117   0034B2  BCCD               	btfsc	205,6,c	;volatile
  4118   0034B4  EF5E  F01A         	goto	u5261
  4119   0034B8  EF60  F01A         	goto	u5260
  4120   0034BC                     u5261:
  4121   0034BC  EFB9  F019         	goto	l169
  4122   0034C0                     u5260:
  4123   0034C0  C05A  F001         	movff	_num,___xxtofl@val
  4124   0034C4  C05B  F002         	movff	_num+1,___xxtofl@val+1
  4125   0034C8  0E00               	movlw	0
  4126   0034CA  BE02               	btfsc	(___xxtofl@val+1)^0,7,c
  4127   0034CC  0EFF               	movlw	-1
  4128   0034CE  6E03               	movwf	(___xxtofl@val+2)^0,c
  4129   0034D0  6E04               	movwf	(___xxtofl@val+3)^0,c
  4130   0034D2  0E01               	movlw	1
  4131   0034D4  ECBF  F028         	call	___xxtofl
  4132   0034D8  C001  F00F         	movff	?___xxtofl,___fleq@ff1
  4133   0034DC  C002  F010         	movff	?___xxtofl+1,___fleq@ff1+1
  4134   0034E0  C003  F011         	movff	?___xxtofl+2,___fleq@ff1+2
  4135   0034E4  C004  F012         	movff	?___xxtofl+3,___fleq@ff1+3
  4136   0034E8  C056  F013         	movff	_count1,___fleq@ff2
  4137   0034EC  C057  F014         	movff	_count1+1,___fleq@ff2+1
  4138   0034F0  C058  F015         	movff	_count1+2,___fleq@ff2+2
  4139   0034F4  C059  F016         	movff	_count1+3,___fleq@ff2+3
  4140   0034F8  EC44  F02D         	call	___fleq	;wreg free
  4141   0034FC  A0D8               	btfss	status,0,c
  4142   0034FE  EF83  F01A         	goto	u5271
  4143   003502  EF85  F01A         	goto	u5270
  4144   003506                     u5271:
  4145   003506  EFF2  F01A         	goto	l5117
  4146   00350A                     u5270:
  4147   00350A  C05A  F001         	movff	_num,___xxtofl@val
  4148   00350E  C05B  F002         	movff	_num+1,___xxtofl@val+1
  4149   003512  0E00               	movlw	0
  4150   003514  BE02               	btfsc	(___xxtofl@val+1)^0,7,c
  4151   003516  0EFF               	movlw	-1
  4152   003518  6E03               	movwf	(___xxtofl@val+2)^0,c
  4153   00351A  6E04               	movwf	(___xxtofl@val+3)^0,c
  4154   00351C  0E01               	movlw	1
  4155   00351E  ECBF  F028         	call	___xxtofl
  4156   003522  C001  F00F         	movff	?___xxtofl,___fleq@ff1
  4157   003526  C002  F010         	movff	?___xxtofl+1,___fleq@ff1+1
  4158   00352A  C003  F011         	movff	?___xxtofl+2,___fleq@ff1+2
  4159   00352E  C004  F012         	movff	?___xxtofl+3,___fleq@ff1+3
  4160   003532  C056  F013         	movff	_count1,___fleq@ff2
  4161   003536  C057  F014         	movff	_count1+1,___fleq@ff2+1
  4162   00353A  C058  F015         	movff	_count1+2,___fleq@ff2+2
  4163   00353E  C059  F016         	movff	_count1+3,___fleq@ff2+3
  4164   003542  EC44  F02D         	call	___fleq	;wreg free
  4165   003546  A0D8               	btfss	status,0,c
  4166   003548  EFA8  F01A         	goto	u5281
  4167   00354C  EFAA  F01A         	goto	u5280
  4168   003550                     u5281:
  4169   003550  EFCE  F01A         	goto	l5107
  4170   003554                     u5280:
  4171   003554  EC90  F030         	call	_LCD_Clear	;wreg free
  4172   003558  0E00               	movlw	0
  4173   00355A  6E0A               	movwf	LCD_String_xy@pos^0,c
  4174   00355C  0E99               	movlw	low STR_12
  4175   00355E  6E0B               	movwf	LCD_String_xy@msg^0,c
  4176   003560  500B               	movf	LCD_String_xy@msg^0,w,c
  4177   003562  A4D8               	btfss	status,2,c
  4178   003564  0E20               	movlw	high __smallconst
  4179   003566  6E0C               	movwf	(LCD_String_xy@msg+1)^0,c
  4180   003568  0E01               	movlw	1
  4181   00356A  ECBD  F02F         	call	_LCD_String_xy
  4182   00356E  0E1A               	movlw	26
  4183   003570  0100               	movlb	0	; () banked
  4184   003572  6F93               	movwf	(??_main+1)& (0+255),b
  4185   003574  0E5E               	movlw	94
  4186   003576  6F92               	movwf	??_main& (0+255),b
  4187   003578  0E6E               	movlw	110
  4188   00357A                     u5737:
  4189   00357A  2EE8               	decfsz	wreg,f,c
  4190   00357C  D7FE               	bra	u5737
  4191   00357E  2F92               	decfsz	??_main& (0+255),f,b
  4192   003580  D7FC               	bra	u5737
  4193   003582  2F93               	decfsz	(??_main+1)& (0+255),f,b
  4194   003584  D7FA               	bra	u5737
  4195   003586  0000               	nop	
  4196   003588  0E00               	movlw	0
  4197   00358A  6E56               	movwf	_count1^0,c
  4198   00358C  0E00               	movlw	0
  4199   00358E  6E57               	movwf	(_count1+1)^0,c
  4200   003590  0E00               	movlw	0
  4201   003592  6E58               	movwf	(_count1+2)^0,c
  4202   003594  0E00               	movlw	0
  4203   003596  6E59               	movwf	(_count1+3)^0,c
  4204   003598  EF60  F010         	goto	l117
  4205   00359C                     l5107:
  4206   00359C  EC90  F030         	call	_LCD_Clear	;wreg free
  4207   0035A0  0E00               	movlw	0
  4208   0035A2  6E0A               	movwf	LCD_String_xy@pos^0,c
  4209   0035A4  0E99               	movlw	low STR_12
  4210   0035A6  6E0B               	movwf	LCD_String_xy@msg^0,c
  4211   0035A8  500B               	movf	LCD_String_xy@msg^0,w,c
  4212   0035AA  A4D8               	btfss	status,2,c
  4213   0035AC  0E20               	movlw	high __smallconst
  4214   0035AE  6E0C               	movwf	(LCD_String_xy@msg+1)^0,c
  4215   0035B0  0E01               	movlw	1
  4216   0035B2  ECBD  F02F         	call	_LCD_String_xy
  4217   0035B6  0E1A               	movlw	26
  4218   0035B8  0100               	movlb	0	; () banked
  4219   0035BA  6F93               	movwf	(??_main+1)& (0+255),b
  4220   0035BC  0E5E               	movlw	94
  4221   0035BE  6F92               	movwf	??_main& (0+255),b
  4222   0035C0  0E6E               	movlw	110
  4223   0035C2                     u5747:
  4224   0035C2  2EE8               	decfsz	wreg,f,c
  4225   0035C4  D7FE               	bra	u5747
  4226   0035C6  2F92               	decfsz	??_main& (0+255),f,b
  4227   0035C8  D7FC               	bra	u5747
  4228   0035CA  2F93               	decfsz	(??_main+1)& (0+255),f,b
  4229   0035CC  D7FA               	bra	u5747
  4230   0035CE  0000               	nop	
  4231   0035D0  0E00               	movlw	0
  4232   0035D2  6E56               	movwf	_count1^0,c
  4233   0035D4  0E00               	movlw	0
  4234   0035D6  6E57               	movwf	(_count1+1)^0,c
  4235   0035D8  0E00               	movlw	0
  4236   0035DA  6E58               	movwf	(_count1+2)^0,c
  4237   0035DC  0E00               	movlw	0
  4238   0035DE  6E59               	movwf	(_count1+3)^0,c
  4239   0035E0  EF60  F010         	goto	l117
  4240   0035E4                     l5117:
  4241   0035E4  EC90  F030         	call	_LCD_Clear	;wreg free
  4242   0035E8  0E00               	movlw	0
  4243   0035EA  6E0A               	movwf	LCD_String_xy@pos^0,c
  4244   0035EC  0E72               	movlw	low STR_13
  4245   0035EE  6E0B               	movwf	LCD_String_xy@msg^0,c
  4246   0035F0  500B               	movf	LCD_String_xy@msg^0,w,c
  4247   0035F2  A4D8               	btfss	status,2,c
  4248   0035F4  0E20               	movlw	high __smallconst
  4249   0035F6  6E0C               	movwf	(LCD_String_xy@msg+1)^0,c
  4250   0035F8  0E01               	movlw	1
  4251   0035FA  ECBD  F02F         	call	_LCD_String_xy
  4252   0035FE  0E1A               	movlw	26
  4253   003600  0100               	movlb	0	; () banked
  4254   003602  6F93               	movwf	(??_main+1)& (0+255),b
  4255   003604  0E5E               	movlw	94
  4256   003606  6F92               	movwf	??_main& (0+255),b
  4257   003608  0E6E               	movlw	110
  4258   00360A                     u5757:
  4259   00360A  2EE8               	decfsz	wreg,f,c
  4260   00360C  D7FE               	bra	u5757
  4261   00360E  2F92               	decfsz	??_main& (0+255),f,b
  4262   003610  D7FC               	bra	u5757
  4263   003612  2F93               	decfsz	(??_main+1)& (0+255),f,b
  4264   003614  D7FA               	bra	u5757
  4265   003616  0000               	nop	
  4266   003618  0E00               	movlw	0
  4267   00361A  6E56               	movwf	_count1^0,c
  4268   00361C  0E00               	movlw	0
  4269   00361E  6E57               	movwf	(_count1+1)^0,c
  4270   003620  0E00               	movlw	0
  4271   003622  6E58               	movwf	(_count1+2)^0,c
  4272   003624  0E00               	movlw	0
  4273   003626  6E59               	movwf	(_count1+3)^0,c
  4274   003628  EF60  F010         	goto	l117
  4275   00362C  EFFE  F0FF         	goto	start
  4276   003630                     __end_of_main:
  4277                           	callstack 0
  4278                           
  4279 ;; *************** function _strcat *****************
  4280 ;; Defined at:
  4281 ;;		line 3 in file "C:\Program Files\Microchip\xc8\v3.00\pic\sources\c99\common\strcat.c"
  4282 ;; Parameters:    Size  Location     Type
  4283 ;;  dest            1    0[COMRAM] PTR unsigned char 
  4284 ;;		 -> data(10), 
  4285 ;;  src             1    1[COMRAM] PTR const unsigned char 
  4286 ;;		 -> STR_40(3), 
  4287 ;; Auto vars:     Size  Location     Type
  4288 ;;  i               2    2[COMRAM] unsigned int 
  4289 ;; Return value:  Size  Location     Type
  4290 ;;                  1    0[COMRAM] PTR unsigned char 
  4291 ;; Registers used:
  4292 ;;		wreg, fsr2l, fsr2h, status,2, status,0, tblptrl, tblptrh, tblptru
  4293 ;; Tracked objects:
  4294 ;;		On entry : 0/0
  4295 ;;		On exit  : 0/0
  4296 ;;		Unchanged: 0/0
  4297 ;; Data sizes:     COMRAM   BANK0   BANK1   BANK2   BANK3   BANK4   BANK5   BANK6   BANK7   BANK8   BANK9  BANK10  BANK1
      +1  BANK12  BANK13  BANK14  BANK15  BANK16  BANK17  BANK18  BANK19  BANK20  BANK21  BANK22  BANK23  BANK24  BANK25  BANK2
      +6  BANK27  BANK28  BANK29  BANK30  BANK31
  4298 ;;      Params:         2       0       0       0       0       0       0       0       0       0       0       0       
      +0       0       0       0       0       0       0       0       0       0       0       0       0       0       0       
      +0       0       0       0       0       0
  4299 ;;      Locals:         2       0       0       0       0       0       0       0       0       0       0       0       
      +0       0       0       0       0       0       0       0       0       0       0       0       0       0       0       
      +0       0       0       0       0       0
  4300 ;;      Temps:          0       0       0       0       0       0       0       0       0       0       0       0       
      +0       0       0       0       0       0       0       0       0       0       0       0       0       0       0       
      +0       0       0       0       0       0
  4301 ;;      Totals:         4       0       0       0       0       0       0       0       0       0       0       0       
      +0       0       0       0       0       0       0       0       0       0       0       0       0       0       0       
      +0       0       0       0       0       0
  4302 ;;Total ram usage:        4 bytes
  4303 ;; Hardware stack levels used: 1
  4304 ;; This function calls:
  4305 ;;		Nothing
  4306 ;; This function is called by:
  4307 ;;		_main
  4308 ;; This function uses a non-reentrant model
  4309 ;;
  4310                           
  4311                           	psect	text1
  4312   005D0E                     __ptext1:
  4313                           	callstack 0
  4314   005D0E                     _strcat:
  4315                           	callstack 30
  4316   005D0E  0E00               	movlw	0
  4317   005D10  6E04               	movwf	(strcat@i+1)^0,c
  4318   005D12  0E00               	movlw	0
  4319   005D14  6E03               	movwf	strcat@i^0,c
  4320   005D16  EF8F  F02E         	goto	l4133
  4321   005D1A                     l4131:
  4322   005D1A  4A03               	infsnz	strcat@i^0,f,c
  4323   005D1C  2A04               	incf	(strcat@i+1)^0,f,c
  4324   005D1E                     l4133:
  4325   005D1E  5001               	movf	strcat@dest^0,w,c
  4326   005D20  2403               	addwf	strcat@i^0,w,c
  4327   005D22  6ED9               	movwf	fsr2l,c
  4328   005D24  6ADA               	clrf	fsr2h,c
  4329   005D26  50DF               	movf	indf2,w,c
  4330   005D28  A4D8               	btfss	status,2,c
  4331   005D2A  EF99  F02E         	goto	u4451
  4332   005D2E  EF9B  F02E         	goto	u4450
  4333   005D32                     u4451:
  4334   005D32  EF8D  F02E         	goto	l4131
  4335   005D36                     u4450:
  4336   005D36  EFA0  F02E         	goto	l4137
  4337   005D3A                     l4135:
  4338   005D3A  4A03               	infsnz	strcat@i^0,f,c
  4339   005D3C  2A04               	incf	(strcat@i+1)^0,f,c
  4340   005D3E  2A02               	incf	strcat@src^0,f,c
  4341   005D40                     l4137:
  4342   005D40  0060  F00B  FFF6   	movff	strcat@src,tblptrl
  4343   005D46                     	if	1	;There is more than 1 active tblptr byte
  4344   005D46  0E20               	movlw	high __smallconst
  4345   005D48  6EF7               	movwf	tblptrh,c
  4346   005D4A                     	endif
  4347   005D4A                     	if	0	;tblptru may be non-zero
  4348   005D4A                     	endif
  4349   005D4A                     	if	1	;Program memory is > 0xFFFF, there are 3 active tblptr bytes
  4350   005D4A  0E00               	movlw	low (__smallconst shr (0+16))
  4351   005D4C  6EF8               	movwf	tblptru,c
  4352   005D4E                     	endif
  4353   005D4E  5001               	movf	strcat@dest^0,w,c
  4354   005D50  2403               	addwf	strcat@i^0,w,c
  4355   005D52  6ED9               	movwf	fsr2l,c
  4356   005D54  6ADA               	clrf	fsr2h,c
  4357   005D56  0008               	tblrd		*
  4358   005D58  006F FFD7 FFDF     	movff	tablat,indf2
  4359   005D5E  50DF               	movf	indf2,w,c
  4360   005D60  A4D8               	btfss	status,2,c
  4361   005D62  EFB5  F02E         	goto	u4461
  4362   005D66  EFB7  F02E         	goto	u4460
  4363   005D6A                     u4461:
  4364   005D6A  EF9D  F02E         	goto	l4135
  4365   005D6E                     u4460:
  4366   005D6E  0012               	return		;funcret
  4367   005D70                     __end_of_strcat:
  4368                           	callstack 0
  4369                           
  4370 ;; *************** function _sprintf *****************
  4371 ;; Defined at:
  4372 ;;		line 9 in file "C:\Program Files\Microchip\xc8\v3.00\pic\sources\c99\common\nf_sprintf.c"
  4373 ;; Parameters:    Size  Location     Type
  4374 ;;  s               1   44[BANK0 ] PTR unsigned char 
  4375 ;;		 -> data(10), 
  4376 ;;  fmt             1   45[BANK0 ] PTR const unsigned char 
  4377 ;;		 -> STR_61(5), STR_59(5), STR_53(5), STR_51(5), 
  4378 ;;		 -> STR_45(5), STR_43(5), STR_38(6), STR_32(5), 
  4379 ;;		 -> STR_30(5), STR_21(5), STR_19(5), STR_10(5), 
  4380 ;;		 -> STR_8(5), STR_1(5), 
  4381 ;; Auto vars:     Size  Location     Type
  4382 ;;  f              11   74[COMRAM] struct _IO_FILE
  4383 ;;  ret             2    0        int 
  4384 ;;  ap              1   73[COMRAM] PTR void [1]
  4385 ;;		 -> ?_sprintf(2), 
  4386 ;; Return value:  Size  Location     Type
  4387 ;;                  2   44[BANK0 ] int 
  4388 ;; Registers used:
  4389 ;;		wreg, fsr1l, fsr1h, fsr2l, fsr2h, status,2, status,0, tblptrl, tblptrh, tblptru, prodl, prodh, cstack
  4390 ;; Tracked objects:
  4391 ;;		On entry : 0/0
  4392 ;;		On exit  : 0/0
  4393 ;;		Unchanged: 0/0
  4394 ;; Data sizes:     COMRAM   BANK0   BANK1   BANK2   BANK3   BANK4   BANK5   BANK6   BANK7   BANK8   BANK9  BANK10  BANK1
      +1  BANK12  BANK13  BANK14  BANK15  BANK16  BANK17  BANK18  BANK19  BANK20  BANK21  BANK22  BANK23  BANK24  BANK25  BANK2
      +6  BANK27  BANK28  BANK29  BANK30  BANK31
  4395 ;;      Params:         0       6       0       0       0       0       0       0       0       0       0       0       
      +0       0       0       0       0       0       0       0       0       0       0       0       0       0       0       
      +0       0       0       0       0       0
  4396 ;;      Locals:        12       0       0       0       0       0       0       0       0       0       0       0       
      +0       0       0       0       0       0       0       0       0       0       0       0       0       0       0       
      +0       0       0       0       0       0
  4397 ;;      Temps:          0       0       0       0       0       0       0       0       0       0       0       0       
      +0       0       0       0       0       0       0       0       0       0       0       0       0       0       0       
      +0       0       0       0       0       0
  4398 ;;      Totals:        12       6       0       0       0       0       0       0       0       0       0       0       
      +0       0       0       0       0       0       0       0       0       0       0       0       0       0       0       
      +0       0       0       0       0       0
  4399 ;;Total ram usage:       18 bytes
  4400 ;; Hardware stack levels used: 1
  4401 ;; Hardware stack levels required when called: 7
  4402 ;; This function calls:
  4403 ;;		_vfprintf
  4404 ;; This function is called by:
  4405 ;;		_main
  4406 ;; This function uses a non-reentrant model
  4407 ;;
  4408                           
  4409                           	psect	text2
  4410   005FF2                     __ptext2:
  4411                           	callstack 0
  4412   005FF2                     _sprintf:
  4413                           	callstack 23
  4414   005FF2  0E8E               	movlw	low (?_sprintf+2)
  4415   005FF4  6E4A               	movwf	sprintf@ap^0,c
  4416   005FF6  C08C  F04B         	movff	sprintf@s,sprintf@f
  4417   005FFA  0E00               	movlw	0
  4418   005FFC  6E4E               	movwf	(sprintf@f+3)^0,c
  4419   005FFE  0E00               	movlw	0
  4420   006000  6E4D               	movwf	(sprintf@f+2)^0,c
  4421   006002  0E00               	movlw	0
  4422   006004  6E55               	movwf	(sprintf@f+10)^0,c
  4423   006006  0E00               	movlw	0
  4424   006008  6E54               	movwf	(sprintf@f+9)^0,c
  4425   00600A  0E4B               	movlw	low sprintf@f
  4426   00600C  6E46               	movwf	vfprintf@fp^0,c
  4427   00600E  C08D  F047         	movff	sprintf@fmt,vfprintf@fmt
  4428   006012  0E4A               	movlw	low sprintf@ap
  4429   006014  6E48               	movwf	vfprintf@ap^0,c
  4430   006016  EC7B  F02F         	call	_vfprintf	;wreg free
  4431   00601A  0100               	movlb	0	; () banked
  4432   00601C  518C               	movf	sprintf@s& (0+255),w,b
  4433   00601E  244D               	addwf	(sprintf@f+2)^0,w,c
  4434   006020  6ED9               	movwf	fsr2l,c
  4435   006022  6ADA               	clrf	fsr2h,c
  4436   006024  6ADF               	clrf	indf2,c
  4437   006026                     
  4438                           ; BSR set to: 0
  4439   006026  0012               	return		;funcret
  4440   006028                     __end_of_sprintf:
  4441                           	callstack 0
  4442                           
  4443 ;; *************** function _vfprintf *****************
  4444 ;; Defined at:
  4445 ;;		line 1817 in file "C:\Program Files\Microchip\xc8\v3.00\pic\sources\c99\common\doprnt.c"
  4446 ;; Parameters:    Size  Location     Type
  4447 ;;  fp              1   69[COMRAM] PTR struct _IO_FILE
  4448 ;;		 -> sprintf@f(11), 
  4449 ;;  fmt             1   70[COMRAM] PTR const unsigned char 
  4450 ;;		 -> STR_61(5), STR_59(5), STR_53(5), STR_51(5), 
  4451 ;;		 -> STR_45(5), STR_43(5), STR_38(6), STR_32(5), 
  4452 ;;		 -> STR_30(5), STR_21(5), STR_19(5), STR_10(5), 
  4453 ;;		 -> STR_8(5), STR_1(5), 
  4454 ;;  ap              1   71[COMRAM] PTR PTR void 
  4455 ;;		 -> sprintf@ap(1), 
  4456 ;; Auto vars:     Size  Location     Type
  4457 ;;  cfmt            1   72[COMRAM] PTR unsigned char 
  4458 ;;		 -> STR_61(5), STR_59(5), STR_53(5), STR_51(5), 
  4459 ;;		 -> STR_45(5), STR_43(5), STR_38(6), STR_32(5), 
  4460 ;;		 -> STR_30(5), STR_21(5), STR_19(5), STR_10(5), 
  4461 ;;		 -> STR_8(5), STR_1(5), 
  4462 ;; Return value:  Size  Location     Type
  4463 ;;                  2   69[COMRAM] int 
  4464 ;; Registers used:
  4465 ;;		wreg, fsr1l, fsr1h, fsr2l, fsr2h, status,2, status,0, tblptrl, tblptrh, tblptru, prodl, prodh, cstack
  4466 ;; Tracked objects:
  4467 ;;		On entry : 0/0
  4468 ;;		On exit  : 0/0
  4469 ;;		Unchanged: 0/0
  4470 ;; Data sizes:     COMRAM   BANK0   BANK1   BANK2   BANK3   BANK4   BANK5   BANK6   BANK7   BANK8   BANK9  BANK10  BANK1
      +1  BANK12  BANK13  BANK14  BANK15  BANK16  BANK17  BANK18  BANK19  BANK20  BANK21  BANK22  BANK23  BANK24  BANK25  BANK2
      +6  BANK27  BANK28  BANK29  BANK30  BANK31
  4471 ;;      Params:         3       0       0       0       0       0       0       0       0       0       0       0       
      +0       0       0       0       0       0       0       0       0       0       0       0       0       0       0       
      +0       0       0       0       0       0
  4472 ;;      Locals:         1       0       0       0       0       0       0       0       0       0       0       0       
      +0       0       0       0       0       0       0       0       0       0       0       0       0       0       0       
      +0       0       0       0       0       0
  4473 ;;      Temps:          0       0       0       0       0       0       0       0       0       0       0       0       
      +0       0       0       0       0       0       0       0       0       0       0       0       0       0       0       
      +0       0       0       0       0       0
  4474 ;;      Totals:         4       0       0       0       0       0       0       0       0       0       0       0       
      +0       0       0       0       0       0       0       0       0       0       0       0       0       0       0       
      +0       0       0       0       0       0
  4475 ;;Total ram usage:        4 bytes
  4476 ;; Hardware stack levels used: 1
  4477 ;; Hardware stack levels required when called: 6
  4478 ;; This function calls:
  4479 ;;		_vfpfcnvrt
  4480 ;; This function is called by:
  4481 ;;		_sprintf
  4482 ;; This function uses a non-reentrant model
  4483 ;;
  4484                           
  4485                           	psect	text3
  4486   005EF6                     __ptext3:
  4487                           	callstack 0
  4488   005EF6                     _vfprintf:
  4489                           	callstack 23
  4490   005EF6                     
  4491                           ;C:\Program Files\Microchip\xc8\v3.00\pic\sources\c99\common\doprnt.c: 1817: int vfprint
      +                          f(FILE *fp, const char *fmt, va_list ap);C:\Program Files\Microchip\xc8\v3.00\pic\source
      +                          s\c99\common\doprnt.c: 1818: {;C:\Program Files\Microchip\xc8\v3.00\pic\sources\c99\comm
      +                          on\doprnt.c: 1820:     char *cfmt;;C:\Program Files\Microchip\xc8\v3.00\pic\sources\c99\
      +                          common\doprnt.c: 1822:     cfmt = (char *)fmt;
  4492   005EF6  C047  F049         	movff	vfprintf@fmt,vfprintf@cfmt
  4493                           
  4494                           ;C:\Program Files\Microchip\xc8\v3.00\pic\sources\c99\common\doprnt.c: 1826:     while (
      +                          *cfmt) {
  4495   005EFA  EF87  F02F         	goto	l4041
  4496   005EFE                     l4039:
  4497                           
  4498                           ;C:\Program Files\Microchip\xc8\v3.00\pic\sources\c99\common\doprnt.c: 1830:    vfpfcnvr
      +                          t(fp, &cfmt, ap);
  4499   005EFE  C046  F03C         	movff	vfprintf@fp,vfpfcnvrt@fp
  4500   005F02  0E49               	movlw	low vfprintf@cfmt
  4501   005F04  6E3D               	movwf	vfpfcnvrt@fmt^0,c
  4502   005F06  C048  F03E         	movff	vfprintf@ap,vfpfcnvrt@ap
  4503   005F0A  EC53  F026         	call	_vfpfcnvrt	;wreg free
  4504   005F0E                     l4041:
  4505                           
  4506                           ;C:\Program Files\Microchip\xc8\v3.00\pic\sources\c99\common\doprnt.c: 1826:     while (
      +                          *cfmt) {
  4507   005F0E  0060  F127  FFF6   	movff	vfprintf@cfmt,tblptrl
  4508   005F14                     	if	1	;There is more than 1 active tblptr byte
  4509   005F14  0E20               	movlw	high __smallconst
  4510   005F16  6EF7               	movwf	tblptrh,c
  4511   005F18                     	endif
  4512   005F18                     	if	0	;tblptru may be non-zero
  4513   005F18                     	endif
  4514   005F18                     	if	1	;Program memory is > 0xFFFF, there are 3 active tblptr bytes
  4515   005F18  0E00               	movlw	low (__smallconst shr (0+16))
  4516   005F1A  6EF8               	movwf	tblptru,c
  4517   005F1C                     	endif
  4518   005F1C  0008               	tblrd		*
  4519   005F1E  50F5               	movf	tablat,w,c
  4520   005F20  0900               	iorlw	0
  4521   005F22  A4D8               	btfss	status,2,c
  4522   005F24  EF96  F02F         	goto	u4421
  4523   005F28  EF98  F02F         	goto	u4420
  4524   005F2C                     u4421:
  4525   005F2C  EF7F  F02F         	goto	l4039
  4526   005F30                     u4420:
  4527   005F30                     
  4528                           ;C:\Program Files\Microchip\xc8\v3.00\pic\sources\c99\common\doprnt.c: 1835:  return 0;
  4529   005F30  0E00               	movlw	0
  4530   005F32  6E47               	movwf	(?_vfprintf+1)^0,c
  4531   005F34  0E00               	movlw	0
  4532   005F36  6E46               	movwf	?_vfprintf^0,c
  4533   005F38  0012               	return		;funcret
  4534   005F3A                     __end_of_vfprintf:
  4535                           	callstack 0
  4536                           
  4537 ;; *************** function _vfpfcnvrt *****************
  4538 ;; Defined at:
  4539 ;;		line 1177 in file "C:\Program Files\Microchip\xc8\v3.00\pic\sources\c99\common\doprnt.c"
  4540 ;; Parameters:    Size  Location     Type
  4541 ;;  fp              1   59[COMRAM] PTR struct _IO_FILE
  4542 ;;		 -> sprintf@f(11), 
  4543 ;;  fmt             1   60[COMRAM] PTR PTR unsigned char 
  4544 ;;		 -> vfprintf@cfmt(1), 
  4545 ;;  ap              1   61[COMRAM] PTR PTR void 
  4546 ;;		 -> sprintf@ap(1), 
  4547 ;; Auto vars:     Size  Location     Type
  4548 ;;  convarg         4   63[COMRAM] struct .
  4549 ;;  cp              1   68[COMRAM] PTR unsigned char 
  4550 ;;		 -> STR_61(5), STR_59(5), STR_53(5), STR_51(5), 
  4551 ;;		 -> STR_45(5), STR_43(5), STR_38(6), STR_32(5), 
  4552 ;;		 -> STR_30(5), STR_21(5), STR_19(5), STR_10(5), 
  4553 ;;		 -> STR_8(5), STR_1(5), 
  4554 ;;  c               1   67[COMRAM] unsigned char 
  4555 ;;  done            1    0        _Bool 
  4556 ;; Return value:  Size  Location     Type
  4557 ;;                  1    wreg      void 
  4558 ;; Registers used:
  4559 ;;		wreg, fsr1l, fsr1h, fsr2l, fsr2h, status,2, status,0, tblptrl, tblptrh, tblptru, prodl, prodh, cstack
  4560 ;; Tracked objects:
  4561 ;;		On entry : 0/0
  4562 ;;		On exit  : 0/0
  4563 ;;		Unchanged: 0/0
  4564 ;; Data sizes:     COMRAM   BANK0   BANK1   BANK2   BANK3   BANK4   BANK5   BANK6   BANK7   BANK8   BANK9  BANK10  BANK1
      +1  BANK12  BANK13  BANK14  BANK15  BANK16  BANK17  BANK18  BANK19  BANK20  BANK21  BANK22  BANK23  BANK24  BANK25  BANK2
      +6  BANK27  BANK28  BANK29  BANK30  BANK31
  4565 ;;      Params:         3       0       0       0       0       0       0       0       0       0       0       0       
      +0       0       0       0       0       0       0       0       0       0       0       0       0       0       0       
      +0       0       0       0       0       0
  4566 ;;      Locals:         6       0       0       0       0       0       0       0       0       0       0       0       
      +0       0       0       0       0       0       0       0       0       0       0       0       0       0       0       
      +0       0       0       0       0       0
  4567 ;;      Temps:          1       0       0       0       0       0       0       0       0       0       0       0       
      +0       0       0       0       0       0       0       0       0       0       0       0       0       0       0       
      +0       0       0       0       0       0
  4568 ;;      Totals:        10       0       0       0       0       0       0       0       0       0       0       0       
      +0       0       0       0       0       0       0       0       0       0       0       0       0       0       0       
      +0       0       0       0       0       0
  4569 ;;Total ram usage:       10 bytes
  4570 ;; Hardware stack levels used: 1
  4571 ;; Hardware stack levels required when called: 5
  4572 ;; This function calls:
  4573 ;;		_dtoa
  4574 ;;		_efgtoa
  4575 ;;		_fputc
  4576 ;;		_read_prec_or_width
  4577 ;; This function is called by:
  4578 ;;		_vfprintf
  4579 ;; This function uses a non-reentrant model
  4580 ;;
  4581                           
  4582                           	psect	text4
  4583   004CA6                     __ptext4:
  4584                           	callstack 0
  4585   004CA6                     _vfpfcnvrt:
  4586                           	callstack 23
  4587   004CA6                     
  4588                           ;C:\Program Files\Microchip\xc8\v3.00\pic\sources\c99\common\doprnt.c: 1177: vfpfcnvrt(F
      +                          ILE *fp, char *fmt[], va_list ap);C:\Program Files\Microchip\xc8\v3.00\pic\sources\c99\c
      +                          ommon\doprnt.c: 1178: {;C:\Program Files\Microchip\xc8\v3.00\pic\sources\c99\common\dopr
      +                          nt.c: 1179:     char c, *cp;;C:\Program Files\Microchip\xc8\v3.00\pic\sources\c99\common
      +                          \doprnt.c: 1180:     _Bool done;;C:\Program Files\Microchip\xc8\v3.00\pic\sources\c99\co
      +                          mmon\doprnt.c: 1188:  } convarg;;C:\Program Files\Microchip\xc8\v3.00\pic\sources\c99\co
      +                          mmon\doprnt.c: 1201:     if ((*fmt)[0] == '%') {
  4589   004CA6  503D               	movf	vfpfcnvrt@fmt^0,w,c
  4590   004CA8  6ED9               	movwf	fsr2l,c
  4591   004CAA  6ADA               	clrf	fsr2h,c
  4592   004CAC  006F FF7F FFF6     	movff	indf2,tblptrl
  4593   004CB2                     	if	1	;There is more than 1 active tblptr byte
  4594   004CB2  0E20               	movlw	high __smallconst
  4595   004CB4  6EF7               	movwf	tblptrh,c
  4596   004CB6                     	endif
  4597   004CB6                     	if	0	;tblptru may be non-zero
  4598   004CB6                     	endif
  4599   004CB6                     	if	1	;Program memory is > 0xFFFF, there are 3 active tblptr bytes
  4600   004CB6  0E00               	movlw	low (__smallconst shr (0+16))
  4601   004CB8  6EF8               	movwf	tblptru,c
  4602   004CBA                     	endif
  4603   004CBA  0008               	tblrd		*
  4604   004CBC  50F5               	movf	tablat,w,c
  4605   004CBE  0A25               	xorlw	37
  4606   004CC0  A4D8               	btfss	status,2,c
  4607   004CC2  EF65  F026         	goto	u4311
  4608   004CC6  EF67  F026         	goto	u4310
  4609   004CCA                     u4311:
  4610   004CCA  EFA1  F027         	goto	l4001
  4611   004CCE                     u4310:
  4612   004CCE                     
  4613                           ;C:\Program Files\Microchip\xc8\v3.00\pic\sources\c99\common\doprnt.c: 1202:         ++*
      +                          fmt;
  4614   004CCE  503D               	movf	vfpfcnvrt@fmt^0,w,c
  4615   004CD0  6ED9               	movwf	fsr2l,c
  4616   004CD2  6ADA               	clrf	fsr2h,c
  4617   004CD4  2ADF               	incf	indf2,f,c
  4618   004CD6                     
  4619                           ;C:\Program Files\Microchip\xc8\v3.00\pic\sources\c99\common\doprnt.c: 1204:         fla
      +                          gs = width = 0;
  4620   004CD6  0E00               	movlw	0
  4621   004CD8  0100               	movlb	0	; () banked
  4622   004CDA  6FA5               	movwf	(_width+1)& (0+255),b
  4623   004CDC  0E00               	movlw	0
  4624   004CDE  6FA4               	movwf	_width& (0+255),b
  4625   004CE0  C0A4  F05E         	movff	_width,_flags
  4626   004CE4                     
  4627                           ; BSR set to: 0
  4628                           ;C:\Program Files\Microchip\xc8\v3.00\pic\sources\c99\common\doprnt.c: 1205:         pre
      +                          c = -1;
  4629   004CE4  69A6               	setf	_prec& (0+255),b
  4630   004CE6  69A7               	setf	(_prec+1)& (0+255),b
  4631   004CE8                     
  4632                           ; BSR set to: 0
  4633                           ;C:\Program Files\Microchip\xc8\v3.00\pic\sources\c99\common\doprnt.c: 1256:   width = r
      +                          ead_prec_or_width(fmt, ap);
  4634   004CE8  C03D  F001         	movff	vfpfcnvrt@fmt,read_prec_or_width@fmt
  4635   004CEC  C03E  F002         	movff	vfpfcnvrt@ap,read_prec_or_width@ap
  4636   004CF0  EC3B  F02C         	call	_read_prec_or_width	;wreg free
  4637   004CF4  C001  F0A4         	movff	?_read_prec_or_width,_width
  4638   004CF8  C002  F0A5         	movff	?_read_prec_or_width+1,_width+1
  4639   004CFC                     
  4640                           ;C:\Program Files\Microchip\xc8\v3.00\pic\sources\c99\common\doprnt.c: 1257:   if (width
      +                           < 0) {
  4641   004CFC  0100               	movlb	0	; () banked
  4642   004CFE  BFA5               	btfsc	(_width+1)& (0+255),7,b
  4643   004D00  EF86  F026         	goto	u4320
  4644   004D04  EF84  F026         	goto	u4321
  4645   004D08                     u4321:
  4646   004D08  EF8B  F026         	goto	l3945
  4647   004D0C                     u4320:
  4648   004D0C                     
  4649                           ; BSR set to: 0
  4650                           ;C:\Program Files\Microchip\xc8\v3.00\pic\sources\c99\common\doprnt.c: 1258:    flags |=
      +                           (1 << 0);
  4651   004D0C  805E               	bsf	_flags^0,0,c
  4652                           
  4653                           ;C:\Program Files\Microchip\xc8\v3.00\pic\sources\c99\common\doprnt.c: 1259:    width = 
      +                          -width;
  4654   004D0E  6DA4               	negf	_width& (0+255),b
  4655   004D10  1FA5               	comf	(_width+1)& (0+255),f,b
  4656   004D12  B0D8               	btfsc	status,0,c
  4657   004D14  2BA5               	incf	(_width+1)& (0+255),f,b
  4658   004D16                     l3945:
  4659                           
  4660                           ; BSR set to: 0
  4661                           ;C:\Program Files\Microchip\xc8\v3.00\pic\sources\c99\common\doprnt.c: 1265:         if 
      +                          ((*fmt)[0] == '.') {
  4662   004D16  503D               	movf	vfpfcnvrt@fmt^0,w,c
  4663   004D18  6ED9               	movwf	fsr2l,c
  4664   004D1A  6ADA               	clrf	fsr2h,c
  4665   004D1C  006F FF7F FFF6     	movff	indf2,tblptrl
  4666   004D22                     	if	1	;There is more than 1 active tblptr byte
  4667   004D22  0E20               	movlw	high __smallconst
  4668   004D24  6EF7               	movwf	tblptrh,c
  4669   004D26                     	endif
  4670   004D26                     	if	0	;tblptru may be non-zero
  4671   004D26                     	endif
  4672   004D26                     	if	1	;Program memory is > 0xFFFF, there are 3 active tblptr bytes
  4673   004D26  0E00               	movlw	low (__smallconst shr (0+16))
  4674   004D28  6EF8               	movwf	tblptru,c
  4675   004D2A                     	endif
  4676   004D2A  0008               	tblrd		*
  4677   004D2C  50F5               	movf	tablat,w,c
  4678   004D2E  0A2E               	xorlw	46
  4679   004D30  A4D8               	btfss	status,2,c
  4680   004D32  EF9D  F026         	goto	u4331
  4681   004D36  EF9F  F026         	goto	u4330
  4682   004D3A                     u4331:
  4683   004D3A  EFAD  F026         	goto	l3951
  4684   004D3E                     u4330:
  4685   004D3E                     
  4686                           ; BSR set to: 0
  4687                           ;C:\Program Files\Microchip\xc8\v3.00\pic\sources\c99\common\doprnt.c: 1266:            
      +                           ++*fmt;
  4688   004D3E  503D               	movf	vfpfcnvrt@fmt^0,w,c
  4689   004D40  6ED9               	movwf	fsr2l,c
  4690   004D42  6ADA               	clrf	fsr2h,c
  4691   004D44  2ADF               	incf	indf2,f,c
  4692   004D46                     
  4693                           ; BSR set to: 0
  4694                           ;C:\Program Files\Microchip\xc8\v3.00\pic\sources\c99\common\doprnt.c: 1267:    prec = r
      +                          ead_prec_or_width(fmt, ap);
  4695   004D46  C03D  F001         	movff	vfpfcnvrt@fmt,read_prec_or_width@fmt
  4696   004D4A  C03E  F002         	movff	vfpfcnvrt@ap,read_prec_or_width@ap
  4697   004D4E  EC3B  F02C         	call	_read_prec_or_width	;wreg free
  4698   004D52  C001  F0A6         	movff	?_read_prec_or_width,_prec
  4699   004D56  C002  F0A7         	movff	?_read_prec_or_width+1,_prec+1
  4700   004D5A                     l3951:
  4701                           
  4702                           ;C:\Program Files\Microchip\xc8\v3.00\pic\sources\c99\common\doprnt.c: 1291:   cp = *fmt
      +                          ;
  4703   004D5A  503D               	movf	vfpfcnvrt@fmt^0,w,c
  4704   004D5C  6ED9               	movwf	fsr2l,c
  4705   004D5E  6ADA               	clrf	fsr2h,c
  4706   004D60  50DF               	movf	indf2,w,c
  4707   004D62  6E45               	movwf	vfpfcnvrt@cp^0,c
  4708   004D64                     
  4709                           ;C:\Program Files\Microchip\xc8\v3.00\pic\sources\c99\common\doprnt.c: 1361:   if (*cp =
      +                          = 'd' || *cp == 'i') {
  4710   004D64  0060  F117  FFF6   	movff	vfpfcnvrt@cp,tblptrl
  4711   004D6A                     	if	1	;There is more than 1 active tblptr byte
  4712   004D6A  0E20               	movlw	high __smallconst
  4713   004D6C  6EF7               	movwf	tblptrh,c
  4714   004D6E                     	endif
  4715   004D6E                     	if	0	;tblptru may be non-zero
  4716   004D6E                     	endif
  4717   004D6E                     	if	1	;Program memory is > 0xFFFF, there are 3 active tblptr bytes
  4718   004D6E  0E00               	movlw	low (__smallconst shr (0+16))
  4719   004D70  6EF8               	movwf	tblptru,c
  4720   004D72                     	endif
  4721   004D72  0008               	tblrd		*
  4722   004D74  50F5               	movf	tablat,w,c
  4723   004D76  0A64               	xorlw	100
  4724   004D78  B4D8               	btfsc	status,2,c
  4725   004D7A  EFC1  F026         	goto	u4341
  4726   004D7E  EFC3  F026         	goto	u4340
  4727   004D82                     u4341:
  4728   004D82  EFD4  F026         	goto	l3957
  4729   004D86                     u4340:
  4730   004D86  0060  F117  FFF6   	movff	vfpfcnvrt@cp,tblptrl
  4731   004D8C                     	if	1	;There is more than 1 active tblptr byte
  4732   004D8C  0E20               	movlw	high __smallconst
  4733   004D8E  6EF7               	movwf	tblptrh,c
  4734   004D90                     	endif
  4735   004D90                     	if	0	;tblptru may be non-zero
  4736   004D90                     	endif
  4737   004D90                     	if	1	;Program memory is > 0xFFFF, there are 3 active tblptr bytes
  4738   004D90  0E00               	movlw	low (__smallconst shr (0+16))
  4739   004D92  6EF8               	movwf	tblptru,c
  4740   004D94                     	endif
  4741   004D94  0008               	tblrd		*
  4742   004D96  50F5               	movf	tablat,w,c
  4743   004D98  0A69               	xorlw	105
  4744   004D9A  A4D8               	btfss	status,2,c
  4745   004D9C  EFD2  F026         	goto	u4351
  4746   004DA0  EFD4  F026         	goto	u4350
  4747   004DA4                     u4351:
  4748   004DA4  EFF1  F026         	goto	l3965
  4749   004DA8                     u4350:
  4750   004DA8                     l3957:
  4751                           
  4752                           ;C:\Program Files\Microchip\xc8\v3.00\pic\sources\c99\common\doprnt.c: 1404:    convarg.
      +                          sint = (vfpf_sint_t)(int)(*(int *)__va_arg(*(int **)ap, (int)0));
  4753   004DA8  503E               	movf	vfpfcnvrt@ap^0,w,c
  4754   004DAA  6ED9               	movwf	fsr2l,c
  4755   004DAC  6ADA               	clrf	fsr2h,c
  4756   004DAE  0E02               	movlw	2
  4757   004DB0  26DF               	addwf	indf2,f,c
  4758   004DB2  5CDF               	subwf	indf2,w,c
  4759   004DB4  6ED9               	movwf	fsr2l,c
  4760   004DB6  6ADA               	clrf	fsr2h,c
  4761   004DB8  006F FF78  F040    	movff	postinc2,vfpfcnvrt@convarg
  4762   004DBE  006F FF78  F041    	movff	postinc2,vfpfcnvrt@convarg+1
  4763   004DC4                     
  4764                           ;C:\Program Files\Microchip\xc8\v3.00\pic\sources\c99\common\doprnt.c: 1406:    *fmt = c
      +                          p+1;
  4765   004DC4  503D               	movf	vfpfcnvrt@fmt^0,w,c
  4766   004DC6  6ED9               	movwf	fsr2l,c
  4767   004DC8  6ADA               	clrf	fsr2h,c
  4768   004DCA  2845               	incf	vfpfcnvrt@cp^0,w,c
  4769   004DCC  6EDF               	movwf	indf2,c
  4770   004DCE                     
  4771                           ;C:\Program Files\Microchip\xc8\v3.00\pic\sources\c99\common\doprnt.c: 1432:    return (
      +                          void) dtoa(fp, convarg.sint);;	Return value of _vfpfcnvrt is never used
  4772   004DCE  C03C  F01D         	movff	vfpfcnvrt@fp,dtoa@fp
  4773   004DD2  C040  F01E         	movff	vfpfcnvrt@convarg,dtoa@d
  4774   004DD6  C041  F01F         	movff	vfpfcnvrt@convarg+1,dtoa@d+1
  4775   004DDA  EC99  F029         	call	_dtoa	;wreg free
  4776   004DDE  EFB5  F027         	goto	l983
  4777   004DE2                     l3965:
  4778                           
  4779                           ;C:\Program Files\Microchip\xc8\v3.00\pic\sources\c99\common\doprnt.c: 1689:   cp = *fmt
      +                          ;
  4780   004DE2  503D               	movf	vfpfcnvrt@fmt^0,w,c
  4781   004DE4  6ED9               	movwf	fsr2l,c
  4782   004DE6  6ADA               	clrf	fsr2h,c
  4783   004DE8  50DF               	movf	indf2,w,c
  4784   004DEA  6E45               	movwf	vfpfcnvrt@cp^0,c
  4785   004DEC                     
  4786                           ;C:\Program Files\Microchip\xc8\v3.00\pic\sources\c99\common\doprnt.c: 1690:   c = *cp;
  4787   004DEC  0060  F117  FFF6   	movff	vfpfcnvrt@cp,tblptrl
  4788   004DF2                     	if	1	;There is more than 1 active tblptr byte
  4789   004DF2  0E20               	movlw	high __smallconst
  4790   004DF4  6EF7               	movwf	tblptrh,c
  4791   004DF6                     	endif
  4792   004DF6                     	if	0	;tblptru may be non-zero
  4793   004DF6                     	endif
  4794   004DF6                     	if	1	;Program memory is > 0xFFFF, there are 3 active tblptr bytes
  4795   004DF6  0E00               	movlw	low (__smallconst shr (0+16))
  4796   004DF8  6EF8               	movwf	tblptru,c
  4797   004DFA                     	endif
  4798   004DFA  0008               	tblrd		*
  4799   004DFC  006F FFD4  F044    	movff	tablat,vfpfcnvrt@c
  4800                           
  4801                           ;C:\Program Files\Microchip\xc8\v3.00\pic\sources\c99\common\doprnt.c: 1691:   switch(c)
      +                           {
  4802   004E02  EF0D  F027         	goto	l3975
  4803   004E06                     l3969:
  4804                           
  4805                           ;C:\Program Files\Microchip\xc8\v3.00\pic\sources\c99\common\doprnt.c: 1695:     cp++;
  4806   004E06  2A45               	incf	vfpfcnvrt@cp^0,f,c
  4807                           
  4808                           ;C:\Program Files\Microchip\xc8\v3.00\pic\sources\c99\common\doprnt.c: 1696:     break;
  4809   004E08  EF1C  F027         	goto	l3977
  4810   004E0C                     l3971:
  4811                           
  4812                           ;C:\Program Files\Microchip\xc8\v3.00\pic\sources\c99\common\doprnt.c: 1721:     c = 'l'
      +                          ;
  4813   004E0C  0E6C               	movlw	108
  4814   004E0E  6E44               	movwf	vfpfcnvrt@c^0,c
  4815                           
  4816                           ;C:\Program Files\Microchip\xc8\v3.00\pic\sources\c99\common\doprnt.c: 1722:     break;
  4817   004E10  EF1C  F027         	goto	l3977
  4818   004E14                     l989:
  4819                           
  4820                           ;C:\Program Files\Microchip\xc8\v3.00\pic\sources\c99\common\doprnt.c: 1724:     c = 0;
  4821   004E14  6A44               	clrf	vfpfcnvrt@c^0,c
  4822                           
  4823                           ;C:\Program Files\Microchip\xc8\v3.00\pic\sources\c99\common\doprnt.c: 1725:     break;
  4824   004E16  EF1C  F027         	goto	l3977
  4825   004E1A                     l3975:
  4826   004E1A  5044               	movf	vfpfcnvrt@c^0,w,c
  4827                           
  4828                           ; Switch size 1, requested type "simple"
  4829                           ; Number of cases is 3, Range of values is 76 to 108
  4830                           ; switch strategies available:
  4831                           ; Name         Instructions Cycles
  4832                           ; simple_byte           10     6 (average)
  4833                           ;	Chosen strategy is simple_byte
  4834   004E1C  0A4C               	xorlw	76	; case 76
  4835   004E1E  B4D8               	btfsc	status,2,c
  4836   004E20  EF03  F027         	goto	l3969
  4837   004E24  0A2A               	xorlw	42	; case 102
  4838   004E26  B4D8               	btfsc	status,2,c
  4839   004E28  EF06  F027         	goto	l3971
  4840   004E2C  0A0A               	xorlw	10	; case 108
  4841   004E2E  B4D8               	btfsc	status,2,c
  4842   004E30  EF03  F027         	goto	l3969
  4843   004E34  EF0A  F027         	goto	l989
  4844   004E38                     l3977:
  4845   004E38  0060  F117  FFF6   	movff	vfpfcnvrt@cp,tblptrl
  4846   004E3E                     	if	1	;There is more than 1 active tblptr byte
  4847   004E3E  0E20               	movlw	high __smallconst
  4848   004E40  6EF7               	movwf	tblptrh,c
  4849   004E42                     	endif
  4850   004E42                     	if	0	;tblptru may be non-zero
  4851   004E42                     	endif
  4852   004E42                     	if	1	;Program memory is > 0xFFFF, there are 3 active tblptr bytes
  4853   004E42  0E00               	movlw	low (__smallconst shr (0+16))
  4854   004E44  6EF8               	movwf	tblptru,c
  4855   004E46                     	endif
  4856   004E46  0008               	tblrd		*
  4857   004E48  50F5               	movf	tablat,w,c
  4858   004E4A  0A66               	xorlw	102
  4859   004E4C  A4D8               	btfss	status,2,c
  4860   004E4E  EF2B  F027         	goto	u4361
  4861   004E52  EF2D  F027         	goto	u4360
  4862   004E56                     u4361:
  4863   004E56  EF9B  F027         	goto	l3997
  4864   004E5A                     u4360:
  4865   004E5A  EF61  F027         	goto	l3985
  4866   004E5E                     l3979:
  4867                           
  4868                           ;C:\Program Files\Microchip\xc8\v3.00\pic\sources\c99\common\doprnt.c: 1756:      convar
      +                          g.f = (long double)(*(double *)__va_arg(*(double **)ap, (double)0));
  4869   004E5E  503E               	movf	vfpfcnvrt@ap^0,w,c
  4870   004E60  6ED9               	movwf	fsr2l,c
  4871   004E62  6ADA               	clrf	fsr2h,c
  4872   004E64  006F FF7C  F03F    	movff	indf2,??_vfpfcnvrt
  4873   004E6A  0E04               	movlw	4
  4874   004E6C  26DF               	addwf	indf2,f,c
  4875   004E6E  503F               	movf	??_vfpfcnvrt^0,w,c
  4876   004E70  6ED9               	movwf	fsr2l,c
  4877   004E72  6ADA               	clrf	fsr2h,c
  4878   004E74  006F FF78  F040    	movff	postinc2,vfpfcnvrt@convarg
  4879   004E7A  006F FF78  F041    	movff	postinc2,vfpfcnvrt@convarg+1
  4880   004E80  006F FF78  F042    	movff	postinc2,vfpfcnvrt@convarg+2
  4881   004E86  006F FF78  F043    	movff	postinc2,vfpfcnvrt@convarg+3
  4882                           
  4883                           ;C:\Program Files\Microchip\xc8\v3.00\pic\sources\c99\common\doprnt.c: 1757:      break;
  4884   004E8C  EF6C  F027         	goto	l3987
  4885   004E90                     l3981:
  4886                           
  4887                           ;C:\Program Files\Microchip\xc8\v3.00\pic\sources\c99\common\doprnt.c: 1759:      convar
      +                          g.f = (long double)(*(long double *)__va_arg(*(long double **)ap, (long double)0));
  4888   004E90  503E               	movf	vfpfcnvrt@ap^0,w,c
  4889   004E92  6ED9               	movwf	fsr2l,c
  4890   004E94  6ADA               	clrf	fsr2h,c
  4891   004E96  006F FF7C  F03F    	movff	indf2,??_vfpfcnvrt
  4892   004E9C  0E04               	movlw	4
  4893   004E9E  26DF               	addwf	indf2,f,c
  4894   004EA0  503F               	movf	??_vfpfcnvrt^0,w,c
  4895   004EA2  6ED9               	movwf	fsr2l,c
  4896   004EA4  6ADA               	clrf	fsr2h,c
  4897   004EA6  006F FF78  F040    	movff	postinc2,vfpfcnvrt@convarg
  4898   004EAC  006F FF78  F041    	movff	postinc2,vfpfcnvrt@convarg+1
  4899   004EB2  006F FF78  F042    	movff	postinc2,vfpfcnvrt@convarg+2
  4900   004EB8  006F FF78  F043    	movff	postinc2,vfpfcnvrt@convarg+3
  4901                           
  4902                           ;C:\Program Files\Microchip\xc8\v3.00\pic\sources\c99\common\doprnt.c: 1760:      break;
  4903   004EBE  EF6C  F027         	goto	l3987
  4904   004EC2                     l3985:
  4905   004EC2  5044               	movf	vfpfcnvrt@c^0,w,c
  4906                           
  4907                           ; Switch size 1, requested type "simple"
  4908                           ; Number of cases is 2, Range of values is 76 to 108
  4909                           ; switch strategies available:
  4910                           ; Name         Instructions Cycles
  4911                           ; simple_byte            7     4 (average)
  4912                           ;	Chosen strategy is simple_byte
  4913   004EC4  0A4C               	xorlw	76	; case 76
  4914   004EC6  B4D8               	btfsc	status,2,c
  4915   004EC8  EF48  F027         	goto	l3981
  4916   004ECC  0A20               	xorlw	32	; case 108
  4917   004ECE  B4D8               	btfsc	status,2,c
  4918   004ED0  EF2F  F027         	goto	l3979
  4919   004ED4  EF6C  F027         	goto	l3987
  4920   004ED8                     l3987:
  4921                           
  4922                           ;C:\Program Files\Microchip\xc8\v3.00\pic\sources\c99\common\doprnt.c: 1762:    *fmt = c
      +                          p+1;
  4923   004ED8  503D               	movf	vfpfcnvrt@fmt^0,w,c
  4924   004EDA  6ED9               	movwf	fsr2l,c
  4925   004EDC  6ADA               	clrf	fsr2h,c
  4926   004EDE  2845               	incf	vfpfcnvrt@cp^0,w,c
  4927   004EE0  6EDF               	movwf	indf2,c
  4928                           
  4929                           ;C:\Program Files\Microchip\xc8\v3.00\pic\sources\c99\common\doprnt.c: 1763:    switch (
      +                          *cp) {
  4930   004EE2  EF8C  F027         	goto	l3995
  4931   004EE6                     l3989:
  4932                           
  4933                           ;C:\Program Files\Microchip\xc8\v3.00\pic\sources\c99\common\doprnt.c: 1790:      return
      +                           (void) efgtoa(fp, convarg.f, *cp);;	Return value of _vfpfcnvrt is never used
  4934   004EE6  C03C  F034         	movff	vfpfcnvrt@fp,efgtoa@fp
  4935   004EEA  C040  F035         	movff	vfpfcnvrt@convarg,efgtoa@f
  4936   004EEE  C041  F036         	movff	vfpfcnvrt@convarg+1,efgtoa@f+1
  4937   004EF2  C042  F037         	movff	vfpfcnvrt@convarg+2,efgtoa@f+2
  4938   004EF6  C043  F038         	movff	vfpfcnvrt@convarg+3,efgtoa@f+3
  4939   004EFA  0060  F117  FFF6   	movff	vfpfcnvrt@cp,tblptrl
  4940   004F00                     	if	1	;There is more than 1 active tblptr byte
  4941   004F00  0E20               	movlw	high __smallconst
  4942   004F02  6EF7               	movwf	tblptrh,c
  4943   004F04                     	endif
  4944   004F04                     	if	0	;tblptru may be non-zero
  4945   004F04                     	endif
  4946   004F04                     	if	1	;Program memory is > 0xFFFF, there are 3 active tblptr bytes
  4947   004F04  0E00               	movlw	low (__smallconst shr (0+16))
  4948   004F06  6EF8               	movwf	tblptru,c
  4949   004F08                     	endif
  4950   004F08  0008               	tblrd		*
  4951   004F0A  006F FFD4  F039    	movff	tablat,efgtoa@c
  4952   004F10  EC18  F01B         	call	_efgtoa	;wreg free
  4953   004F14  EFB5  F027         	goto	l983
  4954   004F18                     l3995:
  4955   004F18  0060  F117  FFF6   	movff	vfpfcnvrt@cp,tblptrl
  4956   004F1E                     	if	1	;There is more than 1 active tblptr byte
  4957   004F1E  0E20               	movlw	high __smallconst
  4958   004F20  6EF7               	movwf	tblptrh,c
  4959   004F22                     	endif
  4960   004F22                     	if	0	;tblptru may be non-zero
  4961   004F22                     	endif
  4962   004F22                     	if	1	;Program memory is > 0xFFFF, there are 3 active tblptr bytes
  4963   004F22  0E00               	movlw	low (__smallconst shr (0+16))
  4964   004F24  6EF8               	movwf	tblptru,c
  4965   004F26                     	endif
  4966   004F26  0008               	tblrd		*
  4967   004F28  50F5               	movf	tablat,w,c
  4968                           
  4969                           ; Switch size 1, requested type "simple"
  4970                           ; Number of cases is 1, Range of values is 102 to 102
  4971                           ; switch strategies available:
  4972                           ; Name         Instructions Cycles
  4973                           ; simple_byte            4     3 (average)
  4974                           ;	Chosen strategy is simple_byte
  4975   004F2A  0A66               	xorlw	102	; case 102
  4976   004F2C  B4D8               	btfsc	status,2,c
  4977   004F2E  EF73  F027         	goto	l3989
  4978   004F32  EF9B  F027         	goto	l3997
  4979   004F36                     l3997:
  4980                           
  4981                           ;C:\Program Files\Microchip\xc8\v3.00\pic\sources\c99\common\doprnt.c: 1806:         ++*
      +                          fmt;
  4982   004F36  503D               	movf	vfpfcnvrt@fmt^0,w,c
  4983   004F38  6ED9               	movwf	fsr2l,c
  4984   004F3A  6ADA               	clrf	fsr2h,c
  4985   004F3C  2ADF               	incf	indf2,f,c
  4986   004F3E  EFB5  F027         	goto	l983
  4987   004F42                     l4001:
  4988                           
  4989                           ;C:\Program Files\Microchip\xc8\v3.00\pic\sources\c99\common\doprnt.c: 1811:     fputc((
      +                          int)(*fmt)[0], fp);
  4990   004F42  503D               	movf	vfpfcnvrt@fmt^0,w,c
  4991   004F44  6ED9               	movwf	fsr2l,c
  4992   004F46  6ADA               	clrf	fsr2h,c
  4993   004F48  006F FF7F FFF6     	movff	indf2,tblptrl
  4994   004F4E                     	if	1	;There is more than 1 active tblptr byte
  4995   004F4E  0E20               	movlw	high __smallconst
  4996   004F50  6EF7               	movwf	tblptrh,c
  4997   004F52                     	endif
  4998   004F52                     	if	0	;tblptru may be non-zero
  4999   004F52                     	endif
  5000   004F52                     	if	1	;Program memory is > 0xFFFF, there are 3 active tblptr bytes
  5001   004F52  0E00               	movlw	low (__smallconst shr (0+16))
  5002   004F54  6EF8               	movwf	tblptru,c
  5003   004F56                     	endif
  5004   004F56  0008               	tblrd		*
  5005   004F58  50F5               	movf	tablat,w,c
  5006   004F5A  6E01               	movwf	fputc@c^0,c
  5007   004F5C  6A02               	clrf	(fputc@c+1)^0,c
  5008   004F5E  C03C  F003         	movff	vfpfcnvrt@fp,fputc@fp
  5009   004F62  ECEE  F02C         	call	_fputc	;wreg free
  5010   004F66  EF9B  F027         	goto	l3997
  5011   004F6A                     l983:
  5012   004F6A  0012               	return		;funcret
  5013   004F6C                     __end_of_vfpfcnvrt:
  5014                           	callstack 0
  5015                           
  5016 ;; *************** function _read_prec_or_width *****************
  5017 ;; Defined at:
  5018 ;;		line 1158 in file "C:\Program Files\Microchip\xc8\v3.00\pic\sources\c99\common\doprnt.c"
  5019 ;; Parameters:    Size  Location     Type
  5020 ;;  fmt             1    0[COMRAM] PTR PTR const unsigned c
  5021 ;;		 -> vfprintf@cfmt(1), 
  5022 ;;  ap              1    1[COMRAM] PTR PTR void [1]
  5023 ;;		 -> sprintf@ap(1), 
  5024 ;; Auto vars:     Size  Location     Type
  5025 ;;  c               1    4[COMRAM] unsigned char 
  5026 ;;  n               2    5[COMRAM] int 
  5027 ;; Return value:  Size  Location     Type
  5028 ;;                  2    0[COMRAM] int 
  5029 ;; Registers used:
  5030 ;;		wreg, fsr2l, fsr2h, status,2, status,0, tblptrl, tblptrh, tblptru, prodl, prodh
  5031 ;; Tracked objects:
  5032 ;;		On entry : 0/0
  5033 ;;		On exit  : 0/0
  5034 ;;		Unchanged: 0/0
  5035 ;; Data sizes:     COMRAM   BANK0   BANK1   BANK2   BANK3   BANK4   BANK5   BANK6   BANK7   BANK8   BANK9  BANK10  BANK1
      +1  BANK12  BANK13  BANK14  BANK15  BANK16  BANK17  BANK18  BANK19  BANK20  BANK21  BANK22  BANK23  BANK24  BANK25  BANK2
      +6  BANK27  BANK28  BANK29  BANK30  BANK31
  5036 ;;      Params:         2       0       0       0       0       0       0       0       0       0       0       0       
      +0       0       0       0       0       0       0       0       0       0       0       0       0       0       0       
      +0       0       0       0       0       0
  5037 ;;      Locals:         3       0       0       0       0       0       0       0       0       0       0       0       
      +0       0       0       0       0       0       0       0       0       0       0       0       0       0       0       
      +0       0       0       0       0       0
  5038 ;;      Temps:          2       0       0       0       0       0       0       0       0       0       0       0       
      +0       0       0       0       0       0       0       0       0       0       0       0       0       0       0       
      +0       0       0       0       0       0
  5039 ;;      Totals:         7       0       0       0       0       0       0       0       0       0       0       0       
      +0       0       0       0       0       0       0       0       0       0       0       0       0       0       0       
      +0       0       0       0       0       0
  5040 ;;Total ram usage:        7 bytes
  5041 ;; Hardware stack levels used: 1
  5042 ;; This function calls:
  5043 ;;		Nothing
  5044 ;; This function is called by:
  5045 ;;		_vfpfcnvrt
  5046 ;; This function uses a non-reentrant model
  5047 ;;
  5048                           
  5049                           	psect	text5
  5050   005876                     __ptext5:
  5051                           	callstack 0
  5052   005876                     _read_prec_or_width:
  5053                           	callstack 27
  5054   005876                     
  5055                           ;C:\Program Files\Microchip\xc8\v3.00\pic\sources\c99\common\doprnt.c: 1159:     int n =
      +                           0;
  5056   005876  0E00               	movlw	0
  5057   005878  6E07               	movwf	(read_prec_or_width@n+1)^0,c
  5058   00587A  0E00               	movlw	0
  5059   00587C  6E06               	movwf	read_prec_or_width@n^0,c
  5060   00587E                     
  5061                           ;C:\Program Files\Microchip\xc8\v3.00\pic\sources\c99\common\doprnt.c: 1160:     if ((*f
      +                          mt)[0] == '*') {
  5062   00587E  5001               	movf	read_prec_or_width@fmt^0,w,c
  5063   005880  6ED9               	movwf	fsr2l,c
  5064   005882  6ADA               	clrf	fsr2h,c
  5065   005884  006F FF7F FFF6     	movff	indf2,tblptrl
  5066   00588A                     	if	1	;There is more than 1 active tblptr byte
  5067   00588A  0E20               	movlw	high __smallconst
  5068   00588C  6EF7               	movwf	tblptrh,c
  5069   00588E                     	endif
  5070   00588E                     	if	0	;tblptru may be non-zero
  5071   00588E                     	endif
  5072   00588E                     	if	1	;Program memory is > 0xFFFF, there are 3 active tblptr bytes
  5073   00588E  0E00               	movlw	low (__smallconst shr (0+16))
  5074   005890  6EF8               	movwf	tblptru,c
  5075   005892                     	endif
  5076   005892  0008               	tblrd		*
  5077   005894  50F5               	movf	tablat,w,c
  5078   005896  0A2A               	xorlw	42
  5079   005898  A4D8               	btfss	status,2,c
  5080   00589A  EF51  F02C         	goto	u4291
  5081   00589E  EF53  F02C         	goto	u4290
  5082   0058A2                     u4291:
  5083   0058A2  EF7C  F02C         	goto	l3917
  5084   0058A6                     u4290:
  5085   0058A6                     
  5086                           ;C:\Program Files\Microchip\xc8\v3.00\pic\sources\c99\common\doprnt.c: 1161:         ++*
      +                          fmt;
  5087   0058A6  5001               	movf	read_prec_or_width@fmt^0,w,c
  5088   0058A8  6ED9               	movwf	fsr2l,c
  5089   0058AA  6ADA               	clrf	fsr2h,c
  5090   0058AC  2ADF               	incf	indf2,f,c
  5091   0058AE                     
  5092                           ;C:\Program Files\Microchip\xc8\v3.00\pic\sources\c99\common\doprnt.c: 1162:         n =
      +                           (*(int *)__va_arg(*(int **)*ap, (int)0));
  5093   0058AE  5002               	movf	read_prec_or_width@ap^0,w,c
  5094   0058B0  6ED9               	movwf	fsr2l,c
  5095   0058B2  6ADA               	clrf	fsr2h,c
  5096   0058B4  0E02               	movlw	2
  5097   0058B6  26DF               	addwf	indf2,f,c
  5098   0058B8  5CDF               	subwf	indf2,w,c
  5099   0058BA  6ED9               	movwf	fsr2l,c
  5100   0058BC  6ADA               	clrf	fsr2h,c
  5101   0058BE  006F FF78  F006    	movff	postinc2,read_prec_or_width@n
  5102   0058C4  006F FF78  F007    	movff	postinc2,read_prec_or_width@n+1
  5103                           
  5104                           ;C:\Program Files\Microchip\xc8\v3.00\pic\sources\c99\common\doprnt.c: 1163:     } else 
      +                          {
  5105   0058CA  EF92  F02C         	goto	l970
  5106   0058CE                     l3913:
  5107                           
  5108                           ;C:\Program Files\Microchip\xc8\v3.00\pic\sources\c99\common\doprnt.c: 1166:            
      +                           n = n * 10 + c;
  5109   0058CE  0E0A               	movlw	10
  5110   0058D0  0206               	mulwf	read_prec_or_width@n^0,c
  5111   0058D2  006F FFCC  F003    	movff	prodl,??_read_prec_or_width
  5112   0058D8  006F FFD0  F004    	movff	prodh,??_read_prec_or_width+1
  5113   0058DE  0207               	mulwf	(read_prec_or_width@n+1)^0,c
  5114   0058E0  50F3               	movf	prodl,w,c
  5115   0058E2  2604               	addwf	(??_read_prec_or_width+1)^0,f,c
  5116   0058E4  5005               	movf	read_prec_or_width@c^0,w,c
  5117   0058E6  2403               	addwf	??_read_prec_or_width^0,w,c
  5118   0058E8  6E06               	movwf	read_prec_or_width@n^0,c
  5119   0058EA  0E00               	movlw	0
  5120   0058EC  2004               	addwfc	(??_read_prec_or_width+1)^0,w,c
  5121   0058EE  6E07               	movwf	(read_prec_or_width@n+1)^0,c
  5122   0058F0                     
  5123                           ;C:\Program Files\Microchip\xc8\v3.00\pic\sources\c99\common\doprnt.c: 1167:            
      +                           ++*fmt;
  5124   0058F0  5001               	movf	read_prec_or_width@fmt^0,w,c
  5125   0058F2  6ED9               	movwf	fsr2l,c
  5126   0058F4  6ADA               	clrf	fsr2h,c
  5127   0058F6  2ADF               	incf	indf2,f,c
  5128   0058F8                     l3917:
  5129                           
  5130                           ;C:\Program Files\Microchip\xc8\v3.00\pic\sources\c99\common\doprnt.c: 1165:         whi
      +                          le ((c = ((unsigned)(*fmt)[0]) - '0') < 10) {
  5131   0058F8  5001               	movf	read_prec_or_width@fmt^0,w,c
  5132   0058FA  6ED9               	movwf	fsr2l,c
  5133   0058FC  6ADA               	clrf	fsr2h,c
  5134   0058FE  006F FF7F FFF6     	movff	indf2,tblptrl
  5135   005904                     	if	1	;There is more than 1 active tblptr byte
  5136   005904  0E20               	movlw	high __smallconst
  5137   005906  6EF7               	movwf	tblptrh,c
  5138   005908                     	endif
  5139   005908                     	if	0	;tblptru may be non-zero
  5140   005908                     	endif
  5141   005908                     	if	1	;Program memory is > 0xFFFF, there are 3 active tblptr bytes
  5142   005908  0E00               	movlw	low (__smallconst shr (0+16))
  5143   00590A  6EF8               	movwf	tblptru,c
  5144   00590C                     	endif
  5145   00590C  0008               	tblrd		*
  5146   00590E  50F5               	movf	tablat,w,c
  5147   005910  0FD0               	addlw	208
  5148   005912  6E05               	movwf	read_prec_or_width@c^0,c
  5149   005914  0E09               	movlw	9
  5150   005916  6405               	cpfsgt	read_prec_or_width@c^0,c
  5151   005918  EF90  F02C         	goto	u4301
  5152   00591C  EF92  F02C         	goto	u4300
  5153   005920                     u4301:
  5154   005920  EF67  F02C         	goto	l3913
  5155   005924                     u4300:
  5156   005924                     l970:
  5157                           
  5158                           ;C:\Program Files\Microchip\xc8\v3.00\pic\sources\c99\common\doprnt.c: 1170:     return 
      +                          n;
  5159   005924  C006  F001         	movff	read_prec_or_width@n,?_read_prec_or_width
  5160   005928  C007  F002         	movff	read_prec_or_width@n+1,?_read_prec_or_width+1
  5161   00592C  0012               	return		;funcret
  5162   00592E                     __end_of_read_prec_or_width:
  5163                           	callstack 0
  5164                           
  5165 ;; *************** function _efgtoa *****************
  5166 ;; Defined at:
  5167 ;;		line 587 in file "C:\Program Files\Microchip\xc8\v3.00\pic\sources\c99\common\doprnt.c"
  5168 ;; Parameters:    Size  Location     Type
  5169 ;;  fp              1   51[COMRAM] PTR struct _IO_FILE
  5170 ;;		 -> sprintf@f(11), 
  5171 ;;  f               4   52[COMRAM] PTR struct _IO_FILE
  5172 ;;  c               1   56[COMRAM] unsigned char 
  5173 ;; Auto vars:     Size  Location     Type
  5174 ;;  u               4   40[BANK0 ] struct flui
  5175 ;;  g               4   36[BANK0 ] struct flui
  5176 ;;  l               4   29[BANK0 ] struct flui
  5177 ;;  h               4   25[BANK0 ] struct flui
  5178 ;;  ou              4   19[BANK0 ] struct flui
  5179 ;;  n               2   34[BANK0 ] int 
  5180 ;;  i               2   23[BANK0 ] int 
  5181 ;;  w               2   17[BANK0 ] int 
  5182 ;;  e               2   15[BANK0 ] int 
  5183 ;;  m               2   13[BANK0 ] int 
  5184 ;;  d               2   11[BANK0 ] int 
  5185 ;;  t               2    4[BANK0 ] int 
  5186 ;;  p               2    2[BANK0 ] int 
  5187 ;;  ne              2    0[BANK0 ] int 
  5188 ;;  sign            1   33[BANK0 ] unsigned char 
  5189 ;;  nmode           1   10[BANK0 ] unsigned char 
  5190 ;;  mode            1    9[BANK0 ] unsigned char 
  5191 ;;  pp              1    8[BANK0 ] unsigned char 
  5192 ;;  esign           1    0        unsigned char 
  5193 ;; Return value:  Size  Location     Type
  5194 ;;                  1    wreg      void 
  5195 ;; Registers used:
  5196 ;;		wreg, fsr1l, fsr1h, fsr2l, fsr2h, status,2, status,0, tblptrl, tblptrh, tblptru, prodl, prodh, cstack
  5197 ;; Tracked objects:
  5198 ;;		On entry : 0/0
  5199 ;;		On exit  : 0/0
  5200 ;;		Unchanged: 0/0
  5201 ;; Data sizes:     COMRAM   BANK0   BANK1   BANK2   BANK3   BANK4   BANK5   BANK6   BANK7   BANK8   BANK9  BANK10  BANK1
      +1  BANK12  BANK13  BANK14  BANK15  BANK16  BANK17  BANK18  BANK19  BANK20  BANK21  BANK22  BANK23  BANK24  BANK25  BANK2
      +6  BANK27  BANK28  BANK29  BANK30  BANK31
  5202 ;;      Params:         6       0       0       0       0       0       0       0       0       0       0       0       
      +0       0       0       0       0       0       0       0       0       0       0       0       0       0       0       
      +0       0       0       0       0       0
  5203 ;;      Locals:         0      44       0       0       0       0       0       0       0       0       0       0       
      +0       0       0       0       0       0       0       0       0       0       0       0       0       0       0       
      +0       0       0       0       0       0
  5204 ;;      Temps:          2       0       0       0       0       0       0       0       0       0       0       0       
      +0       0       0       0       0       0       0       0       0       0       0       0       0       0       0       
      +0       0       0       0       0       0
  5205 ;;      Totals:         8      44       0       0       0       0       0       0       0       0       0       0       
      +0       0       0       0       0       0       0       0       0       0       0       0       0       0       0       
      +0       0       0       0       0       0
  5206 ;;Total ram usage:       52 bytes
  5207 ;; Hardware stack levels used: 1
  5208 ;; Hardware stack levels required when called: 4
  5209 ;; This function calls:
  5210 ;;		___fladd
  5211 ;;		___fldiv
  5212 ;;		___fleq
  5213 ;;		___flge
  5214 ;;		___flmul
  5215 ;;		___flneg
  5216 ;;		___flsub
  5217 ;;		___fltol
  5218 ;;		___fpclassifyf
  5219 ;;		_floorf
  5220 ;;		_labs
  5221 ;;		_memcpy
  5222 ;;		_pad
  5223 ;;		_strcpy
  5224 ;; This function is called by:
  5225 ;;		_vfpfcnvrt
  5226 ;; This function uses a non-reentrant model
  5227 ;;
  5228                           
  5229                           	psect	text6
  5230   003630                     __ptext6:
  5231                           	callstack 0
  5232   003630                     _efgtoa:
  5233                           	callstack 23
  5234   003630                     
  5235                           ;C:\Program Files\Microchip\xc8\v3.00\pic\sources\c99\common\doprnt.c: 587: static void 
      +                          efgtoa(FILE *fp, long double f, char c);C:\Program Files\Microchip\xc8\v3.00\pic\sources
      +                          \c99\common\doprnt.c: 588: {;C:\Program Files\Microchip\xc8\v3.00\pic\sources\c99\common
      +                          \doprnt.c: 589:     char mode, nmode, pp, sign, esign;;C:\Program Files\Microchip\xc8\v3
      +                          .00\pic\sources\c99\common\doprnt.c: 590:     int d, e, i, m, n, ne, p, t, w;;C:\Program
      +                           Files\Microchip\xc8\v3.00\pic\sources\c99\common\doprnt.c: 591:     long double h, l;
  5236   003630  0100               	movlb	0	; () banked
  5237   003632  6B81               	clrf	efgtoa@sign& (0+255),b
  5238                           
  5239                           ;C:\Program Files\Microchip\xc8\v3.00\pic\sources\c99\common\doprnt.c: 596:     g.f = f;
  5240   003634  C035  F084         	movff	efgtoa@f,efgtoa@g
  5241   003638  C036  F085         	movff	efgtoa@f+1,efgtoa@g+1
  5242   00363C  C037  F086         	movff	efgtoa@f+2,efgtoa@g+2
  5243   003640  C038  F087         	movff	efgtoa@f+3,efgtoa@g+3
  5244   003644                     
  5245                           ; BSR set to: 0
  5246                           ;C:\Program Files\Microchip\xc8\v3.00\pic\sources\c99\common\doprnt.c: 597:     if (g.f 
      +                          < 0.0) {
  5247   003644  BF87               	btfsc	(efgtoa@g+3)& (0+255),7,b
  5248   003646  EF29  F01B         	goto	u3970
  5249   00364A  EF27  F01B         	goto	u3971
  5250   00364E                     u3971:
  5251   00364E  EF3D  F01B         	goto	l3693
  5252   003652                     u3970:
  5253   003652                     
  5254                           ; BSR set to: 0
  5255                           ;C:\Program Files\Microchip\xc8\v3.00\pic\sources\c99\common\doprnt.c: 598:         sign
      +                           = 1;
  5256   003652  0E01               	movlw	1
  5257   003654  6F81               	movwf	efgtoa@sign& (0+255),b
  5258   003656                     
  5259                           ; BSR set to: 0
  5260                           ;C:\Program Files\Microchip\xc8\v3.00\pic\sources\c99\common\doprnt.c: 599:         g.f 
      +                          = -g.f;
  5261   003656  C084  F001         	movff	efgtoa@g,___flneg@f1
  5262   00365A  C085  F002         	movff	efgtoa@g+1,___flneg@f1+1
  5263   00365E  C086  F003         	movff	efgtoa@g+2,___flneg@f1+2
  5264   003662  C087  F004         	movff	efgtoa@g+3,___flneg@f1+3
  5265   003666  ECDD  F02F         	call	___flneg	;wreg free
  5266   00366A  C001  F084         	movff	?___flneg,efgtoa@g
  5267   00366E  C002  F085         	movff	?___flneg+1,efgtoa@g+1
  5268   003672  C003  F086         	movff	?___flneg+2,efgtoa@g+2
  5269   003676  C004  F087         	movff	?___flneg+3,efgtoa@g+3
  5270   00367A                     l3693:
  5271                           
  5272                           ;C:\Program Files\Microchip\xc8\v3.00\pic\sources\c99\common\doprnt.c: 603:     n = 0;
  5273   00367A  0E00               	movlw	0
  5274   00367C  0100               	movlb	0	; () banked
  5275   00367E  6F83               	movwf	(efgtoa@n+1)& (0+255),b
  5276   003680  0E00               	movlw	0
  5277   003682  6F82               	movwf	efgtoa@n& (0+255),b
  5278   003684                     
  5279                           ; BSR set to: 0
  5280                           ;C:\Program Files\Microchip\xc8\v3.00\pic\sources\c99\common\doprnt.c: 604:     w = widt
      +                          h;
  5281   003684  C0A4  F071         	movff	_width,efgtoa@w
  5282   003688  C0A5  F072         	movff	_width+1,efgtoa@w+1
  5283   00368C                     
  5284                           ; BSR set to: 0
  5285                           ;C:\Program Files\Microchip\xc8\v3.00\pic\sources\c99\common\doprnt.c: 605:     if (sign
  5286   00368C  5181               	movf	efgtoa@sign& (0+255),w,b
  5287   00368E  B4D8               	btfsc	status,2,c
  5288   003690  EF4C  F01B         	goto	u3981
  5289   003694  EF4E  F01B         	goto	u3980
  5290   003698                     u3981:
  5291   003698  EF62  F01B         	goto	l3707
  5292   00369C                     u3980:
  5293   00369C                     
  5294                           ; BSR set to: 0
  5295                           ;C:\Program Files\Microchip\xc8\v3.00\pic\sources\c99\common\doprnt.c: 609:    ) {;C:\Pr
      +                          ogram Files\Microchip\xc8\v3.00\pic\sources\c99\common\doprnt.c: 610:   sign = sign ? '-
      +                          ' : '+';
  5296   00369C  5181               	movf	efgtoa@sign& (0+255),w,b
  5297   00369E  A4D8               	btfss	status,2,c
  5298   0036A0  EF54  F01B         	goto	u3991
  5299   0036A4  EF56  F01B         	goto	u3990
  5300   0036A8                     u3991:
  5301   0036A8  EF5C  F01B         	goto	l3703
  5302   0036AC                     u3990:
  5303   0036AC                     
  5304                           ; BSR set to: 0
  5305   0036AC  0E00               	movlw	0
  5306   0036AE  6F67               	movwf	(_efgtoa$976+1)& (0+255),b
  5307   0036B0  0E2B               	movlw	43
  5308   0036B2  6F66               	movwf	_efgtoa$976& (0+255),b
  5309   0036B4  EF60  F01B         	goto	l3705
  5310   0036B8                     l3703:
  5311                           
  5312                           ; BSR set to: 0
  5313   0036B8  0E00               	movlw	0
  5314   0036BA  6F67               	movwf	(_efgtoa$976+1)& (0+255),b
  5315   0036BC  0E2D               	movlw	45
  5316   0036BE  6F66               	movwf	_efgtoa$976& (0+255),b
  5317   0036C0                     l3705:
  5318                           
  5319                           ; BSR set to: 0
  5320   0036C0  C066  F081         	movff	_efgtoa$976,efgtoa@sign
  5321   0036C4                     l3707:
  5322                           
  5323                           ; BSR set to: 0
  5324                           ;C:\Program Files\Microchip\xc8\v3.00\pic\sources\c99\common\doprnt.c: 619:     if (( __
      +                          fpclassifyf(g.f) == 1 )) {
  5325   0036C4  C084  F001         	movff	efgtoa@g,___fpclassifyf@x
  5326   0036C8  C085  F002         	movff	efgtoa@g+1,___fpclassifyf@x+1
  5327   0036CC  C086  F003         	movff	efgtoa@g+2,___fpclassifyf@x+2
  5328   0036D0  C087  F004         	movff	efgtoa@g+3,___fpclassifyf@x+3
  5329   0036D4  EC5B  F02B         	call	___fpclassifyf	;wreg free
  5330   0036D8  0401               	decf	?___fpclassifyf^0,w,c
  5331   0036DA  1002               	iorwf	(?___fpclassifyf+1)^0,w,c
  5332   0036DC  A4D8               	btfss	status,2,c
  5333   0036DE  EF73  F01B         	goto	u4001
  5334   0036E2  EF75  F01B         	goto	u4000
  5335   0036E6                     u4001:
  5336   0036E6  EFA4  F01B         	goto	l3725
  5337   0036EA                     u4000:
  5338   0036EA                     
  5339                           ;C:\Program Files\Microchip\xc8\v3.00\pic\sources\c99\common\doprnt.c: 620:   if (sign) 
      +                          {
  5340   0036EA  0100               	movlb	0	; () banked
  5341   0036EC  5181               	movf	efgtoa@sign& (0+255),w,b
  5342   0036EE  B4D8               	btfsc	status,2,c
  5343   0036F0  EF7C  F01B         	goto	u4011
  5344   0036F4  EF7E  F01B         	goto	u4010
  5345   0036F8                     u4011:
  5346   0036F8  EF87  F01B         	goto	l3717
  5347   0036FC                     u4010:
  5348   0036FC                     
  5349                           ; BSR set to: 0
  5350                           ;C:\Program Files\Microchip\xc8\v3.00\pic\sources\c99\common\doprnt.c: 621:    dbuf[0] =
      +                           sign;
  5351   0036FC  C081  F100         	movff	efgtoa@sign,_dbuf
  5352   003700                     
  5353                           ; BSR set to: 0
  5354                           ;C:\Program Files\Microchip\xc8\v3.00\pic\sources\c99\common\doprnt.c: 622:    w--;
  5355   003700  0771               	decf	efgtoa@w& (0+255),f,b
  5356   003702  A0D8               	btfss	status,0,c
  5357   003704  0772               	decf	(efgtoa@w+1)& (0+255),f,b
  5358   003706                     
  5359                           ; BSR set to: 0
  5360                           ;C:\Program Files\Microchip\xc8\v3.00\pic\sources\c99\common\doprnt.c: 623:    n = 1;
  5361   003706  0E00               	movlw	0
  5362   003708  6F83               	movwf	(efgtoa@n+1)& (0+255),b
  5363   00370A  0E01               	movlw	1
  5364   00370C  6F82               	movwf	efgtoa@n& (0+255),b
  5365   00370E                     l3717:
  5366                           
  5367                           ; BSR set to: 0
  5368                           ;C:\Program Files\Microchip\xc8\v3.00\pic\sources\c99\common\doprnt.c: 631:   {;C:\Progr
      +                          am Files\Microchip\xc8\v3.00\pic\sources\c99\common\doprnt.c: 632:             strcpy(&d
      +                          buf[n], "inf");
  5369   00370E  0E00               	movlw	low _dbuf
  5370   003710  2582               	addwf	efgtoa@n& (0+255),w,b
  5371   003712  6E01               	movwf	strcpy@dest^0,c
  5372   003714  0E01               	movlw	high _dbuf
  5373   003716  2183               	addwfc	(efgtoa@n+1)& (0+255),w,b
  5374   003718  6E02               	movwf	(strcpy@dest+1)^0,c
  5375   00371A  0EB3               	movlw	low STR_66
  5376   00371C  6E03               	movwf	strcpy@src^0,c
  5377   00371E  EC35  F02F         	call	_strcpy	;wreg free
  5378   003722                     l3719:
  5379                           
  5380                           ;C:\Program Files\Microchip\xc8\v3.00\pic\sources\c99\common\doprnt.c: 633:         };C:
      +                          \Program Files\Microchip\xc8\v3.00\pic\sources\c99\common\doprnt.c: 634:         w -= ((
      +                          sizeof("inf")/sizeof("inf"[0]))-1);
  5381   003722  0100               	movlb	0	; () banked
  5382   003724  0EFD               	movlw	253
  5383   003726  2771               	addwf	efgtoa@w& (0+255),f,b
  5384   003728  0EFF               	movlw	255
  5385   00372A  2372               	addwfc	(efgtoa@w+1)& (0+255),f,b
  5386   00372C                     
  5387                           ; BSR set to: 0
  5388                           ;C:\Program Files\Microchip\xc8\v3.00\pic\sources\c99\common\doprnt.c: 635:         retu
      +                          rn (void) pad(fp, &dbuf[0], w);
  5389   00372C  C034  F00F         	movff	efgtoa@fp,pad@fp
  5390   003730  0E00               	movlw	low _dbuf
  5391   003732  6E10               	movwf	pad@buf^0,c
  5392   003734  0E01               	movlw	high _dbuf
  5393   003736  6E11               	movwf	(pad@buf+1)^0,c
  5394   003738  C071  F012         	movff	efgtoa@w,pad@p
  5395   00373C  C072  F013         	movff	efgtoa@w+1,pad@p+1
  5396   003740  EC99  F02D         	call	_pad	;wreg free
  5397   003744  EF0A  F020         	goto	l925
  5398   003748                     l3725:
  5399                           
  5400                           ;C:\Program Files\Microchip\xc8\v3.00\pic\sources\c99\common\doprnt.c: 637:     if (( __
      +                          fpclassifyf(g.f) == 0 )) {
  5401   003748  C084  F001         	movff	efgtoa@g,___fpclassifyf@x
  5402   00374C  C085  F002         	movff	efgtoa@g+1,___fpclassifyf@x+1
  5403   003750  C086  F003         	movff	efgtoa@g+2,___fpclassifyf@x+2
  5404   003754  C087  F004         	movff	efgtoa@g+3,___fpclassifyf@x+3
  5405   003758  EC5B  F02B         	call	___fpclassifyf	;wreg free
  5406   00375C  5001               	movf	?___fpclassifyf^0,w,c
  5407   00375E  1002               	iorwf	(?___fpclassifyf+1)^0,w,c
  5408   003760  A4D8               	btfss	status,2,c
  5409   003762  EFB5  F01B         	goto	u4021
  5410   003766  EFB7  F01B         	goto	u4020
  5411   00376A                     u4021:
  5412   00376A  EFD5  F01B         	goto	l3743
  5413   00376E                     u4020:
  5414   00376E                     
  5415                           ;C:\Program Files\Microchip\xc8\v3.00\pic\sources\c99\common\doprnt.c: 638:   if (sign) 
      +                          {
  5416   00376E  0100               	movlb	0	; () banked
  5417   003770  5181               	movf	efgtoa@sign& (0+255),w,b
  5418   003772  B4D8               	btfsc	status,2,c
  5419   003774  EFBE  F01B         	goto	u4031
  5420   003778  EFC0  F01B         	goto	u4030
  5421   00377C                     u4031:
  5422   00377C  EFC9  F01B         	goto	l3735
  5423   003780                     u4030:
  5424   003780                     
  5425                           ; BSR set to: 0
  5426                           ;C:\Program Files\Microchip\xc8\v3.00\pic\sources\c99\common\doprnt.c: 639:    dbuf[0] =
      +                           sign;
  5427   003780  C081  F100         	movff	efgtoa@sign,_dbuf
  5428   003784                     
  5429                           ; BSR set to: 0
  5430                           ;C:\Program Files\Microchip\xc8\v3.00\pic\sources\c99\common\doprnt.c: 640:    w--;
  5431   003784  0771               	decf	efgtoa@w& (0+255),f,b
  5432   003786  A0D8               	btfss	status,0,c
  5433   003788  0772               	decf	(efgtoa@w+1)& (0+255),f,b
  5434   00378A                     
  5435                           ; BSR set to: 0
  5436                           ;C:\Program Files\Microchip\xc8\v3.00\pic\sources\c99\common\doprnt.c: 641:    n = 1;
  5437   00378A  0E00               	movlw	0
  5438   00378C  6F83               	movwf	(efgtoa@n+1)& (0+255),b
  5439   00378E  0E01               	movlw	1
  5440   003790  6F82               	movwf	efgtoa@n& (0+255),b
  5441   003792                     l3735:
  5442                           
  5443                           ; BSR set to: 0
  5444                           ;C:\Program Files\Microchip\xc8\v3.00\pic\sources\c99\common\doprnt.c: 649:   {;C:\Progr
      +                          am Files\Microchip\xc8\v3.00\pic\sources\c99\common\doprnt.c: 650:             strcpy(&d
      +                          buf[n], "nan");
  5445   003792  0E00               	movlw	low _dbuf
  5446   003794  2582               	addwf	efgtoa@n& (0+255),w,b
  5447   003796  6E01               	movwf	strcpy@dest^0,c
  5448   003798  0E01               	movlw	high _dbuf
  5449   00379A  2183               	addwfc	(efgtoa@n+1)& (0+255),w,b
  5450   00379C  6E02               	movwf	(strcpy@dest+1)^0,c
  5451   00379E  0EB7               	movlw	low STR_69
  5452   0037A0  6E03               	movwf	strcpy@src^0,c
  5453   0037A2  EC35  F02F         	call	_strcpy	;wreg free
  5454   0037A6  EF91  F01B         	goto	l3719
  5455   0037AA                     l3743:
  5456                           
  5457                           ;C:\Program Files\Microchip\xc8\v3.00\pic\sources\c99\common\doprnt.c: 657:     u.f = 1.
      +                          0;
  5458   0037AA  0E00               	movlw	0
  5459   0037AC  0100               	movlb	0	; () banked
  5460   0037AE  6F88               	movwf	efgtoa@u& (0+255),b
  5461   0037B0  0E00               	movlw	0
  5462   0037B2  6F89               	movwf	(efgtoa@u+1)& (0+255),b
  5463   0037B4  0E80               	movlw	128
  5464   0037B6  6F8A               	movwf	(efgtoa@u+2)& (0+255),b
  5465   0037B8  0E3F               	movlw	63
  5466   0037BA  6F8B               	movwf	(efgtoa@u+3)& (0+255),b
  5467                           
  5468                           ;C:\Program Files\Microchip\xc8\v3.00\pic\sources\c99\common\doprnt.c: 658:     e = 0;
  5469   0037BC  0E00               	movlw	0
  5470   0037BE  6F70               	movwf	(efgtoa@e+1)& (0+255),b
  5471   0037C0  0E00               	movlw	0
  5472   0037C2  6F6F               	movwf	efgtoa@e& (0+255),b
  5473   0037C4                     
  5474                           ; BSR set to: 0
  5475                           ;C:\Program Files\Microchip\xc8\v3.00\pic\sources\c99\common\doprnt.c: 659:  if (!(g.f =
      +                          = 0.0)) {
  5476   0037C4  C084  F00F         	movff	efgtoa@g,___fleq@ff1
  5477   0037C8  C085  F010         	movff	efgtoa@g+1,___fleq@ff1+1
  5478   0037CC  C086  F011         	movff	efgtoa@g+2,___fleq@ff1+2
  5479   0037D0  C087  F012         	movff	efgtoa@g+3,___fleq@ff1+3
  5480   0037D4  0E00               	movlw	0
  5481   0037D6  6E13               	movwf	___fleq@ff2^0,c
  5482   0037D8  0E00               	movlw	0
  5483   0037DA  6E14               	movwf	(___fleq@ff2+1)^0,c
  5484   0037DC  0E00               	movlw	0
  5485   0037DE  6E15               	movwf	(___fleq@ff2+2)^0,c
  5486   0037E0  0E00               	movlw	0
  5487   0037E2  6E16               	movwf	(___fleq@ff2+3)^0,c
  5488   0037E4  EC44  F02D         	call	___fleq	;wreg free
  5489   0037E8  B0D8               	btfsc	status,0,c
  5490   0037EA  EFF9  F01B         	goto	u4041
  5491   0037EE  EFFB  F01B         	goto	u4040
  5492   0037F2                     u4041:
  5493   0037F2  EFDA  F01C         	goto	l928
  5494   0037F6                     u4040:
  5495   0037F6  EF08  F01C         	goto	l3751
  5496   0037FA                     l930:
  5497                           
  5498                           ;C:\Program Files\Microchip\xc8\v3.00\pic\sources\c99\common\doprnt.c: 661:    u = ou;
  5499   0037FA  C073  F088         	movff	efgtoa@ou,efgtoa@u
  5500   0037FE  C074  F089         	movff	efgtoa@ou+1,efgtoa@u+1
  5501   003802  C075  F08A         	movff	efgtoa@ou+2,efgtoa@u+2
  5502   003806  C076  F08B         	movff	efgtoa@ou+3,efgtoa@u+3
  5503   00380A                     
  5504                           ;C:\Program Files\Microchip\xc8\v3.00\pic\sources\c99\common\doprnt.c: 662:    ++e;
  5505   00380A  0100               	movlb	0	; () banked
  5506   00380C  4B6F               	infsnz	efgtoa@e& (0+255),f,b
  5507   00380E  2B70               	incf	(efgtoa@e+1)& (0+255),f,b
  5508   003810                     l3751:
  5509                           
  5510                           ;C:\Program Files\Microchip\xc8\v3.00\pic\sources\c99\common\doprnt.c: 660:   while ((la
      +                          bs((g).u-((ou.f = u.f*10.0,ou)).u) <= 1) || g.f > ou.f) {
  5511   003810  C088  F00F         	movff	efgtoa@u,___flmul@b
  5512   003814  C089  F010         	movff	efgtoa@u+1,___flmul@b+1
  5513   003818  C08A  F011         	movff	efgtoa@u+2,___flmul@b+2
  5514   00381C  C08B  F012         	movff	efgtoa@u+3,___flmul@b+3
  5515   003820  0E00               	movlw	0
  5516   003822  6E13               	movwf	___flmul@a^0,c
  5517   003824  0E00               	movlw	0
  5518   003826  6E14               	movwf	(___flmul@a+1)^0,c
  5519   003828  0E20               	movlw	32
  5520   00382A  6E15               	movwf	(___flmul@a+2)^0,c
  5521   00382C  0E41               	movlw	65
  5522   00382E  6E16               	movwf	(___flmul@a+3)^0,c
  5523   003830  EC66  F022         	call	___flmul	;wreg free
  5524   003834  C00F  F073         	movff	?___flmul,efgtoa@ou
  5525   003838  C010  F074         	movff	?___flmul+1,efgtoa@ou+1
  5526   00383C  C011  F075         	movff	?___flmul+2,efgtoa@ou+2
  5527   003840  C012  F076         	movff	?___flmul+3,efgtoa@ou+3
  5528   003844  0100               	movlb	0	; () banked
  5529   003846  5173               	movf	efgtoa@ou& (0+255),w,b
  5530   003848  5D84               	subwf	efgtoa@g& (0+255),w,b
  5531   00384A  6E01               	movwf	labs@a^0,c
  5532   00384C  5174               	movf	(efgtoa@ou+1)& (0+255),w,b
  5533   00384E  5985               	subwfb	(efgtoa@g+1)& (0+255),w,b
  5534   003850  6E02               	movwf	(labs@a+1)^0,c
  5535   003852  5175               	movf	(efgtoa@ou+2)& (0+255),w,b
  5536   003854  5986               	subwfb	(efgtoa@g+2)& (0+255),w,b
  5537   003856  6E03               	movwf	(labs@a+2)^0,c
  5538   003858  5176               	movf	(efgtoa@ou+3)& (0+255),w,b
  5539   00385A  5987               	subwfb	(efgtoa@g+3)& (0+255),w,b
  5540   00385C  6E04               	movwf	(labs@a+3)^0,c
  5541   00385E  ECE5  F02E         	call	_labs	;wreg free
  5542   003862  BE04               	btfsc	(?_labs+3)^0,7,c
  5543   003864  EF3F  F01C         	goto	u4051
  5544   003868  5004               	movf	(?_labs+3)^0,w,c
  5545   00386A  1003               	iorwf	(?_labs+2)^0,w,c
  5546   00386C  1002               	iorwf	(?_labs+1)^0,w,c
  5547   00386E  E109               	bnz	u4050
  5548   003870  0E02               	movlw	2
  5549   003872  5C01               	subwf	?_labs^0,w,c
  5550   003874  A0D8               	btfss	status,0,c
  5551   003876  EF3F  F01C         	goto	u4051
  5552   00387A  EF41  F01C         	goto	u4050
  5553   00387E                     u4051:
  5554   00387E  EFFD  F01B         	goto	l930
  5555   003882                     u4050:
  5556   003882  C073  F028         	movff	efgtoa@ou,___flge@ff1
  5557   003886  C074  F029         	movff	efgtoa@ou+1,___flge@ff1+1
  5558   00388A  C075  F02A         	movff	efgtoa@ou+2,___flge@ff1+2
  5559   00388E  C076  F02B         	movff	efgtoa@ou+3,___flge@ff1+3
  5560   003892  C084  F02C         	movff	efgtoa@g,___flge@ff2
  5561   003896  C085  F02D         	movff	efgtoa@g+1,___flge@ff2+1
  5562   00389A  C086  F02E         	movff	efgtoa@g+2,___flge@ff2+2
  5563   00389E  C087  F02F         	movff	efgtoa@g+3,___flge@ff2+3
  5564   0038A2  ECD9  F02A         	call	___flge	;wreg free
  5565   0038A6  A0D8               	btfss	status,0,c
  5566   0038A8  EF58  F01C         	goto	u4061
  5567   0038AC  EF5A  F01C         	goto	u4060
  5568   0038B0                     u4061:
  5569   0038B0  EFFD  F01B         	goto	l930
  5570   0038B4                     u4060:
  5571   0038B4                     
  5572                           ;C:\Program Files\Microchip\xc8\v3.00\pic\sources\c99\common\doprnt.c: 664:   if ((labs(
      +                          (g).u-(u).u) <= 1)) {
  5573   0038B4  0100               	movlb	0	; () banked
  5574   0038B6  5188               	movf	efgtoa@u& (0+255),w,b
  5575   0038B8  5D84               	subwf	efgtoa@g& (0+255),w,b
  5576   0038BA  6E01               	movwf	labs@a^0,c
  5577   0038BC  5189               	movf	(efgtoa@u+1)& (0+255),w,b
  5578   0038BE  5985               	subwfb	(efgtoa@g+1)& (0+255),w,b
  5579   0038C0  6E02               	movwf	(labs@a+1)^0,c
  5580   0038C2  518A               	movf	(efgtoa@u+2)& (0+255),w,b
  5581   0038C4  5986               	subwfb	(efgtoa@g+2)& (0+255),w,b
  5582   0038C6  6E03               	movwf	(labs@a+2)^0,c
  5583   0038C8  518B               	movf	(efgtoa@u+3)& (0+255),w,b
  5584   0038CA  5987               	subwfb	(efgtoa@g+3)& (0+255),w,b
  5585   0038CC  6E04               	movwf	(labs@a+3)^0,c
  5586   0038CE  ECE5  F02E         	call	_labs	;wreg free
  5587   0038D2  BE04               	btfsc	(?_labs+3)^0,7,c
  5588   0038D4  EF79  F01C         	goto	u4070
  5589   0038D8  5004               	movf	(?_labs+3)^0,w,c
  5590   0038DA  1003               	iorwf	(?_labs+2)^0,w,c
  5591   0038DC  1002               	iorwf	(?_labs+1)^0,w,c
  5592   0038DE  E107               	bnz	u4071
  5593   0038E0  0E02               	movlw	2
  5594   0038E2  5C01               	subwf	?_labs^0,w,c
  5595   0038E4  B0D8               	btfsc	status,0,c
  5596   0038E6  EF77  F01C         	goto	u4071
  5597   0038EA  EF79  F01C         	goto	u4070
  5598   0038EE                     u4071:
  5599   0038EE  EFC1  F01C         	goto	l3769
  5600   0038F2                     u4070:
  5601   0038F2                     l3759:
  5602                           
  5603                           ;C:\Program Files\Microchip\xc8\v3.00\pic\sources\c99\common\doprnt.c: 665:    g = u;
  5604   0038F2  C088  F084         	movff	efgtoa@u,efgtoa@g
  5605   0038F6  C089  F085         	movff	efgtoa@u+1,efgtoa@g+1
  5606   0038FA  C08A  F086         	movff	efgtoa@u+2,efgtoa@g+2
  5607   0038FE  C08B  F087         	movff	efgtoa@u+3,efgtoa@g+3
  5608                           
  5609                           ;C:\Program Files\Microchip\xc8\v3.00\pic\sources\c99\common\doprnt.c: 666:   }
  5610   003902  EFDA  F01C         	goto	l928
  5611   003906                     l3761:
  5612                           
  5613                           ;C:\Program Files\Microchip\xc8\v3.00\pic\sources\c99\common\doprnt.c: 669:     u.f = u.
      +                          f/10.0;
  5614   003906  C088  F001         	movff	efgtoa@u,___fldiv@b
  5615   00390A  C089  F002         	movff	efgtoa@u+1,___fldiv@b+1
  5616   00390E  C08A  F003         	movff	efgtoa@u+2,___fldiv@b+2
  5617   003912  C08B  F004         	movff	efgtoa@u+3,___fldiv@b+3
  5618   003916  0E00               	movlw	0
  5619   003918  6E05               	movwf	___fldiv@a^0,c
  5620   00391A  0E00               	movlw	0
  5621   00391C  6E06               	movwf	(___fldiv@a+1)^0,c
  5622   00391E  0E20               	movlw	32
  5623   003920  6E07               	movwf	(___fldiv@a+2)^0,c
  5624   003922  0E41               	movlw	65
  5625   003924  6E08               	movwf	(___fldiv@a+3)^0,c
  5626   003926  EC8B  F024         	call	___fldiv	;wreg free
  5627   00392A  C001  F088         	movff	?___fldiv,efgtoa@u
  5628   00392E  C002  F089         	movff	?___fldiv+1,efgtoa@u+1
  5629   003932  C003  F08A         	movff	?___fldiv+2,efgtoa@u+2
  5630   003936  C004  F08B         	movff	?___fldiv+3,efgtoa@u+3
  5631   00393A                     
  5632                           ;C:\Program Files\Microchip\xc8\v3.00\pic\sources\c99\common\doprnt.c: 670:     --e;
  5633   00393A  0100               	movlb	0	; () banked
  5634   00393C  076F               	decf	efgtoa@e& (0+255),f,b
  5635   00393E  A0D8               	btfss	status,0,c
  5636   003940  0770               	decf	(efgtoa@e+1)& (0+255),f,b
  5637   003942                     
  5638                           ; BSR set to: 0
  5639                           ;C:\Program Files\Microchip\xc8\v3.00\pic\sources\c99\common\doprnt.c: 671:     if ((lab
      +                          s((g).u-(u).u) <= 1)) {
  5640   003942  5188               	movf	efgtoa@u& (0+255),w,b
  5641   003944  5D84               	subwf	efgtoa@g& (0+255),w,b
  5642   003946  6E01               	movwf	labs@a^0,c
  5643   003948  5189               	movf	(efgtoa@u+1)& (0+255),w,b
  5644   00394A  5985               	subwfb	(efgtoa@g+1)& (0+255),w,b
  5645   00394C  6E02               	movwf	(labs@a+1)^0,c
  5646   00394E  518A               	movf	(efgtoa@u+2)& (0+255),w,b
  5647   003950  5986               	subwfb	(efgtoa@g+2)& (0+255),w,b
  5648   003952  6E03               	movwf	(labs@a+2)^0,c
  5649   003954  518B               	movf	(efgtoa@u+3)& (0+255),w,b
  5650   003956  5987               	subwfb	(efgtoa@g+3)& (0+255),w,b
  5651   003958  6E04               	movwf	(labs@a+3)^0,c
  5652   00395A  ECE5  F02E         	call	_labs	;wreg free
  5653   00395E  BE04               	btfsc	(?_labs+3)^0,7,c
  5654   003960  EFBF  F01C         	goto	u4080
  5655   003964  5004               	movf	(?_labs+3)^0,w,c
  5656   003966  1003               	iorwf	(?_labs+2)^0,w,c
  5657   003968  1002               	iorwf	(?_labs+1)^0,w,c
  5658   00396A  E107               	bnz	u4081
  5659   00396C  0E02               	movlw	2
  5660   00396E  5C01               	subwf	?_labs^0,w,c
  5661   003970  B0D8               	btfsc	status,0,c
  5662   003972  EFBD  F01C         	goto	u4081
  5663   003976  EFBF  F01C         	goto	u4080
  5664   00397A                     u4081:
  5665   00397A  EFC1  F01C         	goto	l3769
  5666   00397E                     u4080:
  5667   00397E  EF79  F01C         	goto	l3759
  5668   003982                     l3769:
  5669                           
  5670                           ;C:\Program Files\Microchip\xc8\v3.00\pic\sources\c99\common\doprnt.c: 668:    while (g.
      +                          f < u.f) {
  5671   003982  C084  F028         	movff	efgtoa@g,___flge@ff1
  5672   003986  C085  F029         	movff	efgtoa@g+1,___flge@ff1+1
  5673   00398A  C086  F02A         	movff	efgtoa@g+2,___flge@ff1+2
  5674   00398E  C087  F02B         	movff	efgtoa@g+3,___flge@ff1+3
  5675   003992  C088  F02C         	movff	efgtoa@u,___flge@ff2
  5676   003996  C089  F02D         	movff	efgtoa@u+1,___flge@ff2+1
  5677   00399A  C08A  F02E         	movff	efgtoa@u+2,___flge@ff2+2
  5678   00399E  C08B  F02F         	movff	efgtoa@u+3,___flge@ff2+3
  5679   0039A2  ECD9  F02A         	call	___flge	;wreg free
  5680   0039A6  A0D8               	btfss	status,0,c
  5681   0039A8  EFD8  F01C         	goto	u4091
  5682   0039AC  EFDA  F01C         	goto	u4090
  5683   0039B0                     u4091:
  5684   0039B0  EF83  F01C         	goto	l3761
  5685   0039B4                     u4090:
  5686   0039B4                     l928:
  5687                           
  5688                           ;C:\Program Files\Microchip\xc8\v3.00\pic\sources\c99\common\doprnt.c: 683:  mode = c;
  5689   0039B4  C039  F069         	movff	efgtoa@c,efgtoa@mode
  5690                           
  5691                           ;C:\Program Files\Microchip\xc8\v3.00\pic\sources\c99\common\doprnt.c: 685:     nmode = 
      +                          mode;
  5692   0039B8  C069  F06A         	movff	efgtoa@mode,efgtoa@nmode
  5693   0039BC                     
  5694                           ;C:\Program Files\Microchip\xc8\v3.00\pic\sources\c99\common\doprnt.c: 695:  {;C:\Progra
      +                          m Files\Microchip\xc8\v3.00\pic\sources\c99\common\doprnt.c: 696:         p = (prec < 0)
      +                           ? 6 : prec;
  5695   0039BC  0100               	movlb	0	; () banked
  5696   0039BE  BFA7               	btfsc	(_prec+1)& (0+255),7,b
  5697   0039C0  EFE4  F01C         	goto	u4101
  5698   0039C4  EFE6  F01C         	goto	u4100
  5699   0039C8                     u4101:
  5700   0039C8  EFEC  F01C         	goto	l3775
  5701   0039CC                     u4100:
  5702   0039CC                     
  5703                           ; BSR set to: 0
  5704   0039CC  C0A6  F062         	movff	_prec,efgtoa@p
  5705   0039D0  C0A7  F063         	movff	_prec+1,efgtoa@p+1
  5706   0039D4  EFF0  F01C         	goto	l3777
  5707   0039D8                     l3775:
  5708                           
  5709                           ; BSR set to: 0
  5710   0039D8  0E00               	movlw	0
  5711   0039DA  6F63               	movwf	(efgtoa@p+1)& (0+255),b
  5712   0039DC  0E06               	movlw	6
  5713   0039DE  6F62               	movwf	efgtoa@p& (0+255),b
  5714   0039E0                     l3777:
  5715                           
  5716                           ; BSR set to: 0
  5717                           ;C:\Program Files\Microchip\xc8\v3.00\pic\sources\c99\common\doprnt.c: 697:     };C:\Pro
      +                          gram Files\Microchip\xc8\v3.00\pic\sources\c99\common\doprnt.c: 711:     m = p;
  5718   0039E0  C062  F06D         	movff	efgtoa@p,efgtoa@m
  5719   0039E4  C063  F06E         	movff	efgtoa@p+1,efgtoa@m+1
  5720   0039E8                     
  5721                           ; BSR set to: 0
  5722                           ;C:\Program Files\Microchip\xc8\v3.00\pic\sources\c99\common\doprnt.c: 715:  {;C:\Progra
      +                          m Files\Microchip\xc8\v3.00\pic\sources\c99\common\doprnt.c: 716:         ++m;
  5723   0039E8  4B6D               	infsnz	efgtoa@m& (0+255),f,b
  5724   0039EA  2B6E               	incf	(efgtoa@m+1)& (0+255),f,b
  5725   0039EC                     
  5726                           ; BSR set to: 0
  5727                           ;C:\Program Files\Microchip\xc8\v3.00\pic\sources\c99\common\doprnt.c: 717:     };C:\Pro
      +                          gram Files\Microchip\xc8\v3.00\pic\sources\c99\common\doprnt.c: 721:     if (nmode == 'f
      +                          ') {
  5728   0039EC  0E66               	movlw	102
  5729   0039EE  196A               	xorwf	efgtoa@nmode& (0+255),w,b
  5730   0039F0  A4D8               	btfss	status,2,c
  5731   0039F2  EFFD  F01C         	goto	u4111
  5732   0039F6  EFFF  F01C         	goto	u4110
  5733   0039FA                     u4111:
  5734   0039FA  EF1F  F01D         	goto	l3791
  5735   0039FE                     u4110:
  5736   0039FE                     
  5737                           ; BSR set to: 0
  5738                           ;C:\Program Files\Microchip\xc8\v3.00\pic\sources\c99\common\doprnt.c: 722:         if (
      +                          e < 0) {
  5739   0039FE  BF70               	btfsc	(efgtoa@e+1)& (0+255),7,b
  5740   003A00  EF06  F01D         	goto	u4120
  5741   003A04  EF04  F01D         	goto	u4121
  5742   003A08                     u4121:
  5743   003A08  EF12  F01D         	goto	l3787
  5744   003A0C                     u4120:
  5745   003A0C                     
  5746                           ; BSR set to: 0
  5747                           ;C:\Program Files\Microchip\xc8\v3.00\pic\sources\c99\common\doprnt.c: 723:             
      +                          u.f = 1.0;
  5748   003A0C  0E00               	movlw	0
  5749   003A0E  6F88               	movwf	efgtoa@u& (0+255),b
  5750   003A10  0E00               	movlw	0
  5751   003A12  6F89               	movwf	(efgtoa@u+1)& (0+255),b
  5752   003A14  0E80               	movlw	128
  5753   003A16  6F8A               	movwf	(efgtoa@u+2)& (0+255),b
  5754   003A18  0E3F               	movlw	63
  5755   003A1A  6F8B               	movwf	(efgtoa@u+3)& (0+255),b
  5756                           
  5757                           ;C:\Program Files\Microchip\xc8\v3.00\pic\sources\c99\common\doprnt.c: 724:             
      +                          e = 0;
  5758   003A1C  0E00               	movlw	0
  5759   003A1E  6F70               	movwf	(efgtoa@e+1)& (0+255),b
  5760   003A20  0E00               	movlw	0
  5761   003A22  6F6F               	movwf	efgtoa@e& (0+255),b
  5762   003A24                     l3787:
  5763                           
  5764                           ; BSR set to: 0
  5765                           ;C:\Program Files\Microchip\xc8\v3.00\pic\sources\c99\common\doprnt.c: 726:         if (
      +                          !(mode == 'g')) {
  5766   003A24  0E67               	movlw	103
  5767   003A26  1969               	xorwf	efgtoa@mode& (0+255),w,b
  5768   003A28  B4D8               	btfsc	status,2,c
  5769   003A2A  EF19  F01D         	goto	u4131
  5770   003A2E  EF1B  F01D         	goto	u4130
  5771   003A32                     u4131:
  5772   003A32  EF1F  F01D         	goto	l3791
  5773   003A36                     u4130:
  5774   003A36                     
  5775                           ; BSR set to: 0
  5776                           ;C:\Program Files\Microchip\xc8\v3.00\pic\sources\c99\common\doprnt.c: 727:             
      +                          m += e;
  5777   003A36  516F               	movf	efgtoa@e& (0+255),w,b
  5778   003A38  276D               	addwf	efgtoa@m& (0+255),f,b
  5779   003A3A  5170               	movf	(efgtoa@e+1)& (0+255),w,b
  5780   003A3C  236E               	addwfc	(efgtoa@m+1)& (0+255),f,b
  5781   003A3E                     l3791:
  5782                           
  5783                           ; BSR set to: 0
  5784                           ;C:\Program Files\Microchip\xc8\v3.00\pic\sources\c99\common\doprnt.c: 733:     i = 0;
  5785   003A3E  0E00               	movlw	0
  5786   003A40  6F78               	movwf	(efgtoa@i+1)& (0+255),b
  5787   003A42  0E00               	movlw	0
  5788   003A44  6F77               	movwf	efgtoa@i& (0+255),b
  5789   003A46                     
  5790                           ; BSR set to: 0
  5791                           ;C:\Program Files\Microchip\xc8\v3.00\pic\sources\c99\common\doprnt.c: 734:     h = g.f;
  5792   003A46  C084  F079         	movff	efgtoa@g,efgtoa@h
  5793   003A4A  C085  F07A         	movff	efgtoa@g+1,efgtoa@h+1
  5794   003A4E  C086  F07B         	movff	efgtoa@g+2,efgtoa@h+2
  5795   003A52  C087  F07C         	movff	efgtoa@g+3,efgtoa@h+3
  5796   003A56                     
  5797                           ; BSR set to: 0
  5798                           ;C:\Program Files\Microchip\xc8\v3.00\pic\sources\c99\common\doprnt.c: 735:     ou = u;
  5799   003A56  C088  F073         	movff	efgtoa@u,efgtoa@ou
  5800   003A5A  C089  F074         	movff	efgtoa@u+1,efgtoa@ou+1
  5801   003A5E  C08A  F075         	movff	efgtoa@u+2,efgtoa@ou+2
  5802   003A62  C08B  F076         	movff	efgtoa@u+3,efgtoa@ou+3
  5803                           
  5804                           ;C:\Program Files\Microchip\xc8\v3.00\pic\sources\c99\common\doprnt.c: 736:     while (i
      +                           < m) {
  5805   003A66  EFB0  F01D         	goto	l3805
  5806   003A6A                     l3797:
  5807                           
  5808                           ; BSR set to: 0
  5809                           ;C:\Program Files\Microchip\xc8\v3.00\pic\sources\c99\common\doprnt.c: 737:         l = 
      +                          floorf(h/u.f);
  5810   003A6A  C079  F001         	movff	efgtoa@h,___fldiv@b
  5811   003A6E  C07A  F002         	movff	efgtoa@h+1,___fldiv@b+1
  5812   003A72  C07B  F003         	movff	efgtoa@h+2,___fldiv@b+2
  5813   003A76  C07C  F004         	movff	efgtoa@h+3,___fldiv@b+3
  5814   003A7A  C088  F005         	movff	efgtoa@u,___fldiv@a
  5815   003A7E  C089  F006         	movff	efgtoa@u+1,___fldiv@a+1
  5816   003A82  C08A  F007         	movff	efgtoa@u+2,___fldiv@a+2
  5817   003A86  C08B  F008         	movff	efgtoa@u+3,___fldiv@a+3
  5818   003A8A  EC8B  F024         	call	___fldiv	;wreg free
  5819   003A8E  C001  F01A         	movff	?___fldiv,floorf@x
  5820   003A92  C002  F01B         	movff	?___fldiv+1,floorf@x+1
  5821   003A96  C003  F01C         	movff	?___fldiv+2,floorf@x+2
  5822   003A9A  C004  F01D         	movff	?___fldiv+3,floorf@x+3
  5823   003A9E  ECB6  F027         	call	_floorf	;wreg free
  5824   003AA2  C01A  F07D         	movff	?_floorf,efgtoa@l
  5825   003AA6  C01B  F07E         	movff	?_floorf+1,efgtoa@l+1
  5826   003AAA  C01C  F07F         	movff	?_floorf+2,efgtoa@l+2
  5827   003AAE  C01D  F080         	movff	?_floorf+3,efgtoa@l+3
  5828                           
  5829                           ;C:\Program Files\Microchip\xc8\v3.00\pic\sources\c99\common\doprnt.c: 738:         d = 
      +                          (int)l;
  5830   003AB2  C07D  F001         	movff	efgtoa@l,___fltol@f1
  5831   003AB6  C07E  F002         	movff	efgtoa@l+1,___fltol@f1+1
  5832   003ABA  C07F  F003         	movff	efgtoa@l+2,___fltol@f1+2
  5833   003ABE  C080  F004         	movff	efgtoa@l+3,___fltol@f1+3
  5834   003AC2  EC56  F02A         	call	___fltol	;wreg free
  5835   003AC6  C001  F06B         	movff	?___fltol,efgtoa@d
  5836   003ACA  C002  F06C         	movff	?___fltol+1,efgtoa@d+1
  5837   003ACE                     
  5838                           ;C:\Program Files\Microchip\xc8\v3.00\pic\sources\c99\common\doprnt.c: 739:         h -=
      +                           l*u.f;
  5839   003ACE  C079  F028         	movff	efgtoa@h,___flsub@b
  5840   003AD2  C07A  F029         	movff	efgtoa@h+1,___flsub@b+1
  5841   003AD6  C07B  F02A         	movff	efgtoa@h+2,___flsub@b+2
  5842   003ADA  C07C  F02B         	movff	efgtoa@h+3,___flsub@b+3
  5843   003ADE  C07D  F013         	movff	efgtoa@l,___flmul@a
  5844   003AE2  C07E  F014         	movff	efgtoa@l+1,___flmul@a+1
  5845   003AE6  C07F  F015         	movff	efgtoa@l+2,___flmul@a+2
  5846   003AEA  C080  F016         	movff	efgtoa@l+3,___flmul@a+3
  5847   003AEE  C088  F00F         	movff	efgtoa@u,___flmul@b
  5848   003AF2  C089  F010         	movff	efgtoa@u+1,___flmul@b+1
  5849   003AF6  C08A  F011         	movff	efgtoa@u+2,___flmul@b+2
  5850   003AFA  C08B  F012         	movff	efgtoa@u+3,___flmul@b+3
  5851   003AFE  EC66  F022         	call	___flmul	;wreg free
  5852   003B02  C00F  F02C         	movff	?___flmul,___flsub@a
  5853   003B06  C010  F02D         	movff	?___flmul+1,___flsub@a+1
  5854   003B0A  C011  F02E         	movff	?___flmul+2,___flsub@a+2
  5855   003B0E  C012  F02F         	movff	?___flmul+3,___flsub@a+3
  5856   003B12  EC58  F02F         	call	___flsub	;wreg free
  5857   003B16  C028  F079         	movff	?___flsub,efgtoa@h
  5858   003B1A  C029  F07A         	movff	?___flsub+1,efgtoa@h+1
  5859   003B1E  C02A  F07B         	movff	?___flsub+2,efgtoa@h+2
  5860   003B22  C02B  F07C         	movff	?___flsub+3,efgtoa@h+3
  5861   003B26                     
  5862                           ;C:\Program Files\Microchip\xc8\v3.00\pic\sources\c99\common\doprnt.c: 740:         u.f 
      +                          = u.f/10.0;
  5863   003B26  C088  F001         	movff	efgtoa@u,___fldiv@b
  5864   003B2A  C089  F002         	movff	efgtoa@u+1,___fldiv@b+1
  5865   003B2E  C08A  F003         	movff	efgtoa@u+2,___fldiv@b+2
  5866   003B32  C08B  F004         	movff	efgtoa@u+3,___fldiv@b+3
  5867   003B36  0E00               	movlw	0
  5868   003B38  6E05               	movwf	___fldiv@a^0,c
  5869   003B3A  0E00               	movlw	0
  5870   003B3C  6E06               	movwf	(___fldiv@a+1)^0,c
  5871   003B3E  0E20               	movlw	32
  5872   003B40  6E07               	movwf	(___fldiv@a+2)^0,c
  5873   003B42  0E41               	movlw	65
  5874   003B44  6E08               	movwf	(___fldiv@a+3)^0,c
  5875   003B46  EC8B  F024         	call	___fldiv	;wreg free
  5876   003B4A  C001  F088         	movff	?___fldiv,efgtoa@u
  5877   003B4E  C002  F089         	movff	?___fldiv+1,efgtoa@u+1
  5878   003B52  C003  F08A         	movff	?___fldiv+2,efgtoa@u+2
  5879   003B56  C004  F08B         	movff	?___fldiv+3,efgtoa@u+3
  5880   003B5A                     
  5881                           ;C:\Program Files\Microchip\xc8\v3.00\pic\sources\c99\common\doprnt.c: 741:         ++i;
  5882   003B5A  0100               	movlb	0	; () banked
  5883   003B5C  4B77               	infsnz	efgtoa@i& (0+255),f,b
  5884   003B5E  2B78               	incf	(efgtoa@i+1)& (0+255),f,b
  5885   003B60                     l3805:
  5886                           
  5887                           ; BSR set to: 0
  5888                           ;C:\Program Files\Microchip\xc8\v3.00\pic\sources\c99\common\doprnt.c: 736:     while (i
      +                           < m) {
  5889   003B60  516D               	movf	efgtoa@m& (0+255),w,b
  5890   003B62  5D77               	subwf	efgtoa@i& (0+255),w,b
  5891   003B64  5178               	movf	(efgtoa@i+1)& (0+255),w,b
  5892   003B66  0A80               	xorlw	128
  5893   003B68  6E3A               	movwf	??_efgtoa^0,c
  5894   003B6A  516E               	movf	(efgtoa@m+1)& (0+255),w,b
  5895   003B6C  0A80               	xorlw	128
  5896   003B6E  583A               	subwfb	??_efgtoa^0,w,c
  5897   003B70  A0D8               	btfss	status,0,c
  5898   003B72  EFBD  F01D         	goto	u4141
  5899   003B76  EFBF  F01D         	goto	u4140
  5900   003B7A                     u4141:
  5901   003B7A  EF35  F01D         	goto	l3797
  5902   003B7E                     u4140:
  5903   003B7E                     
  5904                           ; BSR set to: 0
  5905                           ;C:\Program Files\Microchip\xc8\v3.00\pic\sources\c99\common\doprnt.c: 745:     l = u.f*
      +                          5.0;
  5906   003B7E  C088  F00F         	movff	efgtoa@u,___flmul@b
  5907   003B82  C089  F010         	movff	efgtoa@u+1,___flmul@b+1
  5908   003B86  C08A  F011         	movff	efgtoa@u+2,___flmul@b+2
  5909   003B8A  C08B  F012         	movff	efgtoa@u+3,___flmul@b+3
  5910   003B8E  0E00               	movlw	0
  5911   003B90  6E13               	movwf	___flmul@a^0,c
  5912   003B92  0E00               	movlw	0
  5913   003B94  6E14               	movwf	(___flmul@a+1)^0,c
  5914   003B96  0EA0               	movlw	160
  5915   003B98  6E15               	movwf	(___flmul@a+2)^0,c
  5916   003B9A  0E40               	movlw	64
  5917   003B9C  6E16               	movwf	(___flmul@a+3)^0,c
  5918   003B9E  EC66  F022         	call	___flmul	;wreg free
  5919   003BA2  C00F  F07D         	movff	?___flmul,efgtoa@l
  5920   003BA6  C010  F07E         	movff	?___flmul+1,efgtoa@l+1
  5921   003BAA  C011  F07F         	movff	?___flmul+2,efgtoa@l+2
  5922   003BAE  C012  F080         	movff	?___flmul+3,efgtoa@l+3
  5923   003BB2                     
  5924                           ;C:\Program Files\Microchip\xc8\v3.00\pic\sources\c99\common\doprnt.c: 746:     if (h < 
      +                          l) {
  5925   003BB2  C079  F028         	movff	efgtoa@h,___flge@ff1
  5926   003BB6  C07A  F029         	movff	efgtoa@h+1,___flge@ff1+1
  5927   003BBA  C07B  F02A         	movff	efgtoa@h+2,___flge@ff1+2
  5928   003BBE  C07C  F02B         	movff	efgtoa@h+3,___flge@ff1+3
  5929   003BC2  C07D  F02C         	movff	efgtoa@l,___flge@ff2
  5930   003BC6  C07E  F02D         	movff	efgtoa@l+1,___flge@ff2+1
  5931   003BCA  C07F  F02E         	movff	efgtoa@l+2,___flge@ff2+2
  5932   003BCE  C080  F02F         	movff	efgtoa@l+3,___flge@ff2+3
  5933   003BD2  ECD9  F02A         	call	___flge	;wreg free
  5934   003BD6  B0D8               	btfsc	status,0,c
  5935   003BD8  EFF0  F01D         	goto	u4151
  5936   003BDC  EFF2  F01D         	goto	u4150
  5937   003BE0                     u4151:
  5938   003BE0  EFFD  F01D         	goto	l3813
  5939   003BE4                     u4150:
  5940   003BE4                     
  5941                           ;C:\Program Files\Microchip\xc8\v3.00\pic\sources\c99\common\doprnt.c: 747:         l = 
      +                          0.0;
  5942   003BE4  0E00               	movlw	0
  5943   003BE6  0100               	movlb	0	; () banked
  5944   003BE8  6F7D               	movwf	efgtoa@l& (0+255),b
  5945   003BEA  0E00               	movlw	0
  5946   003BEC  6F7E               	movwf	(efgtoa@l+1)& (0+255),b
  5947   003BEE  0E00               	movlw	0
  5948   003BF0  6F7F               	movwf	(efgtoa@l+2)& (0+255),b
  5949   003BF2  0E00               	movlw	0
  5950   003BF4  6F80               	movwf	(efgtoa@l+3)& (0+255),b
  5951                           
  5952                           ;C:\Program Files\Microchip\xc8\v3.00\pic\sources\c99\common\doprnt.c: 748:     } else {
  5953   003BF6  EF26  F01E         	goto	l3819
  5954   003BFA                     l3813:
  5955                           
  5956                           ;C:\Program Files\Microchip\xc8\v3.00\pic\sources\c99\common\doprnt.c: 750:         if (
      +                          (h == l) && !(d % 2)) {
  5957   003BFA  C079  F00F         	movff	efgtoa@h,___fleq@ff1
  5958   003BFE  C07A  F010         	movff	efgtoa@h+1,___fleq@ff1+1
  5959   003C02  C07B  F011         	movff	efgtoa@h+2,___fleq@ff1+2
  5960   003C06  C07C  F012         	movff	efgtoa@h+3,___fleq@ff1+3
  5961   003C0A  C07D  F013         	movff	efgtoa@l,___fleq@ff2
  5962   003C0E  C07E  F014         	movff	efgtoa@l+1,___fleq@ff2+1
  5963   003C12  C07F  F015         	movff	efgtoa@l+2,___fleq@ff2+2
  5964   003C16  C080  F016         	movff	efgtoa@l+3,___fleq@ff2+3
  5965   003C1A  EC44  F02D         	call	___fleq	;wreg free
  5966   003C1E  A0D8               	btfss	status,0,c
  5967   003C20  EF14  F01E         	goto	u4161
  5968   003C24  EF16  F01E         	goto	u4160
  5969   003C28                     u4161:
  5970   003C28  EF26  F01E         	goto	l3819
  5971   003C2C                     u4160:
  5972   003C2C  0100               	movlb	0	; () banked
  5973   003C2E  B16B               	btfsc	efgtoa@d& (0+255),0,b
  5974   003C30  EF1C  F01E         	goto	u4171
  5975   003C34  EF1E  F01E         	goto	u4170
  5976   003C38                     u4171:
  5977   003C38  EF26  F01E         	goto	l3819
  5978   003C3C                     u4170:
  5979   003C3C                     
  5980                           ; BSR set to: 0
  5981                           ;C:\Program Files\Microchip\xc8\v3.00\pic\sources\c99\common\doprnt.c: 751:             
      +                          l = 0.0;
  5982   003C3C  0E00               	movlw	0
  5983   003C3E  6F7D               	movwf	efgtoa@l& (0+255),b
  5984   003C40  0E00               	movlw	0
  5985   003C42  6F7E               	movwf	(efgtoa@l+1)& (0+255),b
  5986   003C44  0E00               	movlw	0
  5987   003C46  6F7F               	movwf	(efgtoa@l+2)& (0+255),b
  5988   003C48  0E00               	movlw	0
  5989   003C4A  6F80               	movwf	(efgtoa@l+3)& (0+255),b
  5990   003C4C                     l3819:
  5991                           
  5992                           ;C:\Program Files\Microchip\xc8\v3.00\pic\sources\c99\common\doprnt.c: 756:     h = g.f 
      +                          + l;
  5993   003C4C  C084  F001         	movff	efgtoa@g,___fladd@b
  5994   003C50  C085  F002         	movff	efgtoa@g+1,___fladd@b+1
  5995   003C54  C086  F003         	movff	efgtoa@g+2,___fladd@b+2
  5996   003C58  C087  F004         	movff	efgtoa@g+3,___fladd@b+3
  5997   003C5C  C07D  F005         	movff	efgtoa@l,___fladd@a
  5998   003C60  C07E  F006         	movff	efgtoa@l+1,___fladd@a+1
  5999   003C64  C07F  F007         	movff	efgtoa@l+2,___fladd@a+2
  6000   003C68  C080  F008         	movff	efgtoa@l+3,___fladd@a+3
  6001   003C6C  EC0B  F020         	call	___fladd	;wreg free
  6002   003C70  C001  F079         	movff	?___fladd,efgtoa@h
  6003   003C74  C002  F07A         	movff	?___fladd+1,efgtoa@h+1
  6004   003C78  C003  F07B         	movff	?___fladd+2,efgtoa@h+2
  6005   003C7C  C004  F07C         	movff	?___fladd+3,efgtoa@h+3
  6006   003C80                     
  6007                           ;C:\Program Files\Microchip\xc8\v3.00\pic\sources\c99\common\doprnt.c: 758:  if (h >= (o
      +                          u.f*10.0)) {
  6008   003C80  C079  F028         	movff	efgtoa@h,___flge@ff1
  6009   003C84  C07A  F029         	movff	efgtoa@h+1,___flge@ff1+1
  6010   003C88  C07B  F02A         	movff	efgtoa@h+2,___flge@ff1+2
  6011   003C8C  C07C  F02B         	movff	efgtoa@h+3,___flge@ff1+3
  6012   003C90  0E00               	movlw	0
  6013   003C92  6E13               	movwf	___flmul@a^0,c
  6014   003C94  0E00               	movlw	0
  6015   003C96  6E14               	movwf	(___flmul@a+1)^0,c
  6016   003C98  0E20               	movlw	32
  6017   003C9A  6E15               	movwf	(___flmul@a+2)^0,c
  6018   003C9C  0E41               	movlw	65
  6019   003C9E  6E16               	movwf	(___flmul@a+3)^0,c
  6020   003CA0  C073  F00F         	movff	efgtoa@ou,___flmul@b
  6021   003CA4  C074  F010         	movff	efgtoa@ou+1,___flmul@b+1
  6022   003CA8  C075  F011         	movff	efgtoa@ou+2,___flmul@b+2
  6023   003CAC  C076  F012         	movff	efgtoa@ou+3,___flmul@b+3
  6024   003CB0  EC66  F022         	call	___flmul	;wreg free
  6025   003CB4  C00F  F02C         	movff	?___flmul,___flge@ff2
  6026   003CB8  C010  F02D         	movff	?___flmul+1,___flge@ff2+1
  6027   003CBC  C011  F02E         	movff	?___flmul+2,___flge@ff2+2
  6028   003CC0  C012  F02F         	movff	?___flmul+3,___flge@ff2+3
  6029   003CC4  ECD9  F02A         	call	___flge	;wreg free
  6030   003CC8  A0D8               	btfss	status,0,c
  6031   003CCA  EF69  F01E         	goto	u4181
  6032   003CCE  EF6B  F01E         	goto	u4180
  6033   003CD2                     u4181:
  6034   003CD2  EF94  F01E         	goto	l3831
  6035   003CD6                     u4180:
  6036   003CD6                     
  6037                           ;C:\Program Files\Microchip\xc8\v3.00\pic\sources\c99\common\doprnt.c: 759:   e++;
  6038   003CD6  0100               	movlb	0	; () banked
  6039   003CD8  4B6F               	infsnz	efgtoa@e& (0+255),f,b
  6040   003CDA  2B70               	incf	(efgtoa@e+1)& (0+255),f,b
  6041   003CDC                     
  6042                           ; BSR set to: 0
  6043                           ;C:\Program Files\Microchip\xc8\v3.00\pic\sources\c99\common\doprnt.c: 760:   ou.f *= 10
      +                          .0;
  6044   003CDC  C073  F00F         	movff	efgtoa@ou,___flmul@b
  6045   003CE0  C074  F010         	movff	efgtoa@ou+1,___flmul@b+1
  6046   003CE4  C075  F011         	movff	efgtoa@ou+2,___flmul@b+2
  6047   003CE8  C076  F012         	movff	efgtoa@ou+3,___flmul@b+3
  6048   003CEC  0E00               	movlw	0
  6049   003CEE  6E13               	movwf	___flmul@a^0,c
  6050   003CF0  0E00               	movlw	0
  6051   003CF2  6E14               	movwf	(___flmul@a+1)^0,c
  6052   003CF4  0E20               	movlw	32
  6053   003CF6  6E15               	movwf	(___flmul@a+2)^0,c
  6054   003CF8  0E41               	movlw	65
  6055   003CFA  6E16               	movwf	(___flmul@a+3)^0,c
  6056   003CFC  EC66  F022         	call	___flmul	;wreg free
  6057   003D00  C00F  F073         	movff	?___flmul,efgtoa@ou
  6058   003D04  C010  F074         	movff	?___flmul+1,efgtoa@ou+1
  6059   003D08  C011  F075         	movff	?___flmul+2,efgtoa@ou+2
  6060   003D0C  C012  F076         	movff	?___flmul+3,efgtoa@ou+3
  6061   003D10                     
  6062                           ;C:\Program Files\Microchip\xc8\v3.00\pic\sources\c99\common\doprnt.c: 762:   if (nmode 
      +                          == 'f') {
  6063   003D10  0E66               	movlw	102
  6064   003D12  0100               	movlb	0	; () banked
  6065   003D14  196A               	xorwf	efgtoa@nmode& (0+255),w,b
  6066   003D16  A4D8               	btfss	status,2,c
  6067   003D18  EF90  F01E         	goto	u4191
  6068   003D1C  EF92  F01E         	goto	u4190
  6069   003D20                     u4191:
  6070   003D20  EF94  F01E         	goto	l3831
  6071   003D24                     u4190:
  6072   003D24                     
  6073                           ; BSR set to: 0
  6074                           ;C:\Program Files\Microchip\xc8\v3.00\pic\sources\c99\common\doprnt.c: 764:    m++;
  6075   003D24  4B6D               	infsnz	efgtoa@m& (0+255),f,b
  6076   003D26  2B6E               	incf	(efgtoa@m+1)& (0+255),f,b
  6077   003D28                     l3831:
  6078                           
  6079                           ;C:\Program Files\Microchip\xc8\v3.00\pic\sources\c99\common\doprnt.c: 770:     u = ou;
  6080   003D28  C073  F088         	movff	efgtoa@ou,efgtoa@u
  6081   003D2C  C074  F089         	movff	efgtoa@ou+1,efgtoa@u+1
  6082   003D30  C075  F08A         	movff	efgtoa@ou+2,efgtoa@u+2
  6083   003D34  C076  F08B         	movff	efgtoa@ou+3,efgtoa@u+3
  6084   003D38                     
  6085                           ;C:\Program Files\Microchip\xc8\v3.00\pic\sources\c99\common\doprnt.c: 774:  ne = e;
  6086   003D38  C06F  F060         	movff	efgtoa@e,efgtoa@ne
  6087   003D3C  C070  F061         	movff	efgtoa@e+1,efgtoa@ne+1
  6088   003D40                     
  6089                           ;C:\Program Files\Microchip\xc8\v3.00\pic\sources\c99\common\doprnt.c: 776:     pp = 0;
  6090   003D40  0100               	movlb	0	; () banked
  6091   003D42  6B68               	clrf	efgtoa@pp& (0+255),b
  6092   003D44                     
  6093                           ; BSR set to: 0
  6094                           ;C:\Program Files\Microchip\xc8\v3.00\pic\sources\c99\common\doprnt.c: 777:     t = 0;
  6095   003D44  0E00               	movlw	0
  6096   003D46  6F65               	movwf	(efgtoa@t+1)& (0+255),b
  6097   003D48  0E00               	movlw	0
  6098   003D4A  6F64               	movwf	efgtoa@t& (0+255),b
  6099   003D4C                     
  6100                           ; BSR set to: 0
  6101                           ;C:\Program Files\Microchip\xc8\v3.00\pic\sources\c99\common\doprnt.c: 778:     i = 0;
  6102   003D4C  0E00               	movlw	0
  6103   003D4E  6F78               	movwf	(efgtoa@i+1)& (0+255),b
  6104   003D50  0E00               	movlw	0
  6105   003D52  6F77               	movwf	efgtoa@i& (0+255),b
  6106                           
  6107                           ;C:\Program Files\Microchip\xc8\v3.00\pic\sources\c99\common\doprnt.c: 779:     while ((
      +                          i < m) && (n < (80 - 5))) {
  6108   003D54  EF91  F01F         	goto	l3881
  6109   003D58                     l3841:
  6110                           
  6111                           ; BSR set to: 0
  6112                           ;C:\Program Files\Microchip\xc8\v3.00\pic\sources\c99\common\doprnt.c: 780:         l = 
      +                          floorf(h/u.f);
  6113   003D58  C079  F001         	movff	efgtoa@h,___fldiv@b
  6114   003D5C  C07A  F002         	movff	efgtoa@h+1,___fldiv@b+1
  6115   003D60  C07B  F003         	movff	efgtoa@h+2,___fldiv@b+2
  6116   003D64  C07C  F004         	movff	efgtoa@h+3,___fldiv@b+3
  6117   003D68  C088  F005         	movff	efgtoa@u,___fldiv@a
  6118   003D6C  C089  F006         	movff	efgtoa@u+1,___fldiv@a+1
  6119   003D70  C08A  F007         	movff	efgtoa@u+2,___fldiv@a+2
  6120   003D74  C08B  F008         	movff	efgtoa@u+3,___fldiv@a+3
  6121   003D78  EC8B  F024         	call	___fldiv	;wreg free
  6122   003D7C  C001  F01A         	movff	?___fldiv,floorf@x
  6123   003D80  C002  F01B         	movff	?___fldiv+1,floorf@x+1
  6124   003D84  C003  F01C         	movff	?___fldiv+2,floorf@x+2
  6125   003D88  C004  F01D         	movff	?___fldiv+3,floorf@x+3
  6126   003D8C  ECB6  F027         	call	_floorf	;wreg free
  6127   003D90  C01A  F07D         	movff	?_floorf,efgtoa@l
  6128   003D94  C01B  F07E         	movff	?_floorf+1,efgtoa@l+1
  6129   003D98  C01C  F07F         	movff	?_floorf+2,efgtoa@l+2
  6130   003D9C  C01D  F080         	movff	?_floorf+3,efgtoa@l+3
  6131                           
  6132                           ;C:\Program Files\Microchip\xc8\v3.00\pic\sources\c99\common\doprnt.c: 781:         d = 
      +                          (int)l > 9 ? 9 : (int)l;
  6133   003DA0  C07D  F001         	movff	efgtoa@l,___fltol@f1
  6134   003DA4  C07E  F002         	movff	efgtoa@l+1,___fltol@f1+1
  6135   003DA8  C07F  F003         	movff	efgtoa@l+2,___fltol@f1+2
  6136   003DAC  C080  F004         	movff	efgtoa@l+3,___fltol@f1+3
  6137   003DB0  EC56  F02A         	call	___fltol	;wreg free
  6138   003DB4  BE02               	btfsc	(?___fltol+1)^0,7,c
  6139   003DB6  EFE8  F01E         	goto	u4200
  6140   003DBA  5002               	movf	(?___fltol+1)^0,w,c
  6141   003DBC  E107               	bnz	u4201
  6142   003DBE  0E0A               	movlw	10
  6143   003DC0  5C01               	subwf	?___fltol^0,w,c
  6144   003DC2  B0D8               	btfsc	status,0,c
  6145   003DC4  EFE6  F01E         	goto	u4201
  6146   003DC8  EFE8  F01E         	goto	u4200
  6147   003DCC                     u4201:
  6148   003DCC  EFF8  F01E         	goto	l3845
  6149   003DD0                     u4200:
  6150   003DD0  C07D  F001         	movff	efgtoa@l,___fltol@f1
  6151   003DD4  C07E  F002         	movff	efgtoa@l+1,___fltol@f1+1
  6152   003DD8  C07F  F003         	movff	efgtoa@l+2,___fltol@f1+2
  6153   003DDC  C080  F004         	movff	efgtoa@l+3,___fltol@f1+3
  6154   003DE0  EC56  F02A         	call	___fltol	;wreg free
  6155   003DE4  C001  F06B         	movff	?___fltol,efgtoa@d
  6156   003DE8  C002  F06C         	movff	?___fltol+1,efgtoa@d+1
  6157   003DEC  EFFD  F01E         	goto	l958
  6158   003DF0                     l3845:
  6159   003DF0  0E00               	movlw	0
  6160   003DF2  0100               	movlb	0	; () banked
  6161   003DF4  6F6C               	movwf	(efgtoa@d+1)& (0+255),b
  6162   003DF6  0E09               	movlw	9
  6163   003DF8  6F6B               	movwf	efgtoa@d& (0+255),b
  6164   003DFA                     l958:
  6165                           
  6166                           ;C:\Program Files\Microchip\xc8\v3.00\pic\sources\c99\common\doprnt.c: 792:   {;C:\Progr
      +                          am Files\Microchip\xc8\v3.00\pic\sources\c99\common\doprnt.c: 793:             if (!pp &
      +                          & (ne < 0)) {
  6167   003DFA  0100               	movlb	0	; () banked
  6168   003DFC  5168               	movf	efgtoa@pp& (0+255),w,b
  6169   003DFE  A4D8               	btfss	status,2,c
  6170   003E00  EF04  F01F         	goto	u4211
  6171   003E04  EF06  F01F         	goto	u4210
  6172   003E08                     u4211:
  6173   003E08  EF2E  F01F         	goto	l3865
  6174   003E0C                     u4210:
  6175   003E0C                     
  6176                           ; BSR set to: 0
  6177   003E0C  BF61               	btfsc	(efgtoa@ne+1)& (0+255),7,b
  6178   003E0E  EF0D  F01F         	goto	u4220
  6179   003E12  EF0B  F01F         	goto	u4221
  6180   003E16                     u4221:
  6181   003E16  EF2E  F01F         	goto	l3865
  6182   003E1A                     u4220:
  6183   003E1A                     
  6184                           ; BSR set to: 0
  6185                           ;C:\Program Files\Microchip\xc8\v3.00\pic\sources\c99\common\doprnt.c: 794:             
      +                              dbuf[n++] = '.';
  6186   003E1A  0E00               	movlw	low _dbuf
  6187   003E1C  2582               	addwf	efgtoa@n& (0+255),w,b
  6188   003E1E  6ED9               	movwf	fsr2l,c
  6189   003E20  0E01               	movlw	high _dbuf
  6190   003E22  2183               	addwfc	(efgtoa@n+1)& (0+255),w,b
  6191   003E24  6EDA               	movwf	fsr2h,c
  6192   003E26  0E2E               	movlw	46
  6193   003E28  6EDF               	movwf	indf2,c
  6194   003E2A                     
  6195                           ; BSR set to: 0
  6196   003E2A  4B82               	infsnz	efgtoa@n& (0+255),f,b
  6197   003E2C  2B83               	incf	(efgtoa@n+1)& (0+255),f,b
  6198   003E2E                     
  6199                           ; BSR set to: 0
  6200                           ;C:\Program Files\Microchip\xc8\v3.00\pic\sources\c99\common\doprnt.c: 795:             
      +                              --w;
  6201   003E2E  0771               	decf	efgtoa@w& (0+255),f,b
  6202   003E30  A0D8               	btfss	status,0,c
  6203   003E32  0772               	decf	(efgtoa@w+1)& (0+255),f,b
  6204   003E34                     
  6205                           ; BSR set to: 0
  6206                           ;C:\Program Files\Microchip\xc8\v3.00\pic\sources\c99\common\doprnt.c: 796:             
      +                              pp = 1;
  6207   003E34  0E01               	movlw	1
  6208   003E36  6F68               	movwf	efgtoa@pp& (0+255),b
  6209   003E38  EF2E  F01F         	goto	l3865
  6210   003E3C                     l3857:
  6211                           
  6212                           ; BSR set to: 0
  6213                           ;C:\Program Files\Microchip\xc8\v3.00\pic\sources\c99\common\doprnt.c: 799:             
      +                              dbuf[n++] = '0';
  6214   003E3C  0E00               	movlw	low _dbuf
  6215   003E3E  2582               	addwf	efgtoa@n& (0+255),w,b
  6216   003E40  6ED9               	movwf	fsr2l,c
  6217   003E42  0E01               	movlw	high _dbuf
  6218   003E44  2183               	addwfc	(efgtoa@n+1)& (0+255),w,b
  6219   003E46  6EDA               	movwf	fsr2h,c
  6220   003E48  0E30               	movlw	48
  6221   003E4A  6EDF               	movwf	indf2,c
  6222   003E4C                     
  6223                           ; BSR set to: 0
  6224   003E4C  4B82               	infsnz	efgtoa@n& (0+255),f,b
  6225   003E4E  2B83               	incf	(efgtoa@n+1)& (0+255),f,b
  6226   003E50                     
  6227                           ; BSR set to: 0
  6228                           ;C:\Program Files\Microchip\xc8\v3.00\pic\sources\c99\common\doprnt.c: 800:             
      +                              --w;
  6229   003E50  0771               	decf	efgtoa@w& (0+255),f,b
  6230   003E52  A0D8               	btfss	status,0,c
  6231   003E54  0772               	decf	(efgtoa@w+1)& (0+255),f,b
  6232   003E56                     
  6233                           ; BSR set to: 0
  6234                           ;C:\Program Files\Microchip\xc8\v3.00\pic\sources\c99\common\doprnt.c: 801:             
      +                              --t;
  6235   003E56  0764               	decf	efgtoa@t& (0+255),f,b
  6236   003E58  A0D8               	btfss	status,0,c
  6237   003E5A  0765               	decf	(efgtoa@t+1)& (0+255),f,b
  6238   003E5C                     l3865:
  6239                           
  6240                           ; BSR set to: 0
  6241                           ;C:\Program Files\Microchip\xc8\v3.00\pic\sources\c99\common\doprnt.c: 798:             
      +                          while (t) {
  6242   003E5C  5164               	movf	efgtoa@t& (0+255),w,b
  6243   003E5E  1165               	iorwf	(efgtoa@t+1)& (0+255),w,b
  6244   003E60  A4D8               	btfss	status,2,c
  6245   003E62  EF35  F01F         	goto	u4231
  6246   003E66  EF37  F01F         	goto	u4230
  6247   003E6A                     u4231:
  6248   003E6A  EF1E  F01F         	goto	l3857
  6249   003E6E                     u4230:
  6250   003E6E                     
  6251                           ; BSR set to: 0
  6252                           ;C:\Program Files\Microchip\xc8\v3.00\pic\sources\c99\common\doprnt.c: 803:             
      +                          dbuf[n++] = (char)((int)'0' + d);
  6253   003E6E  0E00               	movlw	low _dbuf
  6254   003E70  2582               	addwf	efgtoa@n& (0+255),w,b
  6255   003E72  6ED9               	movwf	fsr2l,c
  6256   003E74  0E01               	movlw	high _dbuf
  6257   003E76  2183               	addwfc	(efgtoa@n+1)& (0+255),w,b
  6258   003E78  6EDA               	movwf	fsr2h,c
  6259   003E7A  516B               	movf	efgtoa@d& (0+255),w,b
  6260   003E7C  0F30               	addlw	48
  6261   003E7E  6EDF               	movwf	indf2,c
  6262   003E80                     
  6263                           ; BSR set to: 0
  6264   003E80  4B82               	infsnz	efgtoa@n& (0+255),f,b
  6265   003E82  2B83               	incf	(efgtoa@n+1)& (0+255),f,b
  6266   003E84                     
  6267                           ; BSR set to: 0
  6268                           ;C:\Program Files\Microchip\xc8\v3.00\pic\sources\c99\common\doprnt.c: 804:             
      +                          --w;
  6269   003E84  0771               	decf	efgtoa@w& (0+255),f,b
  6270   003E86  A0D8               	btfss	status,0,c
  6271   003E88  0772               	decf	(efgtoa@w+1)& (0+255),f,b
  6272   003E8A                     
  6273                           ; BSR set to: 0
  6274                           ;C:\Program Files\Microchip\xc8\v3.00\pic\sources\c99\common\doprnt.c: 805:         };C:
      +                          \Program Files\Microchip\xc8\v3.00\pic\sources\c99\common\doprnt.c: 806:         h -= l*
      +                          u.f;
  6275   003E8A  C079  F028         	movff	efgtoa@h,___flsub@b
  6276   003E8E  C07A  F029         	movff	efgtoa@h+1,___flsub@b+1
  6277   003E92  C07B  F02A         	movff	efgtoa@h+2,___flsub@b+2
  6278   003E96  C07C  F02B         	movff	efgtoa@h+3,___flsub@b+3
  6279   003E9A  C07D  F013         	movff	efgtoa@l,___flmul@a
  6280   003E9E  C07E  F014         	movff	efgtoa@l+1,___flmul@a+1
  6281   003EA2  C07F  F015         	movff	efgtoa@l+2,___flmul@a+2
  6282   003EA6  C080  F016         	movff	efgtoa@l+3,___flmul@a+3
  6283   003EAA  C088  F00F         	movff	efgtoa@u,___flmul@b
  6284   003EAE  C089  F010         	movff	efgtoa@u+1,___flmul@b+1
  6285   003EB2  C08A  F011         	movff	efgtoa@u+2,___flmul@b+2
  6286   003EB6  C08B  F012         	movff	efgtoa@u+3,___flmul@b+3
  6287   003EBA  EC66  F022         	call	___flmul	;wreg free
  6288   003EBE  C00F  F02C         	movff	?___flmul,___flsub@a
  6289   003EC2  C010  F02D         	movff	?___flmul+1,___flsub@a+1
  6290   003EC6  C011  F02E         	movff	?___flmul+2,___flsub@a+2
  6291   003ECA  C012  F02F         	movff	?___flmul+3,___flsub@a+3
  6292   003ECE  EC58  F02F         	call	___flsub	;wreg free
  6293   003ED2  C028  F079         	movff	?___flsub,efgtoa@h
  6294   003ED6  C029  F07A         	movff	?___flsub+1,efgtoa@h+1
  6295   003EDA  C02A  F07B         	movff	?___flsub+2,efgtoa@h+2
  6296   003EDE  C02B  F07C         	movff	?___flsub+3,efgtoa@h+3
  6297   003EE2                     
  6298                           ;C:\Program Files\Microchip\xc8\v3.00\pic\sources\c99\common\doprnt.c: 807:         u.f 
      +                          = u.f/10.0;
  6299   003EE2  C088  F001         	movff	efgtoa@u,___fldiv@b
  6300   003EE6  C089  F002         	movff	efgtoa@u+1,___fldiv@b+1
  6301   003EEA  C08A  F003         	movff	efgtoa@u+2,___fldiv@b+2
  6302   003EEE  C08B  F004         	movff	efgtoa@u+3,___fldiv@b+3
  6303   003EF2  0E00               	movlw	0
  6304   003EF4  6E05               	movwf	___fldiv@a^0,c
  6305   003EF6  0E00               	movlw	0
  6306   003EF8  6E06               	movwf	(___fldiv@a+1)^0,c
  6307   003EFA  0E20               	movlw	32
  6308   003EFC  6E07               	movwf	(___fldiv@a+2)^0,c
  6309   003EFE  0E41               	movlw	65
  6310   003F00  6E08               	movwf	(___fldiv@a+3)^0,c
  6311   003F02  EC8B  F024         	call	___fldiv	;wreg free
  6312   003F06  C001  F088         	movff	?___fldiv,efgtoa@u
  6313   003F0A  C002  F089         	movff	?___fldiv+1,efgtoa@u+1
  6314   003F0E  C003  F08A         	movff	?___fldiv+2,efgtoa@u+2
  6315   003F12  C004  F08B         	movff	?___fldiv+3,efgtoa@u+3
  6316   003F16                     
  6317                           ;C:\Program Files\Microchip\xc8\v3.00\pic\sources\c99\common\doprnt.c: 808:         --ne
      +                          ;
  6318   003F16  0100               	movlb	0	; () banked
  6319   003F18  0760               	decf	efgtoa@ne& (0+255),f,b
  6320   003F1A  A0D8               	btfss	status,0,c
  6321   003F1C  0761               	decf	(efgtoa@ne+1)& (0+255),f,b
  6322   003F1E                     
  6323                           ; BSR set to: 0
  6324                           ;C:\Program Files\Microchip\xc8\v3.00\pic\sources\c99\common\doprnt.c: 809:         ++i;
  6325   003F1E  4B77               	infsnz	efgtoa@i& (0+255),f,b
  6326   003F20  2B78               	incf	(efgtoa@i+1)& (0+255),f,b
  6327   003F22                     l3881:
  6328                           
  6329                           ; BSR set to: 0
  6330                           ;C:\Program Files\Microchip\xc8\v3.00\pic\sources\c99\common\doprnt.c: 779:     while ((
      +                          i < m) && (n < (80 - 5))) {
  6331   003F22  516D               	movf	efgtoa@m& (0+255),w,b
  6332   003F24  5D77               	subwf	efgtoa@i& (0+255),w,b
  6333   003F26  5178               	movf	(efgtoa@i+1)& (0+255),w,b
  6334   003F28  0A80               	xorlw	128
  6335   003F2A  6E3A               	movwf	??_efgtoa^0,c
  6336   003F2C  516E               	movf	(efgtoa@m+1)& (0+255),w,b
  6337   003F2E  0A80               	xorlw	128
  6338   003F30  583A               	subwfb	??_efgtoa^0,w,c
  6339   003F32  B0D8               	btfsc	status,0,c
  6340   003F34  EF9E  F01F         	goto	u4241
  6341   003F38  EFA0  F01F         	goto	u4240
  6342   003F3C                     u4241:
  6343   003F3C  EFAE  F01F         	goto	l3885
  6344   003F40                     u4240:
  6345   003F40                     
  6346                           ; BSR set to: 0
  6347   003F40  BF83               	btfsc	(efgtoa@n+1)& (0+255),7,b
  6348   003F42  EFAC  F01F         	goto	u4251
  6349   003F46  5183               	movf	(efgtoa@n+1)& (0+255),w,b
  6350   003F48  E109               	bnz	u4250
  6351   003F4A  0E4B               	movlw	75
  6352   003F4C  5D82               	subwf	efgtoa@n& (0+255),w,b
  6353   003F4E  A0D8               	btfss	status,0,c
  6354   003F50  EFAC  F01F         	goto	u4251
  6355   003F54  EFAE  F01F         	goto	u4250
  6356   003F58                     u4251:
  6357   003F58  EFAC  F01E         	goto	l3841
  6358   003F5C                     u4250:
  6359   003F5C                     l3885:
  6360                           
  6361                           ; BSR set to: 0
  6362                           ;C:\Program Files\Microchip\xc8\v3.00\pic\sources\c99\common\doprnt.c: 816:  i = sizeof(
      +                          dbuf) - 1;
  6363   003F5C  0E00               	movlw	0
  6364   003F5E  6F78               	movwf	(efgtoa@i+1)& (0+255),b
  6365   003F60  0E4F               	movlw	79
  6366   003F62  6F77               	movwf	efgtoa@i& (0+255),b
  6367   003F64                     
  6368                           ; BSR set to: 0
  6369                           ;C:\Program Files\Microchip\xc8\v3.00\pic\sources\c99\common\doprnt.c: 817:     dbuf[i] 
      +                          = '\0';
  6370   003F64  0E00               	movlw	low _dbuf
  6371   003F66  2577               	addwf	efgtoa@i& (0+255),w,b
  6372   003F68  6ED9               	movwf	fsr2l,c
  6373   003F6A  0E01               	movlw	high _dbuf
  6374   003F6C  2178               	addwfc	(efgtoa@i+1)& (0+255),w,b
  6375   003F6E  6EDA               	movwf	fsr2h,c
  6376   003F70  6ADF               	clrf	indf2,c
  6377   003F72                     
  6378                           ; BSR set to: 0
  6379                           ;C:\Program Files\Microchip\xc8\v3.00\pic\sources\c99\common\doprnt.c: 848:  memcpy(&dbu
      +                          f[i-n], &dbuf[0], (size_t)n);
  6380   003F72  0E00               	movlw	low _dbuf
  6381   003F74  6E3A               	movwf	??_efgtoa^0,c
  6382   003F76  0E01               	movlw	high _dbuf
  6383   003F78  6E3B               	movwf	(??_efgtoa+1)^0,c
  6384   003F7A  5182               	movf	efgtoa@n& (0+255),w,b
  6385   003F7C  5E3A               	subwf	??_efgtoa^0,f,c
  6386   003F7E  5183               	movf	(efgtoa@n+1)& (0+255),w,b
  6387   003F80  5A3B               	subwfb	(??_efgtoa+1)^0,f,c
  6388   003F82  5177               	movf	efgtoa@i& (0+255),w,b
  6389   003F84  243A               	addwf	??_efgtoa^0,w,c
  6390   003F86  6E01               	movwf	memcpy@d1^0,c
  6391   003F88  5178               	movf	(efgtoa@i+1)& (0+255),w,b
  6392   003F8A  203B               	addwfc	(??_efgtoa+1)^0,w,c
  6393   003F8C  6E02               	movwf	(memcpy@d1+1)^0,c
  6394   003F8E  0E00               	movlw	low _dbuf
  6395   003F90  6E03               	movwf	memcpy@s1^0,c
  6396   003F92  0E01               	movlw	high _dbuf
  6397   003F94  6E04               	movwf	(memcpy@s1+1)^0,c
  6398   003F96  C082  F005         	movff	efgtoa@n,memcpy@n
  6399   003F9A  C083  F006         	movff	efgtoa@n+1,memcpy@n+1
  6400   003F9E  ECB8  F02E         	call	_memcpy	;wreg free
  6401   003FA2                     
  6402                           ;C:\Program Files\Microchip\xc8\v3.00\pic\sources\c99\common\doprnt.c: 849:  n = i-n;
  6403   003FA2  0100               	movlb	0	; () banked
  6404   003FA4  5182               	movf	efgtoa@n& (0+255),w,b
  6405   003FA6  5D77               	subwf	efgtoa@i& (0+255),w,b
  6406   003FA8  6F82               	movwf	efgtoa@n& (0+255),b
  6407   003FAA  5183               	movf	(efgtoa@n+1)& (0+255),w,b
  6408   003FAC  5978               	subwfb	(efgtoa@i+1)& (0+255),w,b
  6409   003FAE  6F83               	movwf	(efgtoa@n+1)& (0+255),b
  6410   003FB0                     
  6411                           ; BSR set to: 0
  6412                           ;C:\Program Files\Microchip\xc8\v3.00\pic\sources\c99\common\doprnt.c: 850:  i = sign ==
      +                           0 ? 0 : 1;
  6413   003FB0  5181               	movf	efgtoa@sign& (0+255),w,b
  6414   003FB2  A4D8               	btfss	status,2,c
  6415   003FB4  EFDE  F01F         	goto	u4261
  6416   003FB8  EFE1  F01F         	goto	u4260
  6417   003FBC                     u4261:
  6418   003FBC  0E01               	movlw	1
  6419   003FBE  EFE2  F01F         	goto	u4270
  6420   003FC2                     u4260:
  6421   003FC2  0E00               	movlw	0
  6422   003FC4                     u4270:
  6423   003FC4  6F77               	movwf	efgtoa@i& (0+255),b
  6424   003FC6  6B78               	clrf	(efgtoa@i+1)& (0+255),b
  6425   003FC8                     
  6426                           ; BSR set to: 0
  6427                           ;C:\Program Files\Microchip\xc8\v3.00\pic\sources\c99\common\doprnt.c: 861:  if (sign) {
  6428   003FC8  5181               	movf	efgtoa@sign& (0+255),w,b
  6429   003FCA  B4D8               	btfsc	status,2,c
  6430   003FCC  EFEA  F01F         	goto	u4281
  6431   003FD0  EFEC  F01F         	goto	u4280
  6432   003FD4                     u4281:
  6433   003FD4  EFF8  F01F         	goto	l3899
  6434   003FD8                     u4280:
  6435   003FD8                     
  6436                           ; BSR set to: 0
  6437                           ;C:\Program Files\Microchip\xc8\v3.00\pic\sources\c99\common\doprnt.c: 862:   dbuf[--n] 
      +                          = sign;
  6438   003FD8  0782               	decf	efgtoa@n& (0+255),f,b
  6439   003FDA  A0D8               	btfss	status,0,c
  6440   003FDC  0783               	decf	(efgtoa@n+1)& (0+255),f,b
  6441   003FDE  0E00               	movlw	low _dbuf
  6442   003FE0  2582               	addwf	efgtoa@n& (0+255),w,b
  6443   003FE2  6ED9               	movwf	fsr2l,c
  6444   003FE4  0E01               	movlw	high _dbuf
  6445   003FE6  2183               	addwfc	(efgtoa@n+1)& (0+255),w,b
  6446   003FE8  6EDA               	movwf	fsr2h,c
  6447   003FEA  0060  F207  FFDF   	movff	efgtoa@sign,indf2
  6448   003FF0                     l3899:
  6449                           
  6450                           ; BSR set to: 0
  6451                           ;C:\Program Files\Microchip\xc8\v3.00\pic\sources\c99\common\doprnt.c: 864:  w -= i;
  6452   003FF0  5177               	movf	efgtoa@i& (0+255),w,b
  6453   003FF2  5F71               	subwf	efgtoa@w& (0+255),f,b
  6454   003FF4  5178               	movf	(efgtoa@i+1)& (0+255),w,b
  6455   003FF6  5B72               	subwfb	(efgtoa@w+1)& (0+255),f,b
  6456   003FF8                     
  6457                           ; BSR set to: 0
  6458                           ;C:\Program Files\Microchip\xc8\v3.00\pic\sources\c99\common\doprnt.c: 867:     return (
      +                          void) pad(fp, &dbuf[n], w);
  6459   003FF8  C034  F00F         	movff	efgtoa@fp,pad@fp
  6460   003FFC  0E00               	movlw	low _dbuf
  6461   003FFE  2582               	addwf	efgtoa@n& (0+255),w,b
  6462   004000  6E10               	movwf	pad@buf^0,c
  6463   004002  0E01               	movlw	high _dbuf
  6464   004004  2183               	addwfc	(efgtoa@n+1)& (0+255),w,b
  6465   004006  6E11               	movwf	(pad@buf+1)^0,c
  6466   004008  C071  F012         	movff	efgtoa@w,pad@p
  6467   00400C  C072  F013         	movff	efgtoa@w+1,pad@p+1
  6468   004010  EC99  F02D         	call	_pad	;wreg free
  6469   004014                     l925:
  6470   004014  0012               	return		;funcret
  6471   004016                     __end_of_efgtoa:
  6472                           	callstack 0
  6473                           
  6474 ;; *************** function _strcpy *****************
  6475 ;; Defined at:
  6476 ;;		line 3 in file "C:\Program Files\Microchip\xc8\v3.00\pic\sources\c99\common\strcpy.c"
  6477 ;; Parameters:    Size  Location     Type
  6478 ;;  dest            2    0[COMRAM] PTR unsigned char 
  6479 ;;		 -> dbuf(80), 
  6480 ;;  src             1    2[COMRAM] PTR const unsigned char 
  6481 ;;		 -> STR_69(4), STR_66(4), 
  6482 ;; Auto vars:     Size  Location     Type
  6483 ;;  d               2    4[COMRAM] PTR unsigned char 
  6484 ;;		 -> dbuf(80), 
  6485 ;; Return value:  Size  Location     Type
  6486 ;;                  2    0[COMRAM] PTR unsigned char 
  6487 ;; Registers used:
  6488 ;;		wreg, fsr2l, fsr2h, status,2, status,0, tblptrl, tblptrh, tblptru
  6489 ;; Tracked objects:
  6490 ;;		On entry : 0/0
  6491 ;;		On exit  : 0/0
  6492 ;;		Unchanged: 0/0
  6493 ;; Data sizes:     COMRAM   BANK0   BANK1   BANK2   BANK3   BANK4   BANK5   BANK6   BANK7   BANK8   BANK9  BANK10  BANK1
      +1  BANK12  BANK13  BANK14  BANK15  BANK16  BANK17  BANK18  BANK19  BANK20  BANK21  BANK22  BANK23  BANK24  BANK25  BANK2
      +6  BANK27  BANK28  BANK29  BANK30  BANK31
  6494 ;;      Params:         3       0       0       0       0       0       0       0       0       0       0       0       
      +0       0       0       0       0       0       0       0       0       0       0       0       0       0       0       
      +0       0       0       0       0       0
  6495 ;;      Locals:         2       0       0       0       0       0       0       0       0       0       0       0       
      +0       0       0       0       0       0       0       0       0       0       0       0       0       0       0       
      +0       0       0       0       0       0
  6496 ;;      Temps:          1       0       0       0       0       0       0       0       0       0       0       0       
      +0       0       0       0       0       0       0       0       0       0       0       0       0       0       0       
      +0       0       0       0       0       0
  6497 ;;      Totals:         6       0       0       0       0       0       0       0       0       0       0       0       
      +0       0       0       0       0       0       0       0       0       0       0       0       0       0       0       
      +0       0       0       0       0       0
  6498 ;;Total ram usage:        6 bytes
  6499 ;; Hardware stack levels used: 1
  6500 ;; This function calls:
  6501 ;;		Nothing
  6502 ;; This function is called by:
  6503 ;;		_efgtoa
  6504 ;; This function uses a non-reentrant model
  6505 ;;
  6506                           
  6507                           	psect	text7
  6508   005E6A                     __ptext7:
  6509                           	callstack 0
  6510   005E6A                     _strcpy:
  6511                           	callstack 26
  6512   005E6A  C001  F005         	movff	strcpy@dest,strcpy@d
  6513   005E6E  C002  F006         	movff	strcpy@dest+1,strcpy@d+1
  6514   005E72                     l3575:
  6515   005E72  2A03               	incf	strcpy@src^0,f,c
  6516   005E74  0403               	decf	strcpy@src^0,w,c
  6517   005E76  6E04               	movwf	??_strcpy^0,c
  6518   005E78  0060  F013  FFF6   	movff	??_strcpy,tblptrl
  6519   005E7E                     	if	1	;There is more than 1 active tblptr byte
  6520   005E7E  0E20               	movlw	high __smallconst
  6521   005E80  6EF7               	movwf	tblptrh,c
  6522   005E82                     	endif
  6523   005E82                     	if	0	;tblptru may be non-zero
  6524   005E82                     	endif
  6525   005E82                     	if	1	;Program memory is > 0xFFFF, there are 3 active tblptr bytes
  6526   005E82  0E00               	movlw	low (__smallconst shr (0+16))
  6527   005E84  6EF8               	movwf	tblptru,c
  6528   005E86                     	endif
  6529   005E86  0060  F017  FFD9   	movff	strcpy@d,fsr2l
  6530   005E8C  0060  F01B  FFDA   	movff	strcpy@d+1,fsr2h
  6531   005E92  4A05               	infsnz	strcpy@d^0,f,c
  6532   005E94  2A06               	incf	(strcpy@d+1)^0,f,c
  6533   005E96  0008               	tblrd		*
  6534   005E98  006F FFD7 FFDF     	movff	tablat,indf2
  6535   005E9E  50DF               	movf	indf2,w,c
  6536   005EA0  A4D8               	btfss	status,2,c
  6537   005EA2  EF55  F02F         	goto	u3731
  6538   005EA6  EF57  F02F         	goto	u3730
  6539   005EAA                     u3731:
  6540   005EAA  EF39  F02F         	goto	l3575
  6541   005EAE                     u3730:
  6542   005EAE  0012               	return		;funcret
  6543   005EB0                     __end_of_strcpy:
  6544                           	callstack 0
  6545                           
  6546 ;; *************** function _memcpy *****************
  6547 ;; Defined at:
  6548 ;;		line 4 in file "C:\Program Files\Microchip\xc8\v3.00\pic\sources\c99\common\memcpy.c"
  6549 ;; Parameters:    Size  Location     Type
  6550 ;;  d1              2    0[COMRAM] PTR void 
  6551 ;;		 -> dbuf(80), 
  6552 ;;  s1              2    2[COMRAM] PTR const void 
  6553 ;;		 -> dbuf(80), 
  6554 ;;  n               2    4[COMRAM] unsigned int 
  6555 ;; Auto vars:     Size  Location     Type
  6556 ;;  s               2    8[COMRAM] PTR const unsigned char 
  6557 ;;		 -> dbuf(80), 
  6558 ;;  d               2    6[COMRAM] PTR unsigned char 
  6559 ;;		 -> dbuf(80), 
  6560 ;;  tmp             1   10[COMRAM] unsigned char 
  6561 ;; Return value:  Size  Location     Type
  6562 ;;                  2    0[COMRAM] PTR void 
  6563 ;; Registers used:
  6564 ;;		wreg, fsr2l, fsr2h, status,2, status,0
  6565 ;; Tracked objects:
  6566 ;;		On entry : 0/0
  6567 ;;		On exit  : 0/0
  6568 ;;		Unchanged: 0/0
  6569 ;; Data sizes:     COMRAM   BANK0   BANK1   BANK2   BANK3   BANK4   BANK5   BANK6   BANK7   BANK8   BANK9  BANK10  BANK1
      +1  BANK12  BANK13  BANK14  BANK15  BANK16  BANK17  BANK18  BANK19  BANK20  BANK21  BANK22  BANK23  BANK24  BANK25  BANK2
      +6  BANK27  BANK28  BANK29  BANK30  BANK31
  6570 ;;      Params:         6       0       0       0       0       0       0       0       0       0       0       0       
      +0       0       0       0       0       0       0       0       0       0       0       0       0       0       0       
      +0       0       0       0       0       0
  6571 ;;      Locals:         5       0       0       0       0       0       0       0       0       0       0       0       
      +0       0       0       0       0       0       0       0       0       0       0       0       0       0       0       
      +0       0       0       0       0       0
  6572 ;;      Temps:          0       0       0       0       0       0       0       0       0       0       0       0       
      +0       0       0       0       0       0       0       0       0       0       0       0       0       0       0       
      +0       0       0       0       0       0
  6573 ;;      Totals:        11       0       0       0       0       0       0       0       0       0       0       0       
      +0       0       0       0       0       0       0       0       0       0       0       0       0       0       0       
      +0       0       0       0       0       0
  6574 ;;Total ram usage:       11 bytes
  6575 ;; Hardware stack levels used: 1
  6576 ;; This function calls:
  6577 ;;		Nothing
  6578 ;; This function is called by:
  6579 ;;		_efgtoa
  6580 ;; This function uses a non-reentrant model
  6581 ;;
  6582                           
  6583                           	psect	text8
  6584   005D70                     __ptext8:
  6585                           	callstack 0
  6586   005D70                     _memcpy:
  6587                           	callstack 26
  6588   005D70  C003  F009         	movff	memcpy@s1,memcpy@s
  6589   005D74  C004  F00A         	movff	memcpy@s1+1,memcpy@s+1
  6590   005D78  C001  F007         	movff	memcpy@d1,memcpy@d
  6591   005D7C  C002  F008         	movff	memcpy@d1+1,memcpy@d+1
  6592   005D80  EFD7  F02E         	goto	l3623
  6593   005D84                     l3615:
  6594   005D84  0060  F027  FFD9   	movff	memcpy@s,fsr2l
  6595   005D8A  0060  F02B  FFDA   	movff	memcpy@s+1,fsr2h
  6596   005D90  50DF               	movf	indf2,w,c
  6597   005D92  6E0B               	movwf	memcpy@tmp^0,c
  6598   005D94  4A09               	infsnz	memcpy@s^0,f,c
  6599   005D96  2A0A               	incf	(memcpy@s+1)^0,f,c
  6600   005D98  0060  F01F  FFD9   	movff	memcpy@d,fsr2l
  6601   005D9E  0060  F023  FFDA   	movff	memcpy@d+1,fsr2h
  6602   005DA4  0060  F02F  FFDF   	movff	memcpy@tmp,indf2
  6603   005DAA  4A07               	infsnz	memcpy@d^0,f,c
  6604   005DAC  2A08               	incf	(memcpy@d+1)^0,f,c
  6605   005DAE                     l3623:
  6606   005DAE  0605               	decf	memcpy@n^0,f,c
  6607   005DB0  A0D8               	btfss	status,0,c
  6608   005DB2  0606               	decf	(memcpy@n+1)^0,f,c
  6609   005DB4  2805               	incf	memcpy@n^0,w,c
  6610   005DB6  E106               	bnz	u3851
  6611   005DB8  2806               	incf	(memcpy@n+1)^0,w,c
  6612   005DBA  A4D8               	btfss	status,2,c
  6613   005DBC  EFE2  F02E         	goto	u3851
  6614   005DC0  EFE4  F02E         	goto	u3850
  6615   005DC4                     u3851:
  6616   005DC4  EFC2  F02E         	goto	l3615
  6617   005DC8                     u3850:
  6618   005DC8  0012               	return		;funcret
  6619   005DCA                     __end_of_memcpy:
  6620                           	callstack 0
  6621                           
  6622 ;; *************** function _labs *****************
  6623 ;; Defined at:
  6624 ;;		line 1 in file "C:\Program Files\Microchip\xc8\v3.00\pic\sources\c99\common\labs.c"
  6625 ;; Parameters:    Size  Location     Type
  6626 ;;  a               4    0[COMRAM] long 
  6627 ;; Auto vars:     Size  Location     Type
  6628 ;;		None
  6629 ;; Return value:  Size  Location     Type
  6630 ;;                  4    0[COMRAM] long 
  6631 ;; Registers used:
  6632 ;;		wreg, status,2, status,0
  6633 ;; Tracked objects:
  6634 ;;		On entry : 0/0
  6635 ;;		On exit  : 0/0
  6636 ;;		Unchanged: 0/0
  6637 ;; Data sizes:     COMRAM   BANK0   BANK1   BANK2   BANK3   BANK4   BANK5   BANK6   BANK7   BANK8   BANK9  BANK10  BANK1
      +1  BANK12  BANK13  BANK14  BANK15  BANK16  BANK17  BANK18  BANK19  BANK20  BANK21  BANK22  BANK23  BANK24  BANK25  BANK2
      +6  BANK27  BANK28  BANK29  BANK30  BANK31
  6638 ;;      Params:         4       0       0       0       0       0       0       0       0       0       0       0       
      +0       0       0       0       0       0       0       0       0       0       0       0       0       0       0       
      +0       0       0       0       0       0
  6639 ;;      Locals:         0       0       0       0       0       0       0       0       0       0       0       0       
      +0       0       0       0       0       0       0       0       0       0       0       0       0       0       0       
      +0       0       0       0       0       0
  6640 ;;      Temps:          4       0       0       0       0       0       0       0       0       0       0       0       
      +0       0       0       0       0       0       0       0       0       0       0       0       0       0       0       
      +0       0       0       0       0       0
  6641 ;;      Totals:         8       0       0       0       0       0       0       0       0       0       0       0       
      +0       0       0       0       0       0       0       0       0       0       0       0       0       0       0       
      +0       0       0       0       0       0
  6642 ;;Total ram usage:        8 bytes
  6643 ;; Hardware stack levels used: 1
  6644 ;; This function calls:
  6645 ;;		Nothing
  6646 ;; This function is called by:
  6647 ;;		_efgtoa
  6648 ;; This function uses a non-reentrant model
  6649 ;;
  6650                           
  6651                           	psect	text9
  6652   005DCA                     __ptext9:
  6653                           	callstack 0
  6654   005DCA                     _labs:
  6655                           	callstack 26
  6656   005DCA  BE04               	btfsc	(labs@a+3)^0,7,c
  6657   005DCC  EFEA  F02E         	goto	u3741
  6658   005DD0  EFEC  F02E         	goto	u3740
  6659   005DD4                     u3741:
  6660   005DD4  EFF6  F02E         	goto	l3581
  6661   005DD8                     u3740:
  6662   005DD8  C001  F001         	movff	labs@a,?_labs
  6663   005DDC  C002  F002         	movff	labs@a+1,?_labs+1
  6664   005DE0  C003  F003         	movff	labs@a+2,?_labs+2
  6665   005DE4  C004  F004         	movff	labs@a+3,?_labs+3
  6666   005DE8  EF0F  F02F         	goto	l1043
  6667   005DEC                     l3581:
  6668   005DEC  C001  F005         	movff	labs@a,??_labs
  6669   005DF0  C002  F006         	movff	labs@a+1,??_labs+1
  6670   005DF4  C003  F007         	movff	labs@a+2,??_labs+2
  6671   005DF8  C004  F008         	movff	labs@a+3,??_labs+3
  6672   005DFC  1E05               	comf	??_labs^0,f,c
  6673   005DFE  1E06               	comf	(??_labs+1)^0,f,c
  6674   005E00  1E07               	comf	(??_labs+2)^0,f,c
  6675   005E02  1E08               	comf	(??_labs+3)^0,f,c
  6676   005E04  2A05               	incf	??_labs^0,f,c
  6677   005E06  0E00               	movlw	0
  6678   005E08  2206               	addwfc	(??_labs+1)^0,f,c
  6679   005E0A  2207               	addwfc	(??_labs+2)^0,f,c
  6680   005E0C  2208               	addwfc	(??_labs+3)^0,f,c
  6681   005E0E  C005  F001         	movff	??_labs,?_labs
  6682   005E12  C006  F002         	movff	??_labs+1,?_labs+1
  6683   005E16  C007  F003         	movff	??_labs+2,?_labs+2
  6684   005E1A  C008  F004         	movff	??_labs+3,?_labs+3
  6685   005E1E                     l1043:
  6686   005E1E  0012               	return		;funcret
  6687   005E20                     __end_of_labs:
  6688                           	callstack 0
  6689                           
  6690 ;; *************** function _floorf *****************
  6691 ;; Defined at:
  6692 ;;		line 3 in file "C:\Program Files\Microchip\xc8\v3.00\pic\sources\c99\common\floorf.c"
  6693 ;; Parameters:    Size  Location     Type
  6694 ;;  x               4   25[COMRAM] float 
  6695 ;; Auto vars:     Size  Location     Type
  6696 ;;  u               4   41[COMRAM] struct .
  6697 ;;  m               4   35[COMRAM] unsigned long 
  6698 ;;  e               2   39[COMRAM] int 
  6699 ;; Return value:  Size  Location     Type
  6700 ;;                  4   25[COMRAM] float 
  6701 ;; Registers used:
  6702 ;;		wreg, status,2, status,0
  6703 ;; Tracked objects:
  6704 ;;		On entry : 0/0
  6705 ;;		On exit  : 0/0
  6706 ;;		Unchanged: 0/0
  6707 ;; Data sizes:     COMRAM   BANK0   BANK1   BANK2   BANK3   BANK4   BANK5   BANK6   BANK7   BANK8   BANK9  BANK10  BANK1
      +1  BANK12  BANK13  BANK14  BANK15  BANK16  BANK17  BANK18  BANK19  BANK20  BANK21  BANK22  BANK23  BANK24  BANK25  BANK2
      +6  BANK27  BANK28  BANK29  BANK30  BANK31
  6708 ;;      Params:         4       0       0       0       0       0       0       0       0       0       0       0       
      +0       0       0       0       0       0       0       0       0       0       0       0       0       0       0       
      +0       0       0       0       0       0
  6709 ;;      Locals:        10       0       0       0       0       0       0       0       0       0       0       0       
      +0       0       0       0       0       0       0       0       0       0       0       0       0       0       0       
      +0       0       0       0       0       0
  6710 ;;      Temps:          6       0       0       0       0       0       0       0       0       0       0       0       
      +0       0       0       0       0       0       0       0       0       0       0       0       0       0       0       
      +0       0       0       0       0       0
  6711 ;;      Totals:        20       0       0       0       0       0       0       0       0       0       0       0       
      +0       0       0       0       0       0       0       0       0       0       0       0       0       0       0       
      +0       0       0       0       0       0
  6712 ;;Total ram usage:       20 bytes
  6713 ;; Hardware stack levels used: 1
  6714 ;; This function calls:
  6715 ;;		Nothing
  6716 ;; This function is called by:
  6717 ;;		_efgtoa
  6718 ;; This function uses a non-reentrant model
  6719 ;;
  6720                           
  6721                           	psect	text10
  6722   004F6C                     __ptext10:
  6723                           	callstack 0
  6724   004F6C                     _floorf:
  6725                           	callstack 26
  6726   004F6C  C094  F02A         	movff	floorf@F521,floorf@u
  6727   004F70  C095  F02B         	movff	floorf@F521+1,floorf@u+1
  6728   004F74  C096  F02C         	movff	floorf@F521+2,floorf@u+2
  6729   004F78  C097  F02D         	movff	floorf@F521+3,floorf@u+3
  6730   004F7C  C01A  F02A         	movff	floorf@x,floorf@u
  6731   004F80  C01B  F02B         	movff	floorf@x+1,floorf@u+1
  6732   004F84  C01C  F02C         	movff	floorf@x+2,floorf@u+2
  6733   004F88  C01D  F02D         	movff	floorf@x+3,floorf@u+3
  6734   004F8C  0E81               	movlw	129
  6735   004F8E  6E1E               	movwf	??_floorf^0,c
  6736   004F90  0EFF               	movlw	255
  6737   004F92  6E1F               	movwf	(??_floorf+1)^0,c
  6738   004F94  C02A  F020         	movff	floorf@u,??_floorf+2
  6739   004F98  C02B  F021         	movff	floorf@u+1,??_floorf+3
  6740   004F9C  C02C  F022         	movff	floorf@u+2,??_floorf+4
  6741   004FA0  C02D  F023         	movff	floorf@u+3,??_floorf+5
  6742   004FA4  0E18               	movlw	24
  6743   004FA6  EFDA  F027         	goto	u3750
  6744   004FAA                     u3755:
  6745   004FAA  90D8               	bcf	status,0,c
  6746   004FAC  3223               	rrcf	(??_floorf+5)^0,f,c
  6747   004FAE  3222               	rrcf	(??_floorf+4)^0,f,c
  6748   004FB0  3221               	rrcf	(??_floorf+3)^0,f,c
  6749   004FB2  3220               	rrcf	(??_floorf+2)^0,f,c
  6750   004FB4                     u3750:
  6751   004FB4  2EE8               	decfsz	wreg,f,c
  6752   004FB6  EFD5  F027         	goto	u3755
  6753   004FBA  5020               	movf	(??_floorf+2)^0,w,c
  6754   004FBC  241E               	addwf	??_floorf^0,w,c
  6755   004FBE  6E28               	movwf	floorf@e^0,c
  6756   004FC0  0E00               	movlw	0
  6757   004FC2  201F               	addwfc	(??_floorf+1)^0,w,c
  6758   004FC4  6E29               	movwf	(floorf@e+1)^0,c
  6759   004FC6  BE29               	btfsc	(floorf@e+1)^0,7,c
  6760   004FC8  EFEF  F027         	goto	u3761
  6761   004FCC  5029               	movf	(floorf@e+1)^0,w,c
  6762   004FCE  E109               	bnz	u3760
  6763   004FD0  0E17               	movlw	23
  6764   004FD2  5C28               	subwf	floorf@e^0,w,c
  6765   004FD4  A0D8               	btfss	status,0,c
  6766   004FD6  EFEF  F027         	goto	u3761
  6767   004FDA  EFF1  F027         	goto	u3760
  6768   004FDE                     u3761:
  6769   004FDE  EFFB  F027         	goto	l3591
  6770   004FE2                     u3760:
  6771   004FE2                     l3589:
  6772   004FE2  C01A  F01A         	movff	floorf@x,?_floorf
  6773   004FE6  C01B  F01B         	movff	floorf@x+1,?_floorf+1
  6774   004FEA  C01C  F01C         	movff	floorf@x+2,?_floorf+2
  6775   004FEE  C01D  F01D         	movff	floorf@x+3,?_floorf+3
  6776   004FF2  EFBE  F028         	goto	l1029
  6777   004FF6                     l3591:
  6778   004FF6  BE29               	btfsc	(floorf@e+1)^0,7,c
  6779   004FF8  EF00  F028         	goto	u3771
  6780   004FFC  EF02  F028         	goto	u3770
  6781   005000                     u3771:
  6782   005000  EF72  F028         	goto	l3601
  6783   005004                     u3770:
  6784   005004  C028  F01E         	movff	floorf@e,??_floorf
  6785   005008  0EFF               	movlw	255
  6786   00500A  6E1F               	movwf	(??_floorf+1)^0,c
  6787   00500C  0EFF               	movlw	255
  6788   00500E  6E20               	movwf	(??_floorf+2)^0,c
  6789   005010  0E7F               	movlw	127
  6790   005012  6E21               	movwf	(??_floorf+3)^0,c
  6791   005014  0E00               	movlw	0
  6792   005016  6E22               	movwf	(??_floorf+4)^0,c
  6793   005018                     u3785:
  6794   005018  661E               	tstfsz	??_floorf^0,c
  6795   00501A  EF11  F028         	goto	u3786
  6796   00501E  EF19  F028         	goto	u3787
  6797   005022                     u3786:
  6798   005022  3422               	rlcf	(??_floorf+4)^0,w,c
  6799   005024  3222               	rrcf	(??_floorf+4)^0,f,c
  6800   005026  3221               	rrcf	(??_floorf+3)^0,f,c
  6801   005028  3220               	rrcf	(??_floorf+2)^0,f,c
  6802   00502A  321F               	rrcf	(??_floorf+1)^0,f,c
  6803   00502C  2E1E               	decfsz	??_floorf^0,f,c
  6804   00502E  EF0C  F028         	goto	u3785
  6805   005032                     u3787:
  6806   005032  C01F  F024         	movff	??_floorf+1,floorf@m
  6807   005036  C020  F025         	movff	??_floorf+2,floorf@m+1
  6808   00503A  C021  F026         	movff	??_floorf+3,floorf@m+2
  6809   00503E  C022  F027         	movff	??_floorf+4,floorf@m+3
  6810   005042  5024               	movf	floorf@m^0,w,c
  6811   005044  142A               	andwf	floorf@u^0,w,c
  6812   005046  6E1E               	movwf	??_floorf^0,c
  6813   005048  5025               	movf	(floorf@m+1)^0,w,c
  6814   00504A  142B               	andwf	(floorf@u+1)^0,w,c
  6815   00504C  6E1F               	movwf	(??_floorf+1)^0,c
  6816   00504E  5026               	movf	(floorf@m+2)^0,w,c
  6817   005050  142C               	andwf	(floorf@u+2)^0,w,c
  6818   005052  6E20               	movwf	(??_floorf+2)^0,c
  6819   005054  5027               	movf	(floorf@m+3)^0,w,c
  6820   005056  142D               	andwf	(floorf@u+3)^0,w,c
  6821   005058  6E21               	movwf	(??_floorf+3)^0,c
  6822   00505A  501E               	movf	??_floorf^0,w,c
  6823   00505C  101F               	iorwf	(??_floorf+1)^0,w,c
  6824   00505E  1020               	iorwf	(??_floorf+2)^0,w,c
  6825   005060  1021               	iorwf	(??_floorf+3)^0,w,c
  6826   005062  A4D8               	btfss	status,2,c
  6827   005064  EF36  F028         	goto	u3791
  6828   005068  EF38  F028         	goto	u3790
  6829   00506C                     u3791:
  6830   00506C  EF3A  F028         	goto	l3597
  6831   005070                     u3790:
  6832   005070  EFF1  F027         	goto	l3589
  6833   005074                     l3597:
  6834   005074  C02A  F01E         	movff	floorf@u,??_floorf
  6835   005078  C02B  F01F         	movff	floorf@u+1,??_floorf+1
  6836   00507C  C02C  F020         	movff	floorf@u+2,??_floorf+2
  6837   005080  C02D  F021         	movff	floorf@u+3,??_floorf+3
  6838   005084  0E20               	movlw	32
  6839   005086  EF4A  F028         	goto	u3800
  6840   00508A                     u3805:
  6841   00508A  90D8               	bcf	status,0,c
  6842   00508C  3221               	rrcf	(??_floorf+3)^0,f,c
  6843   00508E  3220               	rrcf	(??_floorf+2)^0,f,c
  6844   005090  321F               	rrcf	(??_floorf+1)^0,f,c
  6845   005092  321E               	rrcf	??_floorf^0,f,c
  6846   005094                     u3800:
  6847   005094  2EE8               	decfsz	wreg,f,c
  6848   005096  EF45  F028         	goto	u3805
  6849   00509A  501E               	movf	??_floorf^0,w,c
  6850   00509C  101F               	iorwf	(??_floorf+1)^0,w,c
  6851   00509E  1020               	iorwf	(??_floorf+2)^0,w,c
  6852   0050A0  1021               	iorwf	(??_floorf+3)^0,w,c
  6853   0050A2  B4D8               	btfsc	status,2,c
  6854   0050A4  EF56  F028         	goto	u3811
  6855   0050A8  EF58  F028         	goto	u3810
  6856   0050AC                     u3811:
  6857   0050AC  EF60  F028         	goto	l1032
  6858   0050B0                     u3810:
  6859   0050B0  5024               	movf	floorf@m^0,w,c
  6860   0050B2  262A               	addwf	floorf@u^0,f,c
  6861   0050B4  5025               	movf	(floorf@m+1)^0,w,c
  6862   0050B6  222B               	addwfc	(floorf@u+1)^0,f,c
  6863   0050B8  5026               	movf	(floorf@m+2)^0,w,c
  6864   0050BA  222C               	addwfc	(floorf@u+2)^0,f,c
  6865   0050BC  5027               	movf	(floorf@m+3)^0,w,c
  6866   0050BE  222D               	addwfc	(floorf@u+3)^0,f,c
  6867   0050C0                     l1032:
  6868   0050C0  1C24               	comf	floorf@m^0,w,c
  6869   0050C2  6E1E               	movwf	??_floorf^0,c
  6870   0050C4  1C25               	comf	(floorf@m+1)^0,w,c
  6871   0050C6  6E1F               	movwf	(??_floorf+1)^0,c
  6872   0050C8  1C26               	comf	(floorf@m+2)^0,w,c
  6873   0050CA  6E20               	movwf	(??_floorf+2)^0,c
  6874   0050CC  1C27               	comf	(floorf@m+3)^0,w,c
  6875   0050CE  6E21               	movwf	(??_floorf+3)^0,c
  6876   0050D0  501E               	movf	??_floorf^0,w,c
  6877   0050D2  162A               	andwf	floorf@u^0,f,c
  6878   0050D4  501F               	movf	(??_floorf+1)^0,w,c
  6879   0050D6  162B               	andwf	(floorf@u+1)^0,f,c
  6880   0050D8  5020               	movf	(??_floorf+2)^0,w,c
  6881   0050DA  162C               	andwf	(floorf@u+2)^0,f,c
  6882   0050DC  5021               	movf	(??_floorf+3)^0,w,c
  6883   0050DE  162D               	andwf	(floorf@u+3)^0,f,c
  6884   0050E0  EFB6  F028         	goto	l3609
  6885   0050E4                     l3601:
  6886   0050E4  C02A  F01E         	movff	floorf@u,??_floorf
  6887   0050E8  C02B  F01F         	movff	floorf@u+1,??_floorf+1
  6888   0050EC  C02C  F020         	movff	floorf@u+2,??_floorf+2
  6889   0050F0  C02D  F021         	movff	floorf@u+3,??_floorf+3
  6890   0050F4  0E20               	movlw	32
  6891   0050F6  EF82  F028         	goto	u3820
  6892   0050FA                     u3825:
  6893   0050FA  90D8               	bcf	status,0,c
  6894   0050FC  3221               	rrcf	(??_floorf+3)^0,f,c
  6895   0050FE  3220               	rrcf	(??_floorf+2)^0,f,c
  6896   005100  321F               	rrcf	(??_floorf+1)^0,f,c
  6897   005102  321E               	rrcf	??_floorf^0,f,c
  6898   005104                     u3820:
  6899   005104  2EE8               	decfsz	wreg,f,c
  6900   005106  EF7D  F028         	goto	u3825
  6901   00510A  501E               	movf	??_floorf^0,w,c
  6902   00510C  101F               	iorwf	(??_floorf+1)^0,w,c
  6903   00510E  1020               	iorwf	(??_floorf+2)^0,w,c
  6904   005110  1021               	iorwf	(??_floorf+3)^0,w,c
  6905   005112  A4D8               	btfss	status,2,c
  6906   005114  EF8E  F028         	goto	u3831
  6907   005118  EF90  F028         	goto	u3830
  6908   00511C                     u3831:
  6909   00511C  EF9A  F028         	goto	l3605
  6910   005120                     u3830:
  6911   005120  0E00               	movlw	0
  6912   005122  6E2A               	movwf	floorf@u^0,c
  6913   005124  0E00               	movlw	0
  6914   005126  6E2B               	movwf	(floorf@u+1)^0,c
  6915   005128  0E00               	movlw	0
  6916   00512A  6E2C               	movwf	(floorf@u+2)^0,c
  6917   00512C  0E00               	movlw	0
  6918   00512E  6E2D               	movwf	(floorf@u+3)^0,c
  6919   005130  EFB6  F028         	goto	l3609
  6920   005134                     l3605:
  6921   005134  90D8               	bcf	status,0,c
  6922   005136  342A               	rlcf	floorf@u^0,w,c
  6923   005138  6E1E               	movwf	??_floorf^0,c
  6924   00513A  342B               	rlcf	(floorf@u+1)^0,w,c
  6925   00513C  6E1F               	movwf	(??_floorf+1)^0,c
  6926   00513E  342C               	rlcf	(floorf@u+2)^0,w,c
  6927   005140  6E20               	movwf	(??_floorf+2)^0,c
  6928   005142  342D               	rlcf	(floorf@u+3)^0,w,c
  6929   005144  6E21               	movwf	(??_floorf+3)^0,c
  6930   005146  501E               	movf	??_floorf^0,w,c
  6931   005148  101F               	iorwf	(??_floorf+1)^0,w,c
  6932   00514A  1020               	iorwf	(??_floorf+2)^0,w,c
  6933   00514C  1021               	iorwf	(??_floorf+3)^0,w,c
  6934   00514E  B4D8               	btfsc	status,2,c
  6935   005150  EFAC  F028         	goto	u3841
  6936   005154  EFAE  F028         	goto	u3840
  6937   005158                     u3841:
  6938   005158  EFB6  F028         	goto	l3609
  6939   00515C                     u3840:
  6940   00515C  0E00               	movlw	0
  6941   00515E  6E2A               	movwf	floorf@u^0,c
  6942   005160  0E00               	movlw	0
  6943   005162  6E2B               	movwf	(floorf@u+1)^0,c
  6944   005164  0E80               	movlw	128
  6945   005166  6E2C               	movwf	(floorf@u+2)^0,c
  6946   005168  0EBF               	movlw	191
  6947   00516A  6E2D               	movwf	(floorf@u+3)^0,c
  6948   00516C                     l3609:
  6949   00516C  C02A  F01A         	movff	floorf@u,?_floorf
  6950   005170  C02B  F01B         	movff	floorf@u+1,?_floorf+1
  6951   005174  C02C  F01C         	movff	floorf@u+2,?_floorf+2
  6952   005178  C02D  F01D         	movff	floorf@u+3,?_floorf+3
  6953   00517C                     l1029:
  6954   00517C  0012               	return		;funcret
  6955   00517E                     __end_of_floorf:
  6956                           	callstack 0
  6957                           
  6958 ;; *************** function ___fpclassifyf *****************
  6959 ;; Defined at:
  6960 ;;		line 4 in file "C:\Program Files\Microchip\xc8\v3.00\pic\sources\c99\common\__fpclassifyf.c"
  6961 ;; Parameters:    Size  Location     Type
  6962 ;;  x               4    0[COMRAM] float 
  6963 ;; Auto vars:     Size  Location     Type
  6964 ;;  u               4   10[COMRAM] struct .
  6965 ;;  e               2    8[COMRAM] int 
  6966 ;; Return value:  Size  Location     Type
  6967 ;;                  2    0[COMRAM] int 
  6968 ;; Registers used:
  6969 ;;		wreg, status,2, status,0
  6970 ;; Tracked objects:
  6971 ;;		On entry : 0/0
  6972 ;;		On exit  : 0/0
  6973 ;;		Unchanged: 0/0
  6974 ;; Data sizes:     COMRAM   BANK0   BANK1   BANK2   BANK3   BANK4   BANK5   BANK6   BANK7   BANK8   BANK9  BANK10  BANK1
      +1  BANK12  BANK13  BANK14  BANK15  BANK16  BANK17  BANK18  BANK19  BANK20  BANK21  BANK22  BANK23  BANK24  BANK25  BANK2
      +6  BANK27  BANK28  BANK29  BANK30  BANK31
  6975 ;;      Params:         4       0       0       0       0       0       0       0       0       0       0       0       
      +0       0       0       0       0       0       0       0       0       0       0       0       0       0       0       
      +0       0       0       0       0       0
  6976 ;;      Locals:         6       0       0       0       0       0       0       0       0       0       0       0       
      +0       0       0       0       0       0       0       0       0       0       0       0       0       0       0       
      +0       0       0       0       0       0
  6977 ;;      Temps:          4       0       0       0       0       0       0       0       0       0       0       0       
      +0       0       0       0       0       0       0       0       0       0       0       0       0       0       0       
      +0       0       0       0       0       0
  6978 ;;      Totals:        14       0       0       0       0       0       0       0       0       0       0       0       
      +0       0       0       0       0       0       0       0       0       0       0       0       0       0       0       
      +0       0       0       0       0       0
  6979 ;;Total ram usage:       14 bytes
  6980 ;; Hardware stack levels used: 1
  6981 ;; This function calls:
  6982 ;;		Nothing
  6983 ;; This function is called by:
  6984 ;;		_efgtoa
  6985 ;; This function uses a non-reentrant model
  6986 ;;
  6987                           
  6988                           	psect	text11
  6989   0056B6                     __ptext11:
  6990                           	callstack 0
  6991   0056B6                     ___fpclassifyf:
  6992                           	callstack 26
  6993   0056B6  C098  F00B         	movff	___fpclassifyf@F465,___fpclassifyf@u
  6994   0056BA  C099  F00C         	movff	___fpclassifyf@F465+1,___fpclassifyf@u+1
  6995   0056BE  C09A  F00D         	movff	___fpclassifyf@F465+2,___fpclassifyf@u+2
  6996   0056C2  C09B  F00E         	movff	___fpclassifyf@F465+3,___fpclassifyf@u+3
  6997   0056C6  C001  F00B         	movff	___fpclassifyf@x,___fpclassifyf@u
  6998   0056CA  C002  F00C         	movff	___fpclassifyf@x+1,___fpclassifyf@u+1
  6999   0056CE  C003  F00D         	movff	___fpclassifyf@x+2,___fpclassifyf@u+2
  7000   0056D2  C004  F00E         	movff	___fpclassifyf@x+3,___fpclassifyf@u+3
  7001   0056D6  C00B  F005         	movff	___fpclassifyf@u,??___fpclassifyf
  7002   0056DA  C00C  F006         	movff	___fpclassifyf@u+1,??___fpclassifyf+1
  7003   0056DE  C00D  F007         	movff	___fpclassifyf@u+2,??___fpclassifyf+2
  7004   0056E2  C00E  F008         	movff	___fpclassifyf@u+3,??___fpclassifyf+3
  7005   0056E6  0E18               	movlw	24
  7006   0056E8  EF7B  F02B         	goto	u3660
  7007   0056EC                     u3665:
  7008   0056EC  90D8               	bcf	status,0,c
  7009   0056EE  3208               	rrcf	(??___fpclassifyf+3)^0,f,c
  7010   0056F0  3207               	rrcf	(??___fpclassifyf+2)^0,f,c
  7011   0056F2  3206               	rrcf	(??___fpclassifyf+1)^0,f,c
  7012   0056F4  3205               	rrcf	??___fpclassifyf^0,f,c
  7013   0056F6                     u3660:
  7014   0056F6  2EE8               	decfsz	wreg,f,c
  7015   0056F8  EF76  F02B         	goto	u3665
  7016   0056FC  5005               	movf	??___fpclassifyf^0,w,c
  7017   0056FE  6E09               	movwf	___fpclassifyf@e^0,c
  7018   005700  6A0A               	clrf	(___fpclassifyf@e+1)^0,c
  7019   005702  5009               	movf	___fpclassifyf@e^0,w,c
  7020   005704  100A               	iorwf	(___fpclassifyf@e+1)^0,w,c
  7021   005706  A4D8               	btfss	status,2,c
  7022   005708  EF88  F02B         	goto	u3671
  7023   00570C  EF8A  F02B         	goto	u3670
  7024   005710                     u3671:
  7025   005710  EFAA  F02B         	goto	l3563
  7026   005714                     u3670:
  7027   005714  90D8               	bcf	status,0,c
  7028   005716  340B               	rlcf	___fpclassifyf@u^0,w,c
  7029   005718  6E05               	movwf	??___fpclassifyf^0,c
  7030   00571A  340C               	rlcf	(___fpclassifyf@u+1)^0,w,c
  7031   00571C  6E06               	movwf	(??___fpclassifyf+1)^0,c
  7032   00571E  340D               	rlcf	(___fpclassifyf@u+2)^0,w,c
  7033   005720  6E07               	movwf	(??___fpclassifyf+2)^0,c
  7034   005722  340E               	rlcf	(___fpclassifyf@u+3)^0,w,c
  7035   005724  6E08               	movwf	(??___fpclassifyf+3)^0,c
  7036   005726  5005               	movf	??___fpclassifyf^0,w,c
  7037   005728  1006               	iorwf	(??___fpclassifyf+1)^0,w,c
  7038   00572A  1007               	iorwf	(??___fpclassifyf+2)^0,w,c
  7039   00572C  1008               	iorwf	(??___fpclassifyf+3)^0,w,c
  7040   00572E  A4D8               	btfss	status,2,c
  7041   005730  EF9C  F02B         	goto	u3681
  7042   005734  EF9E  F02B         	goto	u3680
  7043   005738                     u3681:
  7044   005738  EFA4  F02B         	goto	l3559
  7045   00573C                     u3680:
  7046   00573C  0E00               	movlw	0
  7047   00573E  6E02               	movwf	(?___fpclassifyf+1)^0,c
  7048   005740  0E02               	movlw	2
  7049   005742  6E01               	movwf	?___fpclassifyf^0,c
  7050   005744  EFD9  F02B         	goto	l1015
  7051   005748                     l3559:
  7052   005748  0E00               	movlw	0
  7053   00574A  6E02               	movwf	(?___fpclassifyf+1)^0,c
  7054   00574C  0E03               	movlw	3
  7055   00574E  6E01               	movwf	?___fpclassifyf^0,c
  7056   005750  EFD9  F02B         	goto	l1015
  7057   005754                     l3563:
  7058   005754  2809               	incf	___fpclassifyf@e^0,w,c
  7059   005756  100A               	iorwf	(___fpclassifyf@e+1)^0,w,c
  7060   005758  A4D8               	btfss	status,2,c
  7061   00575A  EFB1  F02B         	goto	u3691
  7062   00575E  EFB3  F02B         	goto	u3690
  7063   005762                     u3691:
  7064   005762  EFD5  F02B         	goto	l3569
  7065   005766                     u3690:
  7066   005766  C00B  F005         	movff	___fpclassifyf@u,??___fpclassifyf
  7067   00576A  C00C  F006         	movff	___fpclassifyf@u+1,??___fpclassifyf+1
  7068   00576E  C00D  F007         	movff	___fpclassifyf@u+2,??___fpclassifyf+2
  7069   005772  C00E  F008         	movff	___fpclassifyf@u+3,??___fpclassifyf+3
  7070   005776  0E09               	movlw	9
  7071   005778                     u3705:
  7072   005778  90D8               	bcf	status,0,c
  7073   00577A  3605               	rlcf	??___fpclassifyf^0,f,c
  7074   00577C  3606               	rlcf	(??___fpclassifyf+1)^0,f,c
  7075   00577E  3607               	rlcf	(??___fpclassifyf+2)^0,f,c
  7076   005780  3608               	rlcf	(??___fpclassifyf+3)^0,f,c
  7077   005782  2EE8               	decfsz	wreg,f,c
  7078   005784  EFBC  F02B         	goto	u3705
  7079   005788  5005               	movf	??___fpclassifyf^0,w,c
  7080   00578A  1006               	iorwf	(??___fpclassifyf+1)^0,w,c
  7081   00578C  1007               	iorwf	(??___fpclassifyf+2)^0,w,c
  7082   00578E  1008               	iorwf	(??___fpclassifyf+3)^0,w,c
  7083   005790  B4D8               	btfsc	status,2,c
  7084   005792  EFCD  F02B         	goto	u3711
  7085   005796  EFD0  F02B         	goto	u3710
  7086   00579A                     u3711:
  7087   00579A  0E01               	movlw	1
  7088   00579C  EFD1  F02B         	goto	u3720
  7089   0057A0                     u3710:
  7090   0057A0  0E00               	movlw	0
  7091   0057A2                     u3720:
  7092   0057A2  6E01               	movwf	?___fpclassifyf^0,c
  7093   0057A4  6A02               	clrf	(?___fpclassifyf+1)^0,c
  7094   0057A6  EFD9  F02B         	goto	l1015
  7095   0057AA                     l3569:
  7096   0057AA  0E00               	movlw	0
  7097   0057AC  6E02               	movwf	(?___fpclassifyf+1)^0,c
  7098   0057AE  0E04               	movlw	4
  7099   0057B0  6E01               	movwf	?___fpclassifyf^0,c
  7100   0057B2                     l1015:
  7101   0057B2  0012               	return		;funcret
  7102   0057B4                     __end_of___fpclassifyf:
  7103                           	callstack 0
  7104                           
  7105 ;; *************** function ___fltol *****************
  7106 ;; Defined at:
  7107 ;;		line 43 in file "C:\Program Files\Microchip\xc8\v3.00\pic\sources\c99\common\fltol.c"
  7108 ;; Parameters:    Size  Location     Type
  7109 ;;  f1              4    0[COMRAM] int 
  7110 ;; Auto vars:     Size  Location     Type
  7111 ;;  exp1            1    9[COMRAM] unsigned char 
  7112 ;;  sign1           1    8[COMRAM] unsigned char 
  7113 ;; Return value:  Size  Location     Type
  7114 ;;                  4    0[COMRAM] long 
  7115 ;; Registers used:
  7116 ;;		wreg, status,2, status,0
  7117 ;; Tracked objects:
  7118 ;;		On entry : 0/0
  7119 ;;		On exit  : 0/0
  7120 ;;		Unchanged: 0/0
  7121 ;; Data sizes:     COMRAM   BANK0   BANK1   BANK2   BANK3   BANK4   BANK5   BANK6   BANK7   BANK8   BANK9  BANK10  BANK1
      +1  BANK12  BANK13  BANK14  BANK15  BANK16  BANK17  BANK18  BANK19  BANK20  BANK21  BANK22  BANK23  BANK24  BANK25  BANK2
      +6  BANK27  BANK28  BANK29  BANK30  BANK31
  7122 ;;      Params:         4       0       0       0       0       0       0       0       0       0       0       0       
      +0       0       0       0       0       0       0       0       0       0       0       0       0       0       0       
      +0       0       0       0       0       0
  7123 ;;      Locals:         2       0       0       0       0       0       0       0       0       0       0       0       
      +0       0       0       0       0       0       0       0       0       0       0       0       0       0       0       
      +0       0       0       0       0       0
  7124 ;;      Temps:          4       0       0       0       0       0       0       0       0       0       0       0       
      +0       0       0       0       0       0       0       0       0       0       0       0       0       0       0       
      +0       0       0       0       0       0
  7125 ;;      Totals:        10       0       0       0       0       0       0       0       0       0       0       0       
      +0       0       0       0       0       0       0       0       0       0       0       0       0       0       0       
      +0       0       0       0       0       0
  7126 ;;Total ram usage:       10 bytes
  7127 ;; Hardware stack levels used: 1
  7128 ;; This function calls:
  7129 ;;		Nothing
  7130 ;; This function is called by:
  7131 ;;		_efgtoa
  7132 ;; This function uses a non-reentrant model
  7133 ;;
  7134                           
  7135                           	psect	text12
  7136   0054AC                     __ptext12:
  7137                           	callstack 0
  7138   0054AC                     ___fltol:
  7139                           	callstack 26
  7140   0054AC  3403               	rlcf	(___fltol@f1+2)^0,w,c
  7141   0054AE  3404               	rlcf	(___fltol@f1+3)^0,w,c
  7142   0054B0  6E0A               	movwf	___fltol@exp1^0,c
  7143   0054B2  500A               	movf	___fltol@exp1^0,w,c
  7144   0054B4  A4D8               	btfss	status,2,c
  7145   0054B6  EF5F  F02A         	goto	u3541
  7146   0054BA  EF61  F02A         	goto	u3540
  7147   0054BE                     u3541:
  7148   0054BE  EF6B  F02A         	goto	l3493
  7149   0054C2                     u3540:
  7150   0054C2                     l3489:
  7151   0054C2  0E00               	movlw	0
  7152   0054C4  6E01               	movwf	?___fltol^0,c
  7153   0054C6  0E00               	movlw	0
  7154   0054C8  6E02               	movwf	(?___fltol+1)^0,c
  7155   0054CA  0E00               	movlw	0
  7156   0054CC  6E03               	movwf	(?___fltol+2)^0,c
  7157   0054CE  0E00               	movlw	0
  7158   0054D0  6E04               	movwf	(?___fltol+3)^0,c
  7159   0054D2  EFD8  F02A         	goto	l480
  7160   0054D6                     l3493:
  7161   0054D6  C001  F005         	movff	___fltol@f1,??___fltol
  7162   0054DA  C002  F006         	movff	___fltol@f1+1,??___fltol+1
  7163   0054DE  C003  F007         	movff	___fltol@f1+2,??___fltol+2
  7164   0054E2  C004  F008         	movff	___fltol@f1+3,??___fltol+3
  7165   0054E6  0E20               	movlw	32
  7166   0054E8  EF7B  F02A         	goto	u3550
  7167   0054EC                     u3555:
  7168   0054EC  90D8               	bcf	status,0,c
  7169   0054EE  3208               	rrcf	(??___fltol+3)^0,f,c
  7170   0054F0  3207               	rrcf	(??___fltol+2)^0,f,c
  7171   0054F2  3206               	rrcf	(??___fltol+1)^0,f,c
  7172   0054F4  3205               	rrcf	??___fltol^0,f,c
  7173   0054F6                     u3550:
  7174   0054F6  2EE8               	decfsz	wreg,f,c
  7175   0054F8  EF76  F02A         	goto	u3555
  7176   0054FC  5005               	movf	??___fltol^0,w,c
  7177   0054FE  6E09               	movwf	___fltol@sign1^0,c
  7178   005500  8E03               	bsf	(___fltol@f1+2)^0,7,c
  7179   005502  0EFF               	movlw	255
  7180   005504  1601               	andwf	___fltol@f1^0,f,c
  7181   005506  0EFF               	movlw	255
  7182   005508  1602               	andwf	(___fltol@f1+1)^0,f,c
  7183   00550A  0EFF               	movlw	255
  7184   00550C  1603               	andwf	(___fltol@f1+2)^0,f,c
  7185   00550E  0E00               	movlw	0
  7186   005510  1604               	andwf	(___fltol@f1+3)^0,f,c
  7187   005512  0E96               	movlw	150
  7188   005514  5E0A               	subwf	___fltol@exp1^0,f,c
  7189   005516  BE0A               	btfsc	___fltol@exp1^0,7,c
  7190   005518  EF92  F02A         	goto	u3560
  7191   00551C  EF90  F02A         	goto	u3561
  7192   005520                     u3561:
  7193   005520  EFA8  F02A         	goto	l3513
  7194   005524                     u3560:
  7195   005524  500A               	movf	___fltol@exp1^0,w,c
  7196   005526  0A80               	xorlw	128
  7197   005528  0F97               	addlw	151
  7198   00552A  B0D8               	btfsc	status,0,c
  7199   00552C  EF9A  F02A         	goto	u3571
  7200   005530  EF9C  F02A         	goto	u3570
  7201   005534                     u3571:
  7202   005534  EF9E  F02A         	goto	l3509
  7203   005538                     u3570:
  7204   005538  EF61  F02A         	goto	l3489
  7205   00553C                     l3509:
  7206   00553C  90D8               	bcf	status,0,c
  7207   00553E  3204               	rrcf	(___fltol@f1+3)^0,f,c
  7208   005540  3203               	rrcf	(___fltol@f1+2)^0,f,c
  7209   005542  3202               	rrcf	(___fltol@f1+1)^0,f,c
  7210   005544  3201               	rrcf	___fltol@f1^0,f,c
  7211   005546  3E0A               	incfsz	___fltol@exp1^0,f,c
  7212   005548  EF9E  F02A         	goto	l3509
  7213   00554C  EFC0  F02A         	goto	l3523
  7214   005550                     l3513:
  7215   005550  0E1F               	movlw	31
  7216   005552  640A               	cpfsgt	___fltol@exp1^0,c
  7217   005554  EFAE  F02A         	goto	u3581
  7218   005558  EFB0  F02A         	goto	u3580
  7219   00555C                     u3581:
  7220   00555C  EFB8  F02A         	goto	l3521
  7221   005560                     u3580:
  7222   005560  EF61  F02A         	goto	l3489
  7223   005564                     l3519:
  7224   005564  90D8               	bcf	status,0,c
  7225   005566  3601               	rlcf	___fltol@f1^0,f,c
  7226   005568  3602               	rlcf	(___fltol@f1+1)^0,f,c
  7227   00556A  3603               	rlcf	(___fltol@f1+2)^0,f,c
  7228   00556C  3604               	rlcf	(___fltol@f1+3)^0,f,c
  7229   00556E  060A               	decf	___fltol@exp1^0,f,c
  7230   005570                     l3521:
  7231   005570  500A               	movf	___fltol@exp1^0,w,c
  7232   005572  A4D8               	btfss	status,2,c
  7233   005574  EFBE  F02A         	goto	u3591
  7234   005578  EFC0  F02A         	goto	u3590
  7235   00557C                     u3591:
  7236   00557C  EFB2  F02A         	goto	l3519
  7237   005580                     u3590:
  7238   005580                     l3523:
  7239   005580  5009               	movf	___fltol@sign1^0,w,c
  7240   005582  B4D8               	btfsc	status,2,c
  7241   005584  EFC6  F02A         	goto	u3601
  7242   005588  EFC8  F02A         	goto	u3600
  7243   00558C                     u3601:
  7244   00558C  EFD0  F02A         	goto	l3527
  7245   005590                     u3600:
  7246   005590  1E04               	comf	(___fltol@f1+3)^0,f,c
  7247   005592  1E03               	comf	(___fltol@f1+2)^0,f,c
  7248   005594  1E02               	comf	(___fltol@f1+1)^0,f,c
  7249   005596  6C01               	negf	___fltol@f1^0,c
  7250   005598  0E00               	movlw	0
  7251   00559A  2202               	addwfc	(___fltol@f1+1)^0,f,c
  7252   00559C  2203               	addwfc	(___fltol@f1+2)^0,f,c
  7253   00559E  2204               	addwfc	(___fltol@f1+3)^0,f,c
  7254   0055A0                     l3527:
  7255   0055A0  C001  F001         	movff	___fltol@f1,?___fltol
  7256   0055A4  C002  F002         	movff	___fltol@f1+1,?___fltol+1
  7257   0055A8  C003  F003         	movff	___fltol@f1+2,?___fltol+2
  7258   0055AC  C004  F004         	movff	___fltol@f1+3,?___fltol+3
  7259   0055B0                     l480:
  7260   0055B0  0012               	return		;funcret
  7261   0055B2                     __end_of___fltol:
  7262                           	callstack 0
  7263                           
  7264 ;; *************** function ___flsub *****************
  7265 ;; Defined at:
  7266 ;;		line 245 in file "C:\Program Files\Microchip\xc8\v3.00\pic\sources\c99\common\sprcadd.c"
  7267 ;; Parameters:    Size  Location     Type
  7268 ;;  b               4   39[COMRAM] long 
  7269 ;;  a               4   43[COMRAM] long 
  7270 ;; Auto vars:     Size  Location     Type
  7271 ;;		None
  7272 ;; Return value:  Size  Location     Type
  7273 ;;                  4   39[COMRAM] long 
  7274 ;; Registers used:
  7275 ;;		wreg, status,2, status,0, cstack
  7276 ;; Tracked objects:
  7277 ;;		On entry : 0/0
  7278 ;;		On exit  : 0/0
  7279 ;;		Unchanged: 0/0
  7280 ;; Data sizes:     COMRAM   BANK0   BANK1   BANK2   BANK3   BANK4   BANK5   BANK6   BANK7   BANK8   BANK9  BANK10  BANK1
      +1  BANK12  BANK13  BANK14  BANK15  BANK16  BANK17  BANK18  BANK19  BANK20  BANK21  BANK22  BANK23  BANK24  BANK25  BANK2
      +6  BANK27  BANK28  BANK29  BANK30  BANK31
  7281 ;;      Params:         8       0       0       0       0       0       0       0       0       0       0       0       
      +0       0       0       0       0       0       0       0       0       0       0       0       0       0       0       
      +0       0       0       0       0       0
  7282 ;;      Locals:         0       0       0       0       0       0       0       0       0       0       0       0       
      +0       0       0       0       0       0       0       0       0       0       0       0       0       0       0       
      +0       0       0       0       0       0
  7283 ;;      Temps:          0       0       0       0       0       0       0       0       0       0       0       0       
      +0       0       0       0       0       0       0       0       0       0       0       0       0       0       0       
      +0       0       0       0       0       0
  7284 ;;      Totals:         8       0       0       0       0       0       0       0       0       0       0       0       
      +0       0       0       0       0       0       0       0       0       0       0       0       0       0       0       
      +0       0       0       0       0       0
  7285 ;;Total ram usage:        8 bytes
  7286 ;; Hardware stack levels used: 1
  7287 ;; Hardware stack levels required when called: 1
  7288 ;; This function calls:
  7289 ;;		___fladd
  7290 ;; This function is called by:
  7291 ;;		_main
  7292 ;;		_efgtoa
  7293 ;; This function uses a non-reentrant model
  7294 ;;
  7295                           
  7296                           	psect	text13
  7297   005EB0                     __ptext13:
  7298                           	callstack 0
  7299   005EB0                     ___flsub:
  7300                           	callstack 25
  7301   005EB0  0E00               	movlw	0
  7302   005EB2  1A2C               	xorwf	___flsub@a^0,f,c
  7303   005EB4  0E00               	movlw	0
  7304   005EB6  1A2D               	xorwf	(___flsub@a+1)^0,f,c
  7305   005EB8  0E00               	movlw	0
  7306   005EBA  1A2E               	xorwf	(___flsub@a+2)^0,f,c
  7307   005EBC  0E80               	movlw	128
  7308   005EBE  1A2F               	xorwf	(___flsub@a+3)^0,f,c
  7309   005EC0  C028  F001         	movff	___flsub@b,___fladd@b
  7310   005EC4  C029  F002         	movff	___flsub@b+1,___fladd@b+1
  7311   005EC8  C02A  F003         	movff	___flsub@b+2,___fladd@b+2
  7312   005ECC  C02B  F004         	movff	___flsub@b+3,___fladd@b+3
  7313   005ED0  C02C  F005         	movff	___flsub@a,___fladd@a
  7314   005ED4  C02D  F006         	movff	___flsub@a+1,___fladd@a+1
  7315   005ED8  C02E  F007         	movff	___flsub@a+2,___fladd@a+2
  7316   005EDC  C02F  F008         	movff	___flsub@a+3,___fladd@a+3
  7317   005EE0  EC0B  F020         	call	___fladd	;wreg free
  7318   005EE4  C001  F028         	movff	?___fladd,?___flsub
  7319   005EE8  C002  F029         	movff	?___fladd+1,?___flsub+1
  7320   005EEC  C003  F02A         	movff	?___fladd+2,?___flsub+2
  7321   005EF0  C004  F02B         	movff	?___fladd+3,?___flsub+3
  7322   005EF4  0012               	return		;funcret
  7323   005EF6                     __end_of___flsub:
  7324                           	callstack 0
  7325                           
  7326 ;; *************** function ___fladd *****************
  7327 ;; Defined at:
  7328 ;;		line 10 in file "C:\Program Files\Microchip\xc8\v3.00\pic\sources\c99\common\sprcadd.c"
  7329 ;; Parameters:    Size  Location     Type
  7330 ;;  b               4    0[COMRAM] long 
  7331 ;;  a               4    4[COMRAM] long 
  7332 ;; Auto vars:     Size  Location     Type
  7333 ;;  grs             1   15[COMRAM] unsigned char 
  7334 ;;  bexp            1   14[COMRAM] unsigned char 
  7335 ;;  aexp            1   13[COMRAM] unsigned char 
  7336 ;;  signs           1   12[COMRAM] unsigned char 
  7337 ;; Return value:  Size  Location     Type
  7338 ;;                  4    0[COMRAM] unsigned char 
  7339 ;; Registers used:
  7340 ;;		wreg, status,2, status,0
  7341 ;; Tracked objects:
  7342 ;;		On entry : 0/0
  7343 ;;		On exit  : 0/0
  7344 ;;		Unchanged: 0/0
  7345 ;; Data sizes:     COMRAM   BANK0   BANK1   BANK2   BANK3   BANK4   BANK5   BANK6   BANK7   BANK8   BANK9  BANK10  BANK1
      +1  BANK12  BANK13  BANK14  BANK15  BANK16  BANK17  BANK18  BANK19  BANK20  BANK21  BANK22  BANK23  BANK24  BANK25  BANK2
      +6  BANK27  BANK28  BANK29  BANK30  BANK31
  7346 ;;      Params:         8       0       0       0       0       0       0       0       0       0       0       0       
      +0       0       0       0       0       0       0       0       0       0       0       0       0       0       0       
      +0       0       0       0       0       0
  7347 ;;      Locals:         4       0       0       0       0       0       0       0       0       0       0       0       
      +0       0       0       0       0       0       0       0       0       0       0       0       0       0       0       
      +0       0       0       0       0       0
  7348 ;;      Temps:          4       0       0       0       0       0       0       0       0       0       0       0       
      +0       0       0       0       0       0       0       0       0       0       0       0       0       0       0       
      +0       0       0       0       0       0
  7349 ;;      Totals:        16       0       0       0       0       0       0       0       0       0       0       0       
      +0       0       0       0       0       0       0       0       0       0       0       0       0       0       0       
      +0       0       0       0       0       0
  7350 ;;Total ram usage:       16 bytes
  7351 ;; Hardware stack levels used: 1
  7352 ;; This function calls:
  7353 ;;		Nothing
  7354 ;; This function is called by:
  7355 ;;		_main
  7356 ;;		___flsub
  7357 ;;		_efgtoa
  7358 ;; This function uses a non-reentrant model
  7359 ;;
  7360                           
  7361                           	psect	text14
  7362   004016                     __ptext14:
  7363                           	callstack 0
  7364   004016                     ___fladd:
  7365                           	callstack 25
  7366   004016  5004               	movf	(___fladd@b+3)^0,w,c
  7367   004018  0B80               	andlw	128
  7368   00401A  6E0D               	movwf	___fladd@signs^0,c
  7369   00401C  5004               	movf	(___fladd@b+3)^0,w,c
  7370   00401E  2404               	addwf	(___fladd@b+3)^0,w,c
  7371   004020  6E0F               	movwf	___fladd@bexp^0,c
  7372   004022  AE03               	btfss	(___fladd@b+2)^0,7,c
  7373   004024  EF16  F020         	goto	u2511
  7374   004028  EF18  F020         	goto	u2510
  7375   00402C                     u2511:
  7376   00402C  EF19  F020         	goto	l2895
  7377   004030                     u2510:
  7378   004030  800F               	bsf	___fladd@bexp^0,0,c
  7379   004032                     l2895:
  7380   004032  500F               	movf	___fladd@bexp^0,w,c
  7381   004034  B4D8               	btfsc	status,2,c
  7382   004036  EF1F  F020         	goto	u2521
  7383   00403A  EF21  F020         	goto	u2520
  7384   00403E                     u2521:
  7385   00403E  EF35  F020         	goto	l2905
  7386   004042                     u2520:
  7387   004042  280F               	incf	___fladd@bexp^0,w,c
  7388   004044  A4D8               	btfss	status,2,c
  7389   004046  EF27  F020         	goto	u2531
  7390   00404A  EF29  F020         	goto	u2530
  7391   00404E                     u2531:
  7392   00404E  EF31  F020         	goto	l2901
  7393   004052                     u2530:
  7394   004052  0E00               	movlw	0
  7395   004054  6E01               	movwf	___fladd@b^0,c
  7396   004056  0E00               	movlw	0
  7397   004058  6E02               	movwf	(___fladd@b+1)^0,c
  7398   00405A  0E00               	movlw	0
  7399   00405C  6E03               	movwf	(___fladd@b+2)^0,c
  7400   00405E  0E00               	movlw	0
  7401   004060  6E04               	movwf	(___fladd@b+3)^0,c
  7402   004062                     l2901:
  7403   004062  8E03               	bsf	(___fladd@b+2)^0,7,c
  7404   004064  6A04               	clrf	(___fladd@b+3)^0,c
  7405   004066  EF3D  F020         	goto	l2907
  7406   00406A                     l2905:
  7407   00406A  0E00               	movlw	0
  7408   00406C  6E01               	movwf	___fladd@b^0,c
  7409   00406E  0E00               	movlw	0
  7410   004070  6E02               	movwf	(___fladd@b+1)^0,c
  7411   004072  0E00               	movlw	0
  7412   004074  6E03               	movwf	(___fladd@b+2)^0,c
  7413   004076  0E00               	movlw	0
  7414   004078  6E04               	movwf	(___fladd@b+3)^0,c
  7415   00407A                     l2907:
  7416   00407A  5008               	movf	(___fladd@a+3)^0,w,c
  7417   00407C  0B80               	andlw	128
  7418   00407E  6E0E               	movwf	___fladd@aexp^0,c
  7419   004080  500D               	movf	___fladd@signs^0,w,c
  7420   004082  180E               	xorwf	___fladd@aexp^0,w,c
  7421   004084  B4D8               	btfsc	status,2,c
  7422   004086  EF47  F020         	goto	u2541
  7423   00408A  EF49  F020         	goto	u2540
  7424   00408E                     u2541:
  7425   00408E  EF4A  F020         	goto	l2913
  7426   004092                     u2540:
  7427   004092  8C0D               	bsf	___fladd@signs^0,6,c
  7428   004094                     l2913:
  7429   004094  5008               	movf	(___fladd@a+3)^0,w,c
  7430   004096  2408               	addwf	(___fladd@a+3)^0,w,c
  7431   004098  6E0E               	movwf	___fladd@aexp^0,c
  7432   00409A  AE07               	btfss	(___fladd@a+2)^0,7,c
  7433   00409C  EF52  F020         	goto	u2551
  7434   0040A0  EF54  F020         	goto	u2550
  7435   0040A4                     u2551:
  7436   0040A4  EF55  F020         	goto	l2919
  7437   0040A8                     u2550:
  7438   0040A8  800E               	bsf	___fladd@aexp^0,0,c
  7439   0040AA                     l2919:
  7440   0040AA  500E               	movf	___fladd@aexp^0,w,c
  7441   0040AC  B4D8               	btfsc	status,2,c
  7442   0040AE  EF5B  F020         	goto	u2561
  7443   0040B2  EF5D  F020         	goto	u2560
  7444   0040B6                     u2561:
  7445   0040B6  EF71  F020         	goto	l2929
  7446   0040BA                     u2560:
  7447   0040BA  280E               	incf	___fladd@aexp^0,w,c
  7448   0040BC  A4D8               	btfss	status,2,c
  7449   0040BE  EF63  F020         	goto	u2571
  7450   0040C2  EF65  F020         	goto	u2570
  7451   0040C6                     u2571:
  7452   0040C6  EF6D  F020         	goto	l2925
  7453   0040CA                     u2570:
  7454   0040CA  0E00               	movlw	0
  7455   0040CC  6E05               	movwf	___fladd@a^0,c
  7456   0040CE  0E00               	movlw	0
  7457   0040D0  6E06               	movwf	(___fladd@a+1)^0,c
  7458   0040D2  0E00               	movlw	0
  7459   0040D4  6E07               	movwf	(___fladd@a+2)^0,c
  7460   0040D6  0E00               	movlw	0
  7461   0040D8  6E08               	movwf	(___fladd@a+3)^0,c
  7462   0040DA                     l2925:
  7463   0040DA  8E07               	bsf	(___fladd@a+2)^0,7,c
  7464   0040DC  6A08               	clrf	(___fladd@a+3)^0,c
  7465   0040DE  EF79  F020         	goto	l2931
  7466   0040E2                     l2929:
  7467   0040E2  0E00               	movlw	0
  7468   0040E4  6E05               	movwf	___fladd@a^0,c
  7469   0040E6  0E00               	movlw	0
  7470   0040E8  6E06               	movwf	(___fladd@a+1)^0,c
  7471   0040EA  0E00               	movlw	0
  7472   0040EC  6E07               	movwf	(___fladd@a+2)^0,c
  7473   0040EE  0E00               	movlw	0
  7474   0040F0  6E08               	movwf	(___fladd@a+3)^0,c
  7475   0040F2                     l2931:
  7476   0040F2  500F               	movf	___fladd@bexp^0,w,c
  7477   0040F4  5C0E               	subwf	___fladd@aexp^0,w,c
  7478   0040F6  B0D8               	btfsc	status,0,c
  7479   0040F8  EF80  F020         	goto	u2581
  7480   0040FC  EF82  F020         	goto	u2580
  7481   004100                     u2581:
  7482   004100  EFA9  F020         	goto	l2967
  7483   004104                     u2580:
  7484   004104  AC0D               	btfss	___fladd@signs^0,6,c
  7485   004106  EF87  F020         	goto	u2591
  7486   00410A  EF89  F020         	goto	u2590
  7487   00410E                     u2591:
  7488   00410E  EF8B  F020         	goto	l2937
  7489   004112                     u2590:
  7490   004112  0E80               	movlw	128
  7491   004114  1A0D               	xorwf	___fladd@signs^0,f,c
  7492   004116                     l2937:
  7493   004116  C00F  F010         	movff	___fladd@bexp,___fladd@grs
  7494   00411A  C00E  F00F         	movff	___fladd@aexp,___fladd@bexp
  7495   00411E  C010  F00E         	movff	___fladd@grs,___fladd@aexp
  7496   004122  C001  F010         	movff	___fladd@b,___fladd@grs
  7497   004126  C005  F001         	movff	___fladd@a,___fladd@b
  7498   00412A  C010  F005         	movff	___fladd@grs,___fladd@a
  7499   00412E  C002  F010         	movff	___fladd@b+1,___fladd@grs
  7500   004132  C006  F002         	movff	___fladd@a+1,___fladd@b+1
  7501   004136  C010  F006         	movff	___fladd@grs,___fladd@a+1
  7502   00413A  C003  F010         	movff	___fladd@b+2,___fladd@grs
  7503   00413E  C007  F003         	movff	___fladd@a+2,___fladd@b+2
  7504   004142  C010  F007         	movff	___fladd@grs,___fladd@a+2
  7505   004146  C004  F010         	movff	___fladd@b+3,___fladd@grs
  7506   00414A  C008  F004         	movff	___fladd@a+3,___fladd@b+3
  7507   00414E  C010  F008         	movff	___fladd@grs,___fladd@a+3
  7508   004152                     l2967:
  7509   004152  6A10               	clrf	___fladd@grs^0,c
  7510   004154  500F               	movf	___fladd@bexp^0,w,c
  7511   004156  C00E  F009         	movff	___fladd@aexp,??___fladd
  7512   00415A  6A0A               	clrf	(??___fladd+1)^0,c
  7513   00415C  5E09               	subwf	??___fladd^0,f,c
  7514   00415E  0E00               	movlw	0
  7515   004160  5A0A               	subwfb	(??___fladd+1)^0,f,c
  7516   004162  BE0A               	btfsc	(??___fladd+1)^0,7,c
  7517   004164  EFBD  F020         	goto	u2601
  7518   004168  500A               	movf	(??___fladd+1)^0,w,c
  7519   00416A  E109               	bnz	u2600
  7520   00416C  0E1A               	movlw	26
  7521   00416E  5C09               	subwf	??___fladd^0,w,c
  7522   004170  A0D8               	btfss	status,0,c
  7523   004172  EFBD  F020         	goto	u2601
  7524   004176  EFBF  F020         	goto	u2600
  7525   00417A                     u2601:
  7526   00417A  EFF6  F020         	goto	l712
  7527   00417E                     u2600:
  7528   00417E  5001               	movf	___fladd@b^0,w,c
  7529   004180  1002               	iorwf	(___fladd@b+1)^0,w,c
  7530   004182  1003               	iorwf	(___fladd@b+2)^0,w,c
  7531   004184  1004               	iorwf	(___fladd@b+3)^0,w,c
  7532   004186  A4D8               	btfss	status,2,c
  7533   004188  EFC8  F020         	goto	u2611
  7534   00418C  EFCB  F020         	goto	u2610
  7535   004190                     u2611:
  7536   004190  0E01               	movlw	1
  7537   004192  EFCC  F020         	goto	u2620
  7538   004196                     u2610:
  7539   004196  0E00               	movlw	0
  7540   004198                     u2620:
  7541   004198  6E10               	movwf	___fladd@grs^0,c
  7542   00419A  0E00               	movlw	0
  7543   00419C  6E01               	movwf	___fladd@b^0,c
  7544   00419E  0E00               	movlw	0
  7545   0041A0  6E02               	movwf	(___fladd@b+1)^0,c
  7546   0041A2  0E00               	movlw	0
  7547   0041A4  6E03               	movwf	(___fladd@b+2)^0,c
  7548   0041A6  0E00               	movlw	0
  7549   0041A8  6E04               	movwf	(___fladd@b+3)^0,c
  7550   0041AA  C00E  F00F         	movff	___fladd@aexp,___fladd@bexp
  7551   0041AE  EFFF  F020         	goto	l711
  7552   0041B2                     l713:
  7553   0041B2  A010               	btfss	___fladd@grs^0,0,c
  7554   0041B4  EFDE  F020         	goto	u2631
  7555   0041B8  EFE0  F020         	goto	u2630
  7556   0041BC                     u2631:
  7557   0041BC  EFE6  F020         	goto	l2977
  7558   0041C0                     u2630:
  7559   0041C0  90D8               	bcf	status,0,c
  7560   0041C2  3010               	rrcf	___fladd@grs^0,w,c
  7561   0041C4  0901               	iorlw	1
  7562   0041C6  6E10               	movwf	___fladd@grs^0,c
  7563   0041C8  EFE8  F020         	goto	l2979
  7564   0041CC                     l2977:
  7565   0041CC  90D8               	bcf	status,0,c
  7566   0041CE  3210               	rrcf	___fladd@grs^0,f,c
  7567   0041D0                     l2979:
  7568   0041D0  A001               	btfss	___fladd@b^0,0,c
  7569   0041D2  EFED  F020         	goto	u2641
  7570   0041D6  EFEF  F020         	goto	u2640
  7571   0041DA                     u2641:
  7572   0041DA  EFF0  F020         	goto	l2983
  7573   0041DE                     u2640:
  7574   0041DE  8E10               	bsf	___fladd@grs^0,7,c
  7575   0041E0                     l2983:
  7576   0041E0  3404               	rlcf	(___fladd@b+3)^0,w,c
  7577   0041E2  3204               	rrcf	(___fladd@b+3)^0,f,c
  7578   0041E4  3203               	rrcf	(___fladd@b+2)^0,f,c
  7579   0041E6  3202               	rrcf	(___fladd@b+1)^0,f,c
  7580   0041E8  3201               	rrcf	___fladd@b^0,f,c
  7581   0041EA  2A0F               	incf	___fladd@bexp^0,f,c
  7582   0041EC                     l712:
  7583   0041EC  500E               	movf	___fladd@aexp^0,w,c
  7584   0041EE  5C0F               	subwf	___fladd@bexp^0,w,c
  7585   0041F0  A0D8               	btfss	status,0,c
  7586   0041F2  EFFD  F020         	goto	u2651
  7587   0041F6  EFFF  F020         	goto	u2650
  7588   0041FA                     u2651:
  7589   0041FA  EFD9  F020         	goto	l713
  7590   0041FE                     u2650:
  7591   0041FE                     l711:
  7592   0041FE  BC0D               	btfsc	___fladd@signs^0,6,c
  7593   004200  EF04  F021         	goto	u2661
  7594   004204  EF06  F021         	goto	u2660
  7595   004208                     u2661:
  7596   004208  EF46  F021         	goto	l3011
  7597   00420C                     u2660:
  7598   00420C  500F               	movf	___fladd@bexp^0,w,c
  7599   00420E  A4D8               	btfss	status,2,c
  7600   004210  EF0C  F021         	goto	u2671
  7601   004214  EF0E  F021         	goto	u2670
  7602   004218                     u2671:
  7603   004218  EF18  F021         	goto	l2993
  7604   00421C                     u2670:
  7605   00421C  0E00               	movlw	0
  7606   00421E  6E01               	movwf	?___fladd^0,c
  7607   004220  0E00               	movlw	0
  7608   004222  6E02               	movwf	(?___fladd+1)^0,c
  7609   004224  0E00               	movlw	0
  7610   004226  6E03               	movwf	(?___fladd+2)^0,c
  7611   004228  0E00               	movlw	0
  7612   00422A  6E04               	movwf	(?___fladd+3)^0,c
  7613   00422C  EF65  F022         	goto	l720
  7614   004230                     l2993:
  7615   004230  5005               	movf	___fladd@a^0,w,c
  7616   004232  2601               	addwf	___fladd@b^0,f,c
  7617   004234  5006               	movf	(___fladd@a+1)^0,w,c
  7618   004236  2202               	addwfc	(___fladd@b+1)^0,f,c
  7619   004238  5007               	movf	(___fladd@a+2)^0,w,c
  7620   00423A  2203               	addwfc	(___fladd@b+2)^0,f,c
  7621   00423C  5008               	movf	(___fladd@a+3)^0,w,c
  7622   00423E  2204               	addwfc	(___fladd@b+3)^0,f,c
  7623   004240  A004               	btfss	(___fladd@b+3)^0,0,c
  7624   004242  EF25  F021         	goto	u2681
  7625   004246  EF27  F021         	goto	u2680
  7626   00424A                     u2681:
  7627   00424A  EFD3  F021         	goto	l725
  7628   00424E                     u2680:
  7629   00424E  A010               	btfss	___fladd@grs^0,0,c
  7630   004250  EF2C  F021         	goto	u2691
  7631   004254  EF2E  F021         	goto	u2690
  7632   004258                     u2691:
  7633   004258  EF34  F021         	goto	l3001
  7634   00425C                     u2690:
  7635   00425C  90D8               	bcf	status,0,c
  7636   00425E  3010               	rrcf	___fladd@grs^0,w,c
  7637   004260  0901               	iorlw	1
  7638   004262  6E10               	movwf	___fladd@grs^0,c
  7639   004264  EF36  F021         	goto	l3003
  7640   004268                     l3001:
  7641   004268  90D8               	bcf	status,0,c
  7642   00426A  3210               	rrcf	___fladd@grs^0,f,c
  7643   00426C                     l3003:
  7644   00426C  A001               	btfss	___fladd@b^0,0,c
  7645   00426E  EF3B  F021         	goto	u2701
  7646   004272  EF3D  F021         	goto	u2700
  7647   004276                     u2701:
  7648   004276  EF3E  F021         	goto	l3007
  7649   00427A                     u2700:
  7650   00427A  8E10               	bsf	___fladd@grs^0,7,c
  7651   00427C                     l3007:
  7652   00427C  3404               	rlcf	(___fladd@b+3)^0,w,c
  7653   00427E  3204               	rrcf	(___fladd@b+3)^0,f,c
  7654   004280  3203               	rrcf	(___fladd@b+2)^0,f,c
  7655   004282  3202               	rrcf	(___fladd@b+1)^0,f,c
  7656   004284  3201               	rrcf	___fladd@b^0,f,c
  7657   004286  2A0F               	incf	___fladd@bexp^0,f,c
  7658   004288  EFD3  F021         	goto	l725
  7659   00428C                     l3011:
  7660   00428C  5005               	movf	___fladd@a^0,w,c
  7661   00428E  5C01               	subwf	___fladd@b^0,w,c
  7662   004290  5006               	movf	(___fladd@a+1)^0,w,c
  7663   004292  5802               	subwfb	(___fladd@b+1)^0,w,c
  7664   004294  5007               	movf	(___fladd@a+2)^0,w,c
  7665   004296  5803               	subwfb	(___fladd@b+2)^0,w,c
  7666   004298  5004               	movf	(___fladd@b+3)^0,w,c
  7667   00429A  0A80               	xorlw	128
  7668   00429C  6E09               	movwf	??___fladd^0,c
  7669   00429E  5008               	movf	(___fladd@a+3)^0,w,c
  7670   0042A0  0A80               	xorlw	128
  7671   0042A2  5809               	subwfb	??___fladd^0,w,c
  7672   0042A4  B0D8               	btfsc	status,0,c
  7673   0042A6  EF57  F021         	goto	u2711
  7674   0042AA  EF59  F021         	goto	u2710
  7675   0042AE                     u2711:
  7676   0042AE  EF84  F021         	goto	l3021
  7677   0042B2                     u2710:
  7678   0042B2  5001               	movf	___fladd@b^0,w,c
  7679   0042B4  5C05               	subwf	___fladd@a^0,w,c
  7680   0042B6  6E09               	movwf	??___fladd^0,c
  7681   0042B8  5002               	movf	(___fladd@b+1)^0,w,c
  7682   0042BA  5806               	subwfb	(___fladd@a+1)^0,w,c
  7683   0042BC  6E0A               	movwf	(??___fladd+1)^0,c
  7684   0042BE  5003               	movf	(___fladd@b+2)^0,w,c
  7685   0042C0  5807               	subwfb	(___fladd@a+2)^0,w,c
  7686   0042C2  6E0B               	movwf	(??___fladd+2)^0,c
  7687   0042C4  5004               	movf	(___fladd@b+3)^0,w,c
  7688   0042C6  5808               	subwfb	(___fladd@a+3)^0,w,c
  7689   0042C8  6E0C               	movwf	(??___fladd+3)^0,c
  7690   0042CA  0EFF               	movlw	255
  7691   0042CC  2409               	addwf	??___fladd^0,w,c
  7692   0042CE  6E01               	movwf	___fladd@b^0,c
  7693   0042D0  0EFF               	movlw	255
  7694   0042D2  200A               	addwfc	(??___fladd+1)^0,w,c
  7695   0042D4  6E02               	movwf	(___fladd@b+1)^0,c
  7696   0042D6  0EFF               	movlw	255
  7697   0042D8  200B               	addwfc	(??___fladd+2)^0,w,c
  7698   0042DA  6E03               	movwf	(___fladd@b+2)^0,c
  7699   0042DC  0EFF               	movlw	255
  7700   0042DE  200C               	addwfc	(??___fladd+3)^0,w,c
  7701   0042E0  6E04               	movwf	(___fladd@b+3)^0,c
  7702   0042E2  0E80               	movlw	128
  7703   0042E4  1A0D               	xorwf	___fladd@signs^0,f,c
  7704   0042E6  6C10               	negf	___fladd@grs^0,c
  7705   0042E8  5010               	movf	___fladd@grs^0,w,c
  7706   0042EA  A4D8               	btfss	status,2,c
  7707   0042EC  EF7A  F021         	goto	u2721
  7708   0042F0  EF7C  F021         	goto	u2720
  7709   0042F4                     u2721:
  7710   0042F4  EF8C  F021         	goto	l728
  7711   0042F8                     u2720:
  7712   0042F8  0E01               	movlw	1
  7713   0042FA  2601               	addwf	___fladd@b^0,f,c
  7714   0042FC  0E00               	movlw	0
  7715   0042FE  2202               	addwfc	(___fladd@b+1)^0,f,c
  7716   004300  2203               	addwfc	(___fladd@b+2)^0,f,c
  7717   004302  2204               	addwfc	(___fladd@b+3)^0,f,c
  7718   004304  EF8C  F021         	goto	l728
  7719   004308                     l3021:
  7720   004308  5005               	movf	___fladd@a^0,w,c
  7721   00430A  5E01               	subwf	___fladd@b^0,f,c
  7722   00430C  5006               	movf	(___fladd@a+1)^0,w,c
  7723   00430E  5A02               	subwfb	(___fladd@b+1)^0,f,c
  7724   004310  5007               	movf	(___fladd@a+2)^0,w,c
  7725   004312  5A03               	subwfb	(___fladd@b+2)^0,f,c
  7726   004314  5008               	movf	(___fladd@a+3)^0,w,c
  7727   004316  5A04               	subwfb	(___fladd@b+3)^0,f,c
  7728   004318                     l728:
  7729   004318  5001               	movf	___fladd@b^0,w,c
  7730   00431A  1002               	iorwf	(___fladd@b+1)^0,w,c
  7731   00431C  1003               	iorwf	(___fladd@b+2)^0,w,c
  7732   00431E  1004               	iorwf	(___fladd@b+3)^0,w,c
  7733   004320  A4D8               	btfss	status,2,c
  7734   004322  EF95  F021         	goto	u2731
  7735   004326  EF97  F021         	goto	u2730
  7736   00432A                     u2731:
  7737   00432A  EFCC  F021         	goto	l3045
  7738   00432E                     u2730:
  7739   00432E  5010               	movf	___fladd@grs^0,w,c
  7740   004330  A4D8               	btfss	status,2,c
  7741   004332  EF9D  F021         	goto	u2741
  7742   004336  EF9F  F021         	goto	u2740
  7743   00433A                     u2741:
  7744   00433A  EFCC  F021         	goto	l3045
  7745   00433E                     u2740:
  7746   00433E  0E00               	movlw	0
  7747   004340  6E01               	movwf	?___fladd^0,c
  7748   004342  0E00               	movlw	0
  7749   004344  6E02               	movwf	(?___fladd+1)^0,c
  7750   004346  0E00               	movlw	0
  7751   004348  6E03               	movwf	(?___fladd+2)^0,c
  7752   00434A  0E00               	movlw	0
  7753   00434C  6E04               	movwf	(?___fladd+3)^0,c
  7754   00434E  EF65  F022         	goto	l720
  7755   004352                     l3029:
  7756   004352  90D8               	bcf	status,0,c
  7757   004354  3601               	rlcf	___fladd@b^0,f,c
  7758   004356  3602               	rlcf	(___fladd@b+1)^0,f,c
  7759   004358  3603               	rlcf	(___fladd@b+2)^0,f,c
  7760   00435A  3604               	rlcf	(___fladd@b+3)^0,f,c
  7761   00435C  AE10               	btfss	___fladd@grs^0,7,c
  7762   00435E  EFB3  F021         	goto	u2751
  7763   004362  EFB5  F021         	goto	u2750
  7764   004366                     u2751:
  7765   004366  EFB6  F021         	goto	l3035
  7766   00436A                     u2750:
  7767   00436A  8001               	bsf	___fladd@b^0,0,c
  7768   00436C                     l3035:
  7769   00436C  A010               	btfss	___fladd@grs^0,0,c
  7770   00436E  EFBB  F021         	goto	u2761
  7771   004372  EFBD  F021         	goto	u2760
  7772   004376                     u2761:
  7773   004376  EFC1  F021         	goto	l3039
  7774   00437A                     u2760:
  7775   00437A  80D8               	bsf	status,0,c
  7776   00437C  3610               	rlcf	___fladd@grs^0,f,c
  7777   00437E  EFC3  F021         	goto	l3041
  7778   004382                     l3039:
  7779   004382  90D8               	bcf	status,0,c
  7780   004384  3610               	rlcf	___fladd@grs^0,f,c
  7781   004386                     l3041:
  7782   004386  500F               	movf	___fladd@bexp^0,w,c
  7783   004388  B4D8               	btfsc	status,2,c
  7784   00438A  EFC9  F021         	goto	u2771
  7785   00438E  EFCB  F021         	goto	u2770
  7786   004392                     u2771:
  7787   004392  EFCC  F021         	goto	l3045
  7788   004396                     u2770:
  7789   004396  060F               	decf	___fladd@bexp^0,f,c
  7790   004398                     l3045:
  7791   004398  AE03               	btfss	(___fladd@b+2)^0,7,c
  7792   00439A  EFD1  F021         	goto	u2781
  7793   00439E  EFD3  F021         	goto	u2780
  7794   0043A2                     u2781:
  7795   0043A2  EFA9  F021         	goto	l3029
  7796   0043A6                     u2780:
  7797   0043A6                     l725:
  7798   0043A6  6A0E               	clrf	___fladd@aexp^0,c
  7799   0043A8  AE10               	btfss	___fladd@grs^0,7,c
  7800   0043AA  EFD9  F021         	goto	u2791
  7801   0043AE  EFDB  F021         	goto	u2790
  7802   0043B2                     u2791:
  7803   0043B2  EFF3  F021         	goto	l737
  7804   0043B6                     u2790:
  7805   0043B6  C010  F009         	movff	___fladd@grs,??___fladd
  7806   0043BA  0E7F               	movlw	127
  7807   0043BC  1609               	andwf	??___fladd^0,f,c
  7808   0043BE  B4D8               	btfsc	status,2,c
  7809   0043C0  EFE4  F021         	goto	u2801
  7810   0043C4  EFE6  F021         	goto	u2800
  7811   0043C8                     u2801:
  7812   0043C8  EFEA  F021         	goto	l738
  7813   0043CC                     u2800:
  7814   0043CC                     l3049:
  7815   0043CC  0E01               	movlw	1
  7816   0043CE  6E0E               	movwf	___fladd@aexp^0,c
  7817   0043D0  EFF3  F021         	goto	l737
  7818   0043D4                     l738:
  7819   0043D4  A001               	btfss	___fladd@b^0,0,c
  7820   0043D6  EFEF  F021         	goto	u2811
  7821   0043DA  EFF1  F021         	goto	u2810
  7822   0043DE                     u2811:
  7823   0043DE  EFF3  F021         	goto	l737
  7824   0043E2                     u2810:
  7825   0043E2  EFE6  F021         	goto	l3049
  7826   0043E6                     l737:
  7827   0043E6  500E               	movf	___fladd@aexp^0,w,c
  7828   0043E8  B4D8               	btfsc	status,2,c
  7829   0043EA  EFF9  F021         	goto	u2821
  7830   0043EE  EFFB  F021         	goto	u2820
  7831   0043F2                     u2821:
  7832   0043F2  EF26  F022         	goto	l3061
  7833   0043F6                     u2820:
  7834   0043F6  0E01               	movlw	1
  7835   0043F8  2601               	addwf	___fladd@b^0,f,c
  7836   0043FA  0E00               	movlw	0
  7837   0043FC  2202               	addwfc	(___fladd@b+1)^0,f,c
  7838   0043FE  2203               	addwfc	(___fladd@b+2)^0,f,c
  7839   004400  2204               	addwfc	(___fladd@b+3)^0,f,c
  7840   004402  A004               	btfss	(___fladd@b+3)^0,0,c
  7841   004404  EF06  F022         	goto	u2831
  7842   004408  EF08  F022         	goto	u2830
  7843   00440C                     u2831:
  7844   00440C  EF26  F022         	goto	l3061
  7845   004410                     u2830:
  7846   004410  C001  F009         	movff	___fladd@b,??___fladd
  7847   004414  C002  F00A         	movff	___fladd@b+1,??___fladd+1
  7848   004418  C003  F00B         	movff	___fladd@b+2,??___fladd+2
  7849   00441C  C004  F00C         	movff	___fladd@b+3,??___fladd+3
  7850   004420  340C               	rlcf	(??___fladd+3)^0,w,c
  7851   004422  320C               	rrcf	(??___fladd+3)^0,f,c
  7852   004424  320B               	rrcf	(??___fladd+2)^0,f,c
  7853   004426  320A               	rrcf	(??___fladd+1)^0,f,c
  7854   004428  3209               	rrcf	??___fladd^0,f,c
  7855   00442A  C009  F001         	movff	??___fladd,___fladd@b
  7856   00442E  C00A  F002         	movff	??___fladd+1,___fladd@b+1
  7857   004432  C00B  F003         	movff	??___fladd+2,___fladd@b+2
  7858   004436  C00C  F004         	movff	??___fladd+3,___fladd@b+3
  7859   00443A  280F               	incf	___fladd@bexp^0,w,c
  7860   00443C  B4D8               	btfsc	status,2,c
  7861   00443E  EF23  F022         	goto	u2841
  7862   004442  EF25  F022         	goto	u2840
  7863   004446                     u2841:
  7864   004446  EF26  F022         	goto	l3061
  7865   00444A                     u2840:
  7866   00444A  2A0F               	incf	___fladd@bexp^0,f,c
  7867   00444C                     l3061:
  7868   00444C  280F               	incf	___fladd@bexp^0,w,c
  7869   00444E  B4D8               	btfsc	status,2,c
  7870   004450  EF2C  F022         	goto	u2851
  7871   004454  EF2E  F022         	goto	u2850
  7872   004458                     u2851:
  7873   004458  EF36  F022         	goto	l3065
  7874   00445C                     u2850:
  7875   00445C  500F               	movf	___fladd@bexp^0,w,c
  7876   00445E  A4D8               	btfss	status,2,c
  7877   004460  EF34  F022         	goto	u2861
  7878   004464  EF36  F022         	goto	u2860
  7879   004468                     u2861:
  7880   004468  EF47  F022         	goto	l744
  7881   00446C                     u2860:
  7882   00446C                     l3065:
  7883   00446C  0E00               	movlw	0
  7884   00446E  6E01               	movwf	___fladd@b^0,c
  7885   004470  0E00               	movlw	0
  7886   004472  6E02               	movwf	(___fladd@b+1)^0,c
  7887   004474  0E00               	movlw	0
  7888   004476  6E03               	movwf	(___fladd@b+2)^0,c
  7889   004478  0E00               	movlw	0
  7890   00447A  6E04               	movwf	(___fladd@b+3)^0,c
  7891   00447C  500F               	movf	___fladd@bexp^0,w,c
  7892   00447E  A4D8               	btfss	status,2,c
  7893   004480  EF44  F022         	goto	u2871
  7894   004484  EF46  F022         	goto	u2870
  7895   004488                     u2871:
  7896   004488  EF47  F022         	goto	l744
  7897   00448C                     u2870:
  7898   00448C  6A0D               	clrf	___fladd@signs^0,c
  7899   00448E                     l744:
  7900   00448E  A00F               	btfss	___fladd@bexp^0,0,c
  7901   004490  EF4C  F022         	goto	u2881
  7902   004494  EF4E  F022         	goto	u2880
  7903   004498                     u2881:
  7904   004498  EF51  F022         	goto	l3071
  7905   00449C                     u2880:
  7906   00449C  8E03               	bsf	(___fladd@b+2)^0,7,c
  7907   00449E  EF52  F022         	goto	l3073
  7908   0044A2                     l3071:
  7909   0044A2  9E03               	bcf	(___fladd@b+2)^0,7,c
  7910   0044A4                     l3073:
  7911   0044A4  90D8               	bcf	status,0,c
  7912   0044A6  300F               	rrcf	___fladd@bexp^0,w,c
  7913   0044A8  6E04               	movwf	(___fladd@b+3)^0,c
  7914   0044AA  AE0D               	btfss	___fladd@signs^0,7,c
  7915   0044AC  EF5A  F022         	goto	u2891
  7916   0044B0  EF5C  F022         	goto	u2890
  7917   0044B4                     u2891:
  7918   0044B4  EF5D  F022         	goto	l3079
  7919   0044B8                     u2890:
  7920   0044B8  8E04               	bsf	(___fladd@b+3)^0,7,c
  7921   0044BA                     l3079:
  7922   0044BA  C001  F001         	movff	___fladd@b,?___fladd
  7923   0044BE  C002  F002         	movff	___fladd@b+1,?___fladd+1
  7924   0044C2  C003  F003         	movff	___fladd@b+2,?___fladd+2
  7925   0044C6  C004  F004         	movff	___fladd@b+3,?___fladd+3
  7926   0044CA                     l720:
  7927   0044CA  0012               	return		;funcret
  7928   0044CC                     __end_of___fladd:
  7929                           	callstack 0
  7930                           
  7931 ;; *************** function ___flneg *****************
  7932 ;; Defined at:
  7933 ;;		line 15 in file "C:\Program Files\Microchip\xc8\v3.00\pic\sources\c99\common\flneg.c"
  7934 ;; Parameters:    Size  Location     Type
  7935 ;;  f1              4    0[COMRAM] unsigned char 
  7936 ;; Auto vars:     Size  Location     Type
  7937 ;;		None
  7938 ;; Return value:  Size  Location     Type
  7939 ;;                  4    0[COMRAM] unsigned char 
  7940 ;; Registers used:
  7941 ;;		wreg, status,2, status,0
  7942 ;; Tracked objects:
  7943 ;;		On entry : 0/0
  7944 ;;		On exit  : 0/0
  7945 ;;		Unchanged: 0/0
  7946 ;; Data sizes:     COMRAM   BANK0   BANK1   BANK2   BANK3   BANK4   BANK5   BANK6   BANK7   BANK8   BANK9  BANK10  BANK1
      +1  BANK12  BANK13  BANK14  BANK15  BANK16  BANK17  BANK18  BANK19  BANK20  BANK21  BANK22  BANK23  BANK24  BANK25  BANK2
      +6  BANK27  BANK28  BANK29  BANK30  BANK31
  7947 ;;      Params:         4       0       0       0       0       0       0       0       0       0       0       0       
      +0       0       0       0       0       0       0       0       0       0       0       0       0       0       0       
      +0       0       0       0       0       0
  7948 ;;      Locals:         0       0       0       0       0       0       0       0       0       0       0       0       
      +0       0       0       0       0       0       0       0       0       0       0       0       0       0       0       
      +0       0       0       0       0       0
  7949 ;;      Temps:          0       0       0       0       0       0       0       0       0       0       0       0       
      +0       0       0       0       0       0       0       0       0       0       0       0       0       0       0       
      +0       0       0       0       0       0
  7950 ;;      Totals:         4       0       0       0       0       0       0       0       0       0       0       0       
      +0       0       0       0       0       0       0       0       0       0       0       0       0       0       0       
      +0       0       0       0       0       0
  7951 ;;Total ram usage:        4 bytes
  7952 ;; Hardware stack levels used: 1
  7953 ;; This function calls:
  7954 ;;		Nothing
  7955 ;; This function is called by:
  7956 ;;		_efgtoa
  7957 ;; This function uses a non-reentrant model
  7958 ;;
  7959                           
  7960                           	psect	text15
  7961   005FBA                     __ptext15:
  7962                           	callstack 0
  7963   005FBA                     ___flneg:
  7964                           	callstack 26
  7965   005FBA  5001               	movf	___flneg@f1^0,w,c
  7966   005FBC  1002               	iorwf	(___flneg@f1+1)^0,w,c
  7967   005FBE  1003               	iorwf	(___flneg@f1+2)^0,w,c
  7968   005FC0  1004               	iorwf	(___flneg@f1+3)^0,w,c
  7969   005FC2  B4D8               	btfsc	status,2,c
  7970   005FC4  EFE6  F02F         	goto	u3531
  7971   005FC8  EFE8  F02F         	goto	u3530
  7972   005FCC                     u3531:
  7973   005FCC  EFF0  F02F         	goto	l3483
  7974   005FD0                     u3530:
  7975   005FD0  0E00               	movlw	0
  7976   005FD2  1A01               	xorwf	___flneg@f1^0,f,c
  7977   005FD4  0E00               	movlw	0
  7978   005FD6  1A02               	xorwf	(___flneg@f1+1)^0,f,c
  7979   005FD8  0E00               	movlw	0
  7980   005FDA  1A03               	xorwf	(___flneg@f1+2)^0,f,c
  7981   005FDC  0E80               	movlw	128
  7982   005FDE  1A04               	xorwf	(___flneg@f1+3)^0,f,c
  7983   005FE0                     l3483:
  7984   005FE0  C001  F001         	movff	___flneg@f1,?___flneg
  7985   005FE4  C002  F002         	movff	___flneg@f1+1,?___flneg+1
  7986   005FE8  C003  F003         	movff	___flneg@f1+2,?___flneg+2
  7987   005FEC  C004  F004         	movff	___flneg@f1+3,?___flneg+3
  7988   005FF0  0012               	return		;funcret
  7989   005FF2                     __end_of___flneg:
  7990                           	callstack 0
  7991                           
  7992 ;; *************** function ___flmul *****************
  7993 ;; Defined at:
  7994 ;;		line 8 in file "C:\Program Files\Microchip\xc8\v3.00\pic\sources\c99\common\sprcmul.c"
  7995 ;; Parameters:    Size  Location     Type
  7996 ;;  b               4   14[COMRAM] unsigned char 
  7997 ;;  a               4   18[COMRAM] unsigned char 
  7998 ;; Auto vars:     Size  Location     Type
  7999 ;;  prod            4   33[COMRAM] struct .
  8000 ;;  grs             4   27[COMRAM] unsigned long 
  8001 ;;  temp            2   37[COMRAM] struct .
  8002 ;;  bexp            1   32[COMRAM] unsigned char 
  8003 ;;  aexp            1   31[COMRAM] unsigned char 
  8004 ;;  sign            1   26[COMRAM] unsigned char 
  8005 ;; Return value:  Size  Location     Type
  8006 ;;                  4   14[COMRAM] unsigned char 
  8007 ;; Registers used:
  8008 ;;		wreg, status,2, status,0, prodl, prodh
  8009 ;; Tracked objects:
  8010 ;;		On entry : 0/0
  8011 ;;		On exit  : 0/0
  8012 ;;		Unchanged: 0/0
  8013 ;; Data sizes:     COMRAM   BANK0   BANK1   BANK2   BANK3   BANK4   BANK5   BANK6   BANK7   BANK8   BANK9  BANK10  BANK1
      +1  BANK12  BANK13  BANK14  BANK15  BANK16  BANK17  BANK18  BANK19  BANK20  BANK21  BANK22  BANK23  BANK24  BANK25  BANK2
      +6  BANK27  BANK28  BANK29  BANK30  BANK31
  8014 ;;      Params:         8       0       0       0       0       0       0       0       0       0       0       0       
      +0       0       0       0       0       0       0       0       0       0       0       0       0       0       0       
      +0       0       0       0       0       0
  8015 ;;      Locals:        13       0       0       0       0       0       0       0       0       0       0       0       
      +0       0       0       0       0       0       0       0       0       0       0       0       0       0       0       
      +0       0       0       0       0       0
  8016 ;;      Temps:          4       0       0       0       0       0       0       0       0       0       0       0       
      +0       0       0       0       0       0       0       0       0       0       0       0       0       0       0       
      +0       0       0       0       0       0
  8017 ;;      Totals:        25       0       0       0       0       0       0       0       0       0       0       0       
      +0       0       0       0       0       0       0       0       0       0       0       0       0       0       0       
      +0       0       0       0       0       0
  8018 ;;Total ram usage:       25 bytes
  8019 ;; Hardware stack levels used: 1
  8020 ;; This function calls:
  8021 ;;		Nothing
  8022 ;; This function is called by:
  8023 ;;		_main
  8024 ;;		_efgtoa
  8025 ;; This function uses a non-reentrant model
  8026 ;;
  8027                           
  8028                           	psect	text16
  8029   0044CC                     __ptext16:
  8030                           	callstack 0
  8031   0044CC                     ___flmul:
  8032                           	callstack 26
  8033   0044CC  5012               	movf	(___flmul@b+3)^0,w,c
  8034   0044CE  0B80               	andlw	128
  8035   0044D0  6E1B               	movwf	___flmul@sign^0,c
  8036   0044D2  5012               	movf	(___flmul@b+3)^0,w,c
  8037   0044D4  2412               	addwf	(___flmul@b+3)^0,w,c
  8038   0044D6  6E21               	movwf	___flmul@bexp^0,c
  8039   0044D8  AE11               	btfss	(___flmul@b+2)^0,7,c
  8040   0044DA  EF71  F022         	goto	u3141
  8041   0044DE  EF73  F022         	goto	u3140
  8042   0044E2                     u3141:
  8043   0044E2  EF74  F022         	goto	l3233
  8044   0044E6                     u3140:
  8045   0044E6  8021               	bsf	___flmul@bexp^0,0,c
  8046   0044E8                     l3233:
  8047   0044E8  5021               	movf	___flmul@bexp^0,w,c
  8048   0044EA  B4D8               	btfsc	status,2,c
  8049   0044EC  EF7A  F022         	goto	u3151
  8050   0044F0  EF7C  F022         	goto	u3150
  8051   0044F4                     u3151:
  8052   0044F4  EF8F  F022         	goto	l3241
  8053   0044F8                     u3150:
  8054   0044F8  2821               	incf	___flmul@bexp^0,w,c
  8055   0044FA  A4D8               	btfss	status,2,c
  8056   0044FC  EF82  F022         	goto	u3161
  8057   004500  EF84  F022         	goto	u3160
  8058   004504                     u3161:
  8059   004504  EF8C  F022         	goto	l3239
  8060   004508                     u3160:
  8061   004508  0E00               	movlw	0
  8062   00450A  6E0F               	movwf	___flmul@b^0,c
  8063   00450C  0E00               	movlw	0
  8064   00450E  6E10               	movwf	(___flmul@b+1)^0,c
  8065   004510  0E00               	movlw	0
  8066   004512  6E11               	movwf	(___flmul@b+2)^0,c
  8067   004514  0E00               	movlw	0
  8068   004516  6E12               	movwf	(___flmul@b+3)^0,c
  8069   004518                     l3239:
  8070   004518  8E11               	bsf	(___flmul@b+2)^0,7,c
  8071   00451A  EF97  F022         	goto	l3243
  8072   00451E                     l3241:
  8073   00451E  0E00               	movlw	0
  8074   004520  6E0F               	movwf	___flmul@b^0,c
  8075   004522  0E00               	movlw	0
  8076   004524  6E10               	movwf	(___flmul@b+1)^0,c
  8077   004526  0E00               	movlw	0
  8078   004528  6E11               	movwf	(___flmul@b+2)^0,c
  8079   00452A  0E00               	movlw	0
  8080   00452C  6E12               	movwf	(___flmul@b+3)^0,c
  8081   00452E                     l3243:
  8082   00452E  5016               	movf	(___flmul@a+3)^0,w,c
  8083   004530  0B80               	andlw	128
  8084   004532  1A1B               	xorwf	___flmul@sign^0,f,c
  8085   004534  5016               	movf	(___flmul@a+3)^0,w,c
  8086   004536  2416               	addwf	(___flmul@a+3)^0,w,c
  8087   004538  6E20               	movwf	___flmul@aexp^0,c
  8088   00453A  AE15               	btfss	(___flmul@a+2)^0,7,c
  8089   00453C  EFA2  F022         	goto	u3171
  8090   004540  EFA4  F022         	goto	u3170
  8091   004544                     u3171:
  8092   004544  EFA5  F022         	goto	l3251
  8093   004548                     u3170:
  8094   004548  8020               	bsf	___flmul@aexp^0,0,c
  8095   00454A                     l3251:
  8096   00454A  5020               	movf	___flmul@aexp^0,w,c
  8097   00454C  B4D8               	btfsc	status,2,c
  8098   00454E  EFAB  F022         	goto	u3181
  8099   004552  EFAD  F022         	goto	u3180
  8100   004556                     u3181:
  8101   004556  EFC0  F022         	goto	l3259
  8102   00455A                     u3180:
  8103   00455A  2820               	incf	___flmul@aexp^0,w,c
  8104   00455C  A4D8               	btfss	status,2,c
  8105   00455E  EFB3  F022         	goto	u3191
  8106   004562  EFB5  F022         	goto	u3190
  8107   004566                     u3191:
  8108   004566  EFBD  F022         	goto	l3257
  8109   00456A                     u3190:
  8110   00456A  0E00               	movlw	0
  8111   00456C  6E13               	movwf	___flmul@a^0,c
  8112   00456E  0E00               	movlw	0
  8113   004570  6E14               	movwf	(___flmul@a+1)^0,c
  8114   004572  0E00               	movlw	0
  8115   004574  6E15               	movwf	(___flmul@a+2)^0,c
  8116   004576  0E00               	movlw	0
  8117   004578  6E16               	movwf	(___flmul@a+3)^0,c
  8118   00457A                     l3257:
  8119   00457A  8E15               	bsf	(___flmul@a+2)^0,7,c
  8120   00457C  EFC8  F022         	goto	l797
  8121   004580                     l3259:
  8122   004580  0E00               	movlw	0
  8123   004582  6E13               	movwf	___flmul@a^0,c
  8124   004584  0E00               	movlw	0
  8125   004586  6E14               	movwf	(___flmul@a+1)^0,c
  8126   004588  0E00               	movlw	0
  8127   00458A  6E15               	movwf	(___flmul@a+2)^0,c
  8128   00458C  0E00               	movlw	0
  8129   00458E  6E16               	movwf	(___flmul@a+3)^0,c
  8130   004590                     l797:
  8131   004590  5020               	movf	___flmul@aexp^0,w,c
  8132   004592  B4D8               	btfsc	status,2,c
  8133   004594  EFCE  F022         	goto	u3201
  8134   004598  EFD0  F022         	goto	u3200
  8135   00459C                     u3201:
  8136   00459C  EFD8  F022         	goto	l3263
  8137   0045A0                     u3200:
  8138   0045A0  5021               	movf	___flmul@bexp^0,w,c
  8139   0045A2  A4D8               	btfss	status,2,c
  8140   0045A4  EFD6  F022         	goto	u3211
  8141   0045A8  EFD8  F022         	goto	u3210
  8142   0045AC                     u3211:
  8143   0045AC  EFE2  F022         	goto	l3267
  8144   0045B0                     u3210:
  8145   0045B0                     l3263:
  8146   0045B0  0E00               	movlw	0
  8147   0045B2  6E0F               	movwf	?___flmul^0,c
  8148   0045B4  0E00               	movlw	0
  8149   0045B6  6E10               	movwf	(?___flmul+1)^0,c
  8150   0045B8  0E00               	movlw	0
  8151   0045BA  6E11               	movwf	(?___flmul+2)^0,c
  8152   0045BC  0E00               	movlw	0
  8153   0045BE  6E12               	movwf	(?___flmul+3)^0,c
  8154   0045C0  EF8A  F024         	goto	l801
  8155   0045C4                     l3267:
  8156   0045C4  5015               	movf	(___flmul@a+2)^0,w,c
  8157   0045C6  020F               	mulwf	___flmul@b^0,c
  8158   0045C8  006F FFCC  F026    	movff	prodl,___flmul@temp
  8159   0045CE  006F FFD0  F027    	movff	prodh,___flmul@temp+1
  8160   0045D4  5026               	movf	___flmul@temp^0,w,c
  8161   0045D6  6E1C               	movwf	___flmul@grs^0,c
  8162   0045D8  6A1D               	clrf	(___flmul@grs+1)^0,c
  8163   0045DA  6A1E               	clrf	(___flmul@grs+2)^0,c
  8164   0045DC  6A1F               	clrf	(___flmul@grs+3)^0,c
  8165   0045DE  5027               	movf	(___flmul@temp+1)^0,w,c
  8166   0045E0  6E22               	movwf	___flmul@prod^0,c
  8167   0045E2  6A23               	clrf	(___flmul@prod+1)^0,c
  8168   0045E4  6A24               	clrf	(___flmul@prod+2)^0,c
  8169   0045E6  6A25               	clrf	(___flmul@prod+3)^0,c
  8170   0045E8  5014               	movf	(___flmul@a+1)^0,w,c
  8171   0045EA  0210               	mulwf	(___flmul@b+1)^0,c
  8172   0045EC  006F FFCC  F026    	movff	prodl,___flmul@temp
  8173   0045F2  006F FFD0  F027    	movff	prodh,___flmul@temp+1
  8174   0045F8  5026               	movf	___flmul@temp^0,w,c
  8175   0045FA  261C               	addwf	___flmul@grs^0,f,c
  8176   0045FC  0E00               	movlw	0
  8177   0045FE  221D               	addwfc	(___flmul@grs+1)^0,f,c
  8178   004600  221E               	addwfc	(___flmul@grs+2)^0,f,c
  8179   004602  221F               	addwfc	(___flmul@grs+3)^0,f,c
  8180   004604  5027               	movf	(___flmul@temp+1)^0,w,c
  8181   004606  2622               	addwf	___flmul@prod^0,f,c
  8182   004608  0E00               	movlw	0
  8183   00460A  2223               	addwfc	(___flmul@prod+1)^0,f,c
  8184   00460C  2224               	addwfc	(___flmul@prod+2)^0,f,c
  8185   00460E  2225               	addwfc	(___flmul@prod+3)^0,f,c
  8186   004610  5013               	movf	___flmul@a^0,w,c
  8187   004612  0211               	mulwf	(___flmul@b+2)^0,c
  8188   004614  006F FFCC  F026    	movff	prodl,___flmul@temp
  8189   00461A  006F FFD0  F027    	movff	prodh,___flmul@temp+1
  8190   004620  5026               	movf	___flmul@temp^0,w,c
  8191   004622  261C               	addwf	___flmul@grs^0,f,c
  8192   004624  0E00               	movlw	0
  8193   004626  221D               	addwfc	(___flmul@grs+1)^0,f,c
  8194   004628  221E               	addwfc	(___flmul@grs+2)^0,f,c
  8195   00462A  221F               	addwfc	(___flmul@grs+3)^0,f,c
  8196   00462C  5027               	movf	(___flmul@temp+1)^0,w,c
  8197   00462E  2622               	addwf	___flmul@prod^0,f,c
  8198   004630  0E00               	movlw	0
  8199   004632  2223               	addwfc	(___flmul@prod+1)^0,f,c
  8200   004634  2224               	addwfc	(___flmul@prod+2)^0,f,c
  8201   004636  2225               	addwfc	(___flmul@prod+3)^0,f,c
  8202   004638  C01E  F01F         	movff	___flmul@grs+2,___flmul@grs+3
  8203   00463C  C01D  F01E         	movff	___flmul@grs+1,___flmul@grs+2
  8204   004640  C01C  F01D         	movff	___flmul@grs,___flmul@grs+1
  8205   004644  6A1C               	clrf	___flmul@grs^0,c
  8206   004646  5013               	movf	___flmul@a^0,w,c
  8207   004648  0210               	mulwf	(___flmul@b+1)^0,c
  8208   00464A  006F FFCC  F026    	movff	prodl,___flmul@temp
  8209   004650  006F FFD0  F027    	movff	prodh,___flmul@temp+1
  8210   004656  5026               	movf	___flmul@temp^0,w,c
  8211   004658  261C               	addwf	___flmul@grs^0,f,c
  8212   00465A  5027               	movf	(___flmul@temp+1)^0,w,c
  8213   00465C  221D               	addwfc	(___flmul@grs+1)^0,f,c
  8214   00465E  0E00               	movlw	0
  8215   004660  221E               	addwfc	(___flmul@grs+2)^0,f,c
  8216   004662  0E00               	movlw	0
  8217   004664  221F               	addwfc	(___flmul@grs+3)^0,f,c
  8218   004666  5014               	movf	(___flmul@a+1)^0,w,c
  8219   004668  020F               	mulwf	___flmul@b^0,c
  8220   00466A  006F FFCC  F026    	movff	prodl,___flmul@temp
  8221   004670  006F FFD0  F027    	movff	prodh,___flmul@temp+1
  8222   004676  5026               	movf	___flmul@temp^0,w,c
  8223   004678  261C               	addwf	___flmul@grs^0,f,c
  8224   00467A  5027               	movf	(___flmul@temp+1)^0,w,c
  8225   00467C  221D               	addwfc	(___flmul@grs+1)^0,f,c
  8226   00467E  0E00               	movlw	0
  8227   004680  221E               	addwfc	(___flmul@grs+2)^0,f,c
  8228   004682  0E00               	movlw	0
  8229   004684  221F               	addwfc	(___flmul@grs+3)^0,f,c
  8230   004686  C01E  F01F         	movff	___flmul@grs+2,___flmul@grs+3
  8231   00468A  C01D  F01E         	movff	___flmul@grs+1,___flmul@grs+2
  8232   00468E  C01C  F01D         	movff	___flmul@grs,___flmul@grs+1
  8233   004692  6A1C               	clrf	___flmul@grs^0,c
  8234   004694  5013               	movf	___flmul@a^0,w,c
  8235   004696  020F               	mulwf	___flmul@b^0,c
  8236   004698  006F FFCC  F026    	movff	prodl,___flmul@temp
  8237   00469E  006F FFD0  F027    	movff	prodh,___flmul@temp+1
  8238   0046A4  5026               	movf	___flmul@temp^0,w,c
  8239   0046A6  261C               	addwf	___flmul@grs^0,f,c
  8240   0046A8  5027               	movf	(___flmul@temp+1)^0,w,c
  8241   0046AA  221D               	addwfc	(___flmul@grs+1)^0,f,c
  8242   0046AC  0E00               	movlw	0
  8243   0046AE  221E               	addwfc	(___flmul@grs+2)^0,f,c
  8244   0046B0  0E00               	movlw	0
  8245   0046B2  221F               	addwfc	(___flmul@grs+3)^0,f,c
  8246   0046B4  5015               	movf	(___flmul@a+2)^0,w,c
  8247   0046B6  0210               	mulwf	(___flmul@b+1)^0,c
  8248   0046B8  006F FFCC  F026    	movff	prodl,___flmul@temp
  8249   0046BE  006F FFD0  F027    	movff	prodh,___flmul@temp+1
  8250   0046C4  5026               	movf	___flmul@temp^0,w,c
  8251   0046C6  2622               	addwf	___flmul@prod^0,f,c
  8252   0046C8  5027               	movf	(___flmul@temp+1)^0,w,c
  8253   0046CA  2223               	addwfc	(___flmul@prod+1)^0,f,c
  8254   0046CC  0E00               	movlw	0
  8255   0046CE  2224               	addwfc	(___flmul@prod+2)^0,f,c
  8256   0046D0  0E00               	movlw	0
  8257   0046D2  2225               	addwfc	(___flmul@prod+3)^0,f,c
  8258   0046D4  5014               	movf	(___flmul@a+1)^0,w,c
  8259   0046D6  0211               	mulwf	(___flmul@b+2)^0,c
  8260   0046D8  006F FFCC  F026    	movff	prodl,___flmul@temp
  8261   0046DE  006F FFD0  F027    	movff	prodh,___flmul@temp+1
  8262   0046E4  5026               	movf	___flmul@temp^0,w,c
  8263   0046E6  2622               	addwf	___flmul@prod^0,f,c
  8264   0046E8  5027               	movf	(___flmul@temp+1)^0,w,c
  8265   0046EA  2223               	addwfc	(___flmul@prod+1)^0,f,c
  8266   0046EC  0E00               	movlw	0
  8267   0046EE  2224               	addwfc	(___flmul@prod+2)^0,f,c
  8268   0046F0  0E00               	movlw	0
  8269   0046F2  2225               	addwfc	(___flmul@prod+3)^0,f,c
  8270   0046F4  5015               	movf	(___flmul@a+2)^0,w,c
  8271   0046F6  0211               	mulwf	(___flmul@b+2)^0,c
  8272   0046F8  006F FFCC  F026    	movff	prodl,___flmul@temp
  8273   0046FE  006F FFD0  F027    	movff	prodh,___flmul@temp+1
  8274   004704  5026               	movf	___flmul@temp^0,w,c
  8275   004706  6E17               	movwf	??___flmul^0,c
  8276   004708  5027               	movf	(___flmul@temp+1)^0,w,c
  8277   00470A  6E18               	movwf	(??___flmul+1)^0,c
  8278   00470C  6A19               	clrf	(??___flmul+2)^0,c
  8279   00470E  6A1A               	clrf	(??___flmul+3)^0,c
  8280   004710  C019  F01A         	movff	??___flmul+2,??___flmul+3
  8281   004714  C018  F019         	movff	??___flmul+1,??___flmul+2
  8282   004718  C017  F018         	movff	??___flmul,??___flmul+1
  8283   00471C  6A17               	clrf	??___flmul^0,c
  8284   00471E  5017               	movf	??___flmul^0,w,c
  8285   004720  2622               	addwf	___flmul@prod^0,f,c
  8286   004722  5018               	movf	(??___flmul+1)^0,w,c
  8287   004724  2223               	addwfc	(___flmul@prod+1)^0,f,c
  8288   004726  5019               	movf	(??___flmul+2)^0,w,c
  8289   004728  2224               	addwfc	(___flmul@prod+2)^0,f,c
  8290   00472A  501A               	movf	(??___flmul+3)^0,w,c
  8291   00472C  2225               	addwfc	(___flmul@prod+3)^0,f,c
  8292   00472E  C01C  F017         	movff	___flmul@grs,??___flmul
  8293   004732  C01D  F018         	movff	___flmul@grs+1,??___flmul+1
  8294   004736  C01E  F019         	movff	___flmul@grs+2,??___flmul+2
  8295   00473A  C01F  F01A         	movff	___flmul@grs+3,??___flmul+3
  8296   00473E  0E19               	movlw	25
  8297   004740  EFA7  F023         	goto	u3220
  8298   004744                     u3225:
  8299   004744  90D8               	bcf	status,0,c
  8300   004746  321A               	rrcf	(??___flmul+3)^0,f,c
  8301   004748  3219               	rrcf	(??___flmul+2)^0,f,c
  8302   00474A  3218               	rrcf	(??___flmul+1)^0,f,c
  8303   00474C  3217               	rrcf	??___flmul^0,f,c
  8304   00474E                     u3220:
  8305   00474E  2EE8               	decfsz	wreg,f,c
  8306   004750  EFA2  F023         	goto	u3225
  8307   004754  5017               	movf	??___flmul^0,w,c
  8308   004756  2622               	addwf	___flmul@prod^0,f,c
  8309   004758  5018               	movf	(??___flmul+1)^0,w,c
  8310   00475A  2223               	addwfc	(___flmul@prod+1)^0,f,c
  8311   00475C  5019               	movf	(??___flmul+2)^0,w,c
  8312   00475E  2224               	addwfc	(___flmul@prod+2)^0,f,c
  8313   004760  501A               	movf	(??___flmul+3)^0,w,c
  8314   004762  2225               	addwfc	(___flmul@prod+3)^0,f,c
  8315   004764  C01E  F01F         	movff	___flmul@grs+2,___flmul@grs+3
  8316   004768  C01D  F01E         	movff	___flmul@grs+1,___flmul@grs+2
  8317   00476C  C01C  F01D         	movff	___flmul@grs,___flmul@grs+1
  8318   004770  6A1C               	clrf	___flmul@grs^0,c
  8319   004772  5020               	movf	___flmul@aexp^0,w,c
  8320   004774  C021  F017         	movff	___flmul@bexp,??___flmul
  8321   004778  6A18               	clrf	(??___flmul+1)^0,c
  8322   00477A  2617               	addwf	??___flmul^0,f,c
  8323   00477C  0E00               	movlw	0
  8324   00477E  2218               	addwfc	(??___flmul+1)^0,f,c
  8325   004780  0E82               	movlw	130
  8326   004782  2417               	addwf	??___flmul^0,w,c
  8327   004784  6E26               	movwf	___flmul@temp^0,c
  8328   004786  0EFF               	movlw	255
  8329   004788  2018               	addwfc	(??___flmul+1)^0,w,c
  8330   00478A  6E27               	movwf	(___flmul@temp+1)^0,c
  8331   00478C  EFDD  F023         	goto	l3315
  8332   004790                     l3309:
  8333   004790  90D8               	bcf	status,0,c
  8334   004792  3622               	rlcf	___flmul@prod^0,f,c
  8335   004794  3623               	rlcf	(___flmul@prod+1)^0,f,c
  8336   004796  3624               	rlcf	(___flmul@prod+2)^0,f,c
  8337   004798  3625               	rlcf	(___flmul@prod+3)^0,f,c
  8338   00479A  AE1F               	btfss	(___flmul@grs+3)^0,7,c
  8339   00479C  EFD2  F023         	goto	u3231
  8340   0047A0  EFD4  F023         	goto	u3230
  8341   0047A4                     u3231:
  8342   0047A4  EFD5  F023         	goto	l804
  8343   0047A8                     u3230:
  8344   0047A8  8022               	bsf	___flmul@prod^0,0,c
  8345   0047AA                     l804:
  8346   0047AA  90D8               	bcf	status,0,c
  8347   0047AC  361C               	rlcf	___flmul@grs^0,f,c
  8348   0047AE  361D               	rlcf	(___flmul@grs+1)^0,f,c
  8349   0047B0  361E               	rlcf	(___flmul@grs+2)^0,f,c
  8350   0047B2  361F               	rlcf	(___flmul@grs+3)^0,f,c
  8351   0047B4  0626               	decf	___flmul@temp^0,f,c
  8352   0047B6  A0D8               	btfss	status,0,c
  8353   0047B8  0627               	decf	(___flmul@temp+1)^0,f,c
  8354   0047BA                     l3315:
  8355   0047BA  AE24               	btfss	(___flmul@prod+2)^0,7,c
  8356   0047BC  EFE2  F023         	goto	u3241
  8357   0047C0  EFE4  F023         	goto	u3240
  8358   0047C4                     u3241:
  8359   0047C4  EFC8  F023         	goto	l3309
  8360   0047C8                     u3240:
  8361   0047C8  6A20               	clrf	___flmul@aexp^0,c
  8362   0047CA  AE1F               	btfss	(___flmul@grs+3)^0,7,c
  8363   0047CC  EFEA  F023         	goto	u3251
  8364   0047D0  EFEC  F023         	goto	u3250
  8365   0047D4                     u3251:
  8366   0047D4  EF10  F024         	goto	l806
  8367   0047D8                     u3250:
  8368   0047D8  0EFF               	movlw	255
  8369   0047DA  141C               	andwf	___flmul@grs^0,w,c
  8370   0047DC  6E17               	movwf	??___flmul^0,c
  8371   0047DE  0EFF               	movlw	255
  8372   0047E0  141D               	andwf	(___flmul@grs+1)^0,w,c
  8373   0047E2  6E18               	movwf	(??___flmul+1)^0,c
  8374   0047E4  0EFF               	movlw	255
  8375   0047E6  141E               	andwf	(___flmul@grs+2)^0,w,c
  8376   0047E8  6E19               	movwf	(??___flmul+2)^0,c
  8377   0047EA  0E7F               	movlw	127
  8378   0047EC  141F               	andwf	(___flmul@grs+3)^0,w,c
  8379   0047EE  6E1A               	movwf	(??___flmul+3)^0,c
  8380   0047F0  5017               	movf	??___flmul^0,w,c
  8381   0047F2  1018               	iorwf	(??___flmul+1)^0,w,c
  8382   0047F4  1019               	iorwf	(??___flmul+2)^0,w,c
  8383   0047F6  101A               	iorwf	(??___flmul+3)^0,w,c
  8384   0047F8  B4D8               	btfsc	status,2,c
  8385   0047FA  EF01  F024         	goto	u3261
  8386   0047FE  EF03  F024         	goto	u3260
  8387   004802                     u3261:
  8388   004802  EF07  F024         	goto	l807
  8389   004806                     u3260:
  8390   004806                     l3319:
  8391   004806  0E01               	movlw	1
  8392   004808  6E20               	movwf	___flmul@aexp^0,c
  8393   00480A  EF10  F024         	goto	l806
  8394   00480E                     l807:
  8395   00480E  A022               	btfss	___flmul@prod^0,0,c
  8396   004810  EF0C  F024         	goto	u3271
  8397   004814  EF0E  F024         	goto	u3270
  8398   004818                     u3271:
  8399   004818  EF10  F024         	goto	l806
  8400   00481C                     u3270:
  8401   00481C  EF03  F024         	goto	l3319
  8402   004820                     l806:
  8403   004820  5020               	movf	___flmul@aexp^0,w,c
  8404   004822  B4D8               	btfsc	status,2,c
  8405   004824  EF16  F024         	goto	u3281
  8406   004828  EF18  F024         	goto	u3280
  8407   00482C                     u3281:
  8408   00482C  EF3C  F024         	goto	l3331
  8409   004830                     u3280:
  8410   004830  0E01               	movlw	1
  8411   004832  2622               	addwf	___flmul@prod^0,f,c
  8412   004834  0E00               	movlw	0
  8413   004836  2223               	addwfc	(___flmul@prod+1)^0,f,c
  8414   004838  2224               	addwfc	(___flmul@prod+2)^0,f,c
  8415   00483A  2225               	addwfc	(___flmul@prod+3)^0,f,c
  8416   00483C  A025               	btfss	(___flmul@prod+3)^0,0,c
  8417   00483E  EF23  F024         	goto	u3291
  8418   004842  EF25  F024         	goto	u3290
  8419   004846                     u3291:
  8420   004846  EF3C  F024         	goto	l3331
  8421   00484A                     u3290:
  8422   00484A  C022  F017         	movff	___flmul@prod,??___flmul
  8423   00484E  C023  F018         	movff	___flmul@prod+1,??___flmul+1
  8424   004852  C024  F019         	movff	___flmul@prod+2,??___flmul+2
  8425   004856  C025  F01A         	movff	___flmul@prod+3,??___flmul+3
  8426   00485A  341A               	rlcf	(??___flmul+3)^0,w,c
  8427   00485C  321A               	rrcf	(??___flmul+3)^0,f,c
  8428   00485E  3219               	rrcf	(??___flmul+2)^0,f,c
  8429   004860  3218               	rrcf	(??___flmul+1)^0,f,c
  8430   004862  3217               	rrcf	??___flmul^0,f,c
  8431   004864  C017  F022         	movff	??___flmul,___flmul@prod
  8432   004868  C018  F023         	movff	??___flmul+1,___flmul@prod+1
  8433   00486C  C019  F024         	movff	??___flmul+2,___flmul@prod+2
  8434   004870  C01A  F025         	movff	??___flmul+3,___flmul@prod+3
  8435   004874  4A26               	infsnz	___flmul@temp^0,f,c
  8436   004876  2A27               	incf	(___flmul@temp+1)^0,f,c
  8437   004878                     l3331:
  8438   004878  BE27               	btfsc	(___flmul@temp+1)^0,7,c
  8439   00487A  EF47  F024         	goto	u3301
  8440   00487E  5027               	movf	(___flmul@temp+1)^0,w,c
  8441   004880  E108               	bnz	u3300
  8442   004882  2826               	incf	___flmul@temp^0,w,c
  8443   004884  A0D8               	btfss	status,0,c
  8444   004886  EF47  F024         	goto	u3301
  8445   00488A  EF49  F024         	goto	u3300
  8446   00488E                     u3301:
  8447   00488E  EF53  F024         	goto	l3335
  8448   004892                     u3300:
  8449   004892  0E00               	movlw	0
  8450   004894  6E22               	movwf	___flmul@prod^0,c
  8451   004896  0E00               	movlw	0
  8452   004898  6E23               	movwf	(___flmul@prod+1)^0,c
  8453   00489A  0E80               	movlw	128
  8454   00489C  6E24               	movwf	(___flmul@prod+2)^0,c
  8455   00489E  0E7F               	movlw	127
  8456   0048A0  6E25               	movwf	(___flmul@prod+3)^0,c
  8457   0048A2  EF80  F024         	goto	l3349
  8458   0048A6                     l3335:
  8459   0048A6  BE27               	btfsc	(___flmul@temp+1)^0,7,c
  8460   0048A8  EF60  F024         	goto	u3310
  8461   0048AC  5027               	movf	(___flmul@temp+1)^0,w,c
  8462   0048AE  E106               	bnz	u3311
  8463   0048B0  0426               	decf	___flmul@temp^0,w,c
  8464   0048B2  B0D8               	btfsc	status,0,c
  8465   0048B4  EF5E  F024         	goto	u3311
  8466   0048B8  EF60  F024         	goto	u3310
  8467   0048BC                     u3311:
  8468   0048BC  EF6B  F024         	goto	l814
  8469   0048C0                     u3310:
  8470   0048C0  0E00               	movlw	0
  8471   0048C2  6E22               	movwf	___flmul@prod^0,c
  8472   0048C4  0E00               	movlw	0
  8473   0048C6  6E23               	movwf	(___flmul@prod+1)^0,c
  8474   0048C8  0E00               	movlw	0
  8475   0048CA  6E24               	movwf	(___flmul@prod+2)^0,c
  8476   0048CC  0E00               	movlw	0
  8477   0048CE  6E25               	movwf	(___flmul@prod+3)^0,c
  8478   0048D0  6A1B               	clrf	___flmul@sign^0,c
  8479   0048D2  EF80  F024         	goto	l3349
  8480   0048D6                     l814:
  8481   0048D6  C026  F021         	movff	___flmul@temp,___flmul@bexp
  8482   0048DA  0EFF               	movlw	255
  8483   0048DC  1622               	andwf	___flmul@prod^0,f,c
  8484   0048DE  0EFF               	movlw	255
  8485   0048E0  1623               	andwf	(___flmul@prod+1)^0,f,c
  8486   0048E2  0E7F               	movlw	127
  8487   0048E4  1624               	andwf	(___flmul@prod+2)^0,f,c
  8488   0048E6  0E00               	movlw	0
  8489   0048E8  1625               	andwf	(___flmul@prod+3)^0,f,c
  8490   0048EA  A021               	btfss	___flmul@bexp^0,0,c
  8491   0048EC  EF7A  F024         	goto	u3321
  8492   0048F0  EF7C  F024         	goto	u3320
  8493   0048F4                     u3321:
  8494   0048F4  EF7D  F024         	goto	l3347
  8495   0048F8                     u3320:
  8496   0048F8  8E24               	bsf	(___flmul@prod+2)^0,7,c
  8497   0048FA                     l3347:
  8498   0048FA  90D8               	bcf	status,0,c
  8499   0048FC  3021               	rrcf	___flmul@bexp^0,w,c
  8500   0048FE  6E25               	movwf	(___flmul@prod+3)^0,c
  8501   004900                     l3349:
  8502   004900  501B               	movf	___flmul@sign^0,w,c
  8503   004902  1225               	iorwf	(___flmul@prod+3)^0,f,c
  8504   004904  C022  F00F         	movff	___flmul@prod,?___flmul
  8505   004908  C023  F010         	movff	___flmul@prod+1,?___flmul+1
  8506   00490C  C024  F011         	movff	___flmul@prod+2,?___flmul+2
  8507   004910  C025  F012         	movff	___flmul@prod+3,?___flmul+3
  8508   004914                     l801:
  8509   004914  0012               	return		;funcret
  8510   004916                     __end_of___flmul:
  8511                           	callstack 0
  8512                           
  8513 ;; *************** function ___flge *****************
  8514 ;; Defined at:
  8515 ;;		line 4 in file "C:\Program Files\Microchip\xc8\v3.00\pic\sources\c99\common\flge.c"
  8516 ;; Parameters:    Size  Location     Type
  8517 ;;  ff1             4   39[COMRAM] unsigned char 
  8518 ;;  ff2             4   43[COMRAM] unsigned char 
  8519 ;; Auto vars:     Size  Location     Type
  8520 ;;		None
  8521 ;; Return value:  Size  Location     Type
  8522 ;;		None               void
  8523 ;; Registers used:
  8524 ;;		wreg, status,2, status,0
  8525 ;; Tracked objects:
  8526 ;;		On entry : 0/0
  8527 ;;		On exit  : 0/0
  8528 ;;		Unchanged: 0/0
  8529 ;; Data sizes:     COMRAM   BANK0   BANK1   BANK2   BANK3   BANK4   BANK5   BANK6   BANK7   BANK8   BANK9  BANK10  BANK1
      +1  BANK12  BANK13  BANK14  BANK15  BANK16  BANK17  BANK18  BANK19  BANK20  BANK21  BANK22  BANK23  BANK24  BANK25  BANK2
      +6  BANK27  BANK28  BANK29  BANK30  BANK31
  8530 ;;      Params:         8       0       0       0       0       0       0       0       0       0       0       0       
      +0       0       0       0       0       0       0       0       0       0       0       0       0       0       0       
      +0       0       0       0       0       0
  8531 ;;      Locals:         0       0       0       0       0       0       0       0       0       0       0       0       
      +0       0       0       0       0       0       0       0       0       0       0       0       0       0       0       
      +0       0       0       0       0       0
  8532 ;;      Temps:          4       0       0       0       0       0       0       0       0       0       0       0       
      +0       0       0       0       0       0       0       0       0       0       0       0       0       0       0       
      +0       0       0       0       0       0
  8533 ;;      Totals:        12       0       0       0       0       0       0       0       0       0       0       0       
      +0       0       0       0       0       0       0       0       0       0       0       0       0       0       0       
      +0       0       0       0       0       0
  8534 ;;Total ram usage:       12 bytes
  8535 ;; Hardware stack levels used: 1
  8536 ;; This function calls:
  8537 ;;		Nothing
  8538 ;; This function is called by:
  8539 ;;		_main
  8540 ;;		_efgtoa
  8541 ;; This function uses a non-reentrant model
  8542 ;;
  8543                           
  8544                           	psect	text17
  8545   0055B2                     __ptext17:
  8546                           	callstack 0
  8547   0055B2                     ___flge:
  8548                           	callstack 26
  8549   0055B2  0E00               	movlw	0
  8550   0055B4  1428               	andwf	___flge@ff1^0,w,c
  8551   0055B6  6E30               	movwf	??___flge^0,c
  8552   0055B8  0E00               	movlw	0
  8553   0055BA  1429               	andwf	(___flge@ff1+1)^0,w,c
  8554   0055BC  6E31               	movwf	(??___flge+1)^0,c
  8555   0055BE  0E80               	movlw	128
  8556   0055C0  142A               	andwf	(___flge@ff1+2)^0,w,c
  8557   0055C2  6E32               	movwf	(??___flge+2)^0,c
  8558   0055C4  0E7F               	movlw	127
  8559   0055C6  142B               	andwf	(___flge@ff1+3)^0,w,c
  8560   0055C8  6E33               	movwf	(??___flge+3)^0,c
  8561   0055CA  5030               	movf	??___flge^0,w,c
  8562   0055CC  1031               	iorwf	(??___flge+1)^0,w,c
  8563   0055CE  1032               	iorwf	(??___flge+2)^0,w,c
  8564   0055D0  1033               	iorwf	(??___flge+3)^0,w,c
  8565   0055D2  A4D8               	btfss	status,2,c
  8566   0055D4  EFEE  F02A         	goto	u3481
  8567   0055D8  EFF0  F02A         	goto	u3480
  8568   0055DC                     u3481:
  8569   0055DC  EFF8  F02A         	goto	l3461
  8570   0055E0                     u3480:
  8571   0055E0  0E00               	movlw	0
  8572   0055E2  6E28               	movwf	___flge@ff1^0,c
  8573   0055E4  0E00               	movlw	0
  8574   0055E6  6E29               	movwf	(___flge@ff1+1)^0,c
  8575   0055E8  0E00               	movlw	0
  8576   0055EA  6E2A               	movwf	(___flge@ff1+2)^0,c
  8577   0055EC  0E00               	movlw	0
  8578   0055EE  6E2B               	movwf	(___flge@ff1+3)^0,c
  8579   0055F0                     l3461:
  8580   0055F0  0E00               	movlw	0
  8581   0055F2  142C               	andwf	___flge@ff2^0,w,c
  8582   0055F4  6E30               	movwf	??___flge^0,c
  8583   0055F6  0E00               	movlw	0
  8584   0055F8  142D               	andwf	(___flge@ff2+1)^0,w,c
  8585   0055FA  6E31               	movwf	(??___flge+1)^0,c
  8586   0055FC  0E80               	movlw	128
  8587   0055FE  142E               	andwf	(___flge@ff2+2)^0,w,c
  8588   005600  6E32               	movwf	(??___flge+2)^0,c
  8589   005602  0E7F               	movlw	127
  8590   005604  142F               	andwf	(___flge@ff2+3)^0,w,c
  8591   005606  6E33               	movwf	(??___flge+3)^0,c
  8592   005608  5030               	movf	??___flge^0,w,c
  8593   00560A  1031               	iorwf	(??___flge+1)^0,w,c
  8594   00560C  1032               	iorwf	(??___flge+2)^0,w,c
  8595   00560E  1033               	iorwf	(??___flge+3)^0,w,c
  8596   005610  A4D8               	btfss	status,2,c
  8597   005612  EF0D  F02B         	goto	u3491
  8598   005616  EF0F  F02B         	goto	u3490
  8599   00561A                     u3491:
  8600   00561A  EF17  F02B         	goto	l3465
  8601   00561E                     u3490:
  8602   00561E  0E00               	movlw	0
  8603   005620  6E2C               	movwf	___flge@ff2^0,c
  8604   005622  0E00               	movlw	0
  8605   005624  6E2D               	movwf	(___flge@ff2+1)^0,c
  8606   005626  0E00               	movlw	0
  8607   005628  6E2E               	movwf	(___flge@ff2+2)^0,c
  8608   00562A  0E00               	movlw	0
  8609   00562C  6E2F               	movwf	(___flge@ff2+3)^0,c
  8610   00562E                     l3465:
  8611   00562E  AE2B               	btfss	(___flge@ff1+3)^0,7,c
  8612   005630  EF1C  F02B         	goto	u3501
  8613   005634  EF1E  F02B         	goto	u3500
  8614   005638                     u3501:
  8615   005638  EF27  F02B         	goto	l3469
  8616   00563C                     u3500:
  8617   00563C  6C28               	negf	___flge@ff1^0,c
  8618   00563E  1E29               	comf	(___flge@ff1+1)^0,f,c
  8619   005640  B0D8               	btfsc	status,0,c
  8620   005642  2A29               	incf	(___flge@ff1+1)^0,f,c
  8621   005644  1E2A               	comf	(___flge@ff1+2)^0,f,c
  8622   005646  B0D8               	btfsc	status,0,c
  8623   005648  2A2A               	incf	(___flge@ff1+2)^0,f,c
  8624   00564A  0E80               	movlw	128
  8625   00564C  562B               	subfwb	(___flge@ff1+3)^0,f,c
  8626   00564E                     l3469:
  8627   00564E  AE2F               	btfss	(___flge@ff2+3)^0,7,c
  8628   005650  EF2C  F02B         	goto	u3511
  8629   005654  EF2E  F02B         	goto	u3510
  8630   005658                     u3511:
  8631   005658  EF37  F02B         	goto	l448
  8632   00565C                     u3510:
  8633   00565C  6C2C               	negf	___flge@ff2^0,c
  8634   00565E  1E2D               	comf	(___flge@ff2+1)^0,f,c
  8635   005660  B0D8               	btfsc	status,0,c
  8636   005662  2A2D               	incf	(___flge@ff2+1)^0,f,c
  8637   005664  1E2E               	comf	(___flge@ff2+2)^0,f,c
  8638   005666  B0D8               	btfsc	status,0,c
  8639   005668  2A2E               	incf	(___flge@ff2+2)^0,f,c
  8640   00566A  0E80               	movlw	128
  8641   00566C  562F               	subfwb	(___flge@ff2+3)^0,f,c
  8642   00566E                     l448:
  8643   00566E  0E00               	movlw	0
  8644   005670  1A28               	xorwf	___flge@ff1^0,f,c
  8645   005672  0E00               	movlw	0
  8646   005674  1A29               	xorwf	(___flge@ff1+1)^0,f,c
  8647   005676  0E00               	movlw	0
  8648   005678  1A2A               	xorwf	(___flge@ff1+2)^0,f,c
  8649   00567A  0E80               	movlw	128
  8650   00567C  1A2B               	xorwf	(___flge@ff1+3)^0,f,c
  8651   00567E  0E00               	movlw	0
  8652   005680  1A2C               	xorwf	___flge@ff2^0,f,c
  8653   005682  0E00               	movlw	0
  8654   005684  1A2D               	xorwf	(___flge@ff2+1)^0,f,c
  8655   005686  0E00               	movlw	0
  8656   005688  1A2E               	xorwf	(___flge@ff2+2)^0,f,c
  8657   00568A  0E80               	movlw	128
  8658   00568C  1A2F               	xorwf	(___flge@ff2+3)^0,f,c
  8659   00568E  502C               	movf	___flge@ff2^0,w,c
  8660   005690  5C28               	subwf	___flge@ff1^0,w,c
  8661   005692  502D               	movf	(___flge@ff2+1)^0,w,c
  8662   005694  5829               	subwfb	(___flge@ff1+1)^0,w,c
  8663   005696  502E               	movf	(___flge@ff2+2)^0,w,c
  8664   005698  582A               	subwfb	(___flge@ff1+2)^0,w,c
  8665   00569A  502F               	movf	(___flge@ff2+3)^0,w,c
  8666   00569C  582B               	subwfb	(___flge@ff1+3)^0,w,c
  8667   00569E  B0D8               	btfsc	status,0,c
  8668   0056A0  EF54  F02B         	goto	u3521
  8669   0056A4  EF56  F02B         	goto	u3520
  8670   0056A8                     u3521:
  8671   0056A8  EF59  F02B         	goto	l3475
  8672   0056AC                     u3520:
  8673   0056AC  90D8               	bcf	status,0,c
  8674   0056AE  EF5A  F02B         	goto	l453
  8675   0056B2                     l3475:
  8676   0056B2  80D8               	bsf	status,0,c
  8677   0056B4                     l453:
  8678   0056B4  0012               	return		;funcret
  8679   0056B6                     __end_of___flge:
  8680                           	callstack 0
  8681                           
  8682 ;; *************** function ___fleq *****************
  8683 ;; Defined at:
  8684 ;;		line 4 in file "C:\Program Files\Microchip\xc8\v3.00\pic\sources\c99\common\fleq.c"
  8685 ;; Parameters:    Size  Location     Type
  8686 ;;  ff1             4   14[COMRAM] unsigned char 
  8687 ;;  ff2             4   18[COMRAM] unsigned char 
  8688 ;; Auto vars:     Size  Location     Type
  8689 ;;		None
  8690 ;; Return value:  Size  Location     Type
  8691 ;;		None               void
  8692 ;; Registers used:
  8693 ;;		wreg, status,2, status,0
  8694 ;; Tracked objects:
  8695 ;;		On entry : 0/0
  8696 ;;		On exit  : 0/0
  8697 ;;		Unchanged: 0/0
  8698 ;; Data sizes:     COMRAM   BANK0   BANK1   BANK2   BANK3   BANK4   BANK5   BANK6   BANK7   BANK8   BANK9  BANK10  BANK1
      +1  BANK12  BANK13  BANK14  BANK15  BANK16  BANK17  BANK18  BANK19  BANK20  BANK21  BANK22  BANK23  BANK24  BANK25  BANK2
      +6  BANK27  BANK28  BANK29  BANK30  BANK31
  8699 ;;      Params:         8       0       0       0       0       0       0       0       0       0       0       0       
      +0       0       0       0       0       0       0       0       0       0       0       0       0       0       0       
      +0       0       0       0       0       0
  8700 ;;      Locals:         0       0       0       0       0       0       0       0       0       0       0       0       
      +0       0       0       0       0       0       0       0       0       0       0       0       0       0       0       
      +0       0       0       0       0       0
  8701 ;;      Temps:          4       0       0       0       0       0       0       0       0       0       0       0       
      +0       0       0       0       0       0       0       0       0       0       0       0       0       0       0       
      +0       0       0       0       0       0
  8702 ;;      Totals:        12       0       0       0       0       0       0       0       0       0       0       0       
      +0       0       0       0       0       0       0       0       0       0       0       0       0       0       0       
      +0       0       0       0       0       0
  8703 ;;Total ram usage:       12 bytes
  8704 ;; Hardware stack levels used: 1
  8705 ;; This function calls:
  8706 ;;		Nothing
  8707 ;; This function is called by:
  8708 ;;		_main
  8709 ;;		_efgtoa
  8710 ;; This function uses a non-reentrant model
  8711 ;;
  8712                           
  8713                           	psect	text18
  8714   005A88                     __ptext18:
  8715                           	callstack 0
  8716   005A88                     ___fleq:
  8717                           	callstack 26
  8718   005A88  0E00               	movlw	0
  8719   005A8A  140F               	andwf	___fleq@ff1^0,w,c
  8720   005A8C  6E17               	movwf	??___fleq^0,c
  8721   005A8E  0E00               	movlw	0
  8722   005A90  1410               	andwf	(___fleq@ff1+1)^0,w,c
  8723   005A92  6E18               	movwf	(??___fleq+1)^0,c
  8724   005A94  0E80               	movlw	128
  8725   005A96  1411               	andwf	(___fleq@ff1+2)^0,w,c
  8726   005A98  6E19               	movwf	(??___fleq+2)^0,c
  8727   005A9A  0E7F               	movlw	127
  8728   005A9C  1412               	andwf	(___fleq@ff1+3)^0,w,c
  8729   005A9E  6E1A               	movwf	(??___fleq+3)^0,c
  8730   005AA0  5017               	movf	??___fleq^0,w,c
  8731   005AA2  1018               	iorwf	(??___fleq+1)^0,w,c
  8732   005AA4  1019               	iorwf	(??___fleq+2)^0,w,c
  8733   005AA6  101A               	iorwf	(??___fleq+3)^0,w,c
  8734   005AA8  A4D8               	btfss	status,2,c
  8735   005AAA  EF59  F02D         	goto	u3451
  8736   005AAE  EF5B  F02D         	goto	u3450
  8737   005AB2                     u3451:
  8738   005AB2  EF63  F02D         	goto	l3445
  8739   005AB6                     u3450:
  8740   005AB6  0E00               	movlw	0
  8741   005AB8  6E0F               	movwf	___fleq@ff1^0,c
  8742   005ABA  0E00               	movlw	0
  8743   005ABC  6E10               	movwf	(___fleq@ff1+1)^0,c
  8744   005ABE  0E00               	movlw	0
  8745   005AC0  6E11               	movwf	(___fleq@ff1+2)^0,c
  8746   005AC2  0E00               	movlw	0
  8747   005AC4  6E12               	movwf	(___fleq@ff1+3)^0,c
  8748   005AC6                     l3445:
  8749   005AC6  0E00               	movlw	0
  8750   005AC8  1413               	andwf	___fleq@ff2^0,w,c
  8751   005ACA  6E17               	movwf	??___fleq^0,c
  8752   005ACC  0E00               	movlw	0
  8753   005ACE  1414               	andwf	(___fleq@ff2+1)^0,w,c
  8754   005AD0  6E18               	movwf	(??___fleq+1)^0,c
  8755   005AD2  0E80               	movlw	128
  8756   005AD4  1415               	andwf	(___fleq@ff2+2)^0,w,c
  8757   005AD6  6E19               	movwf	(??___fleq+2)^0,c
  8758   005AD8  0E7F               	movlw	127
  8759   005ADA  1416               	andwf	(___fleq@ff2+3)^0,w,c
  8760   005ADC  6E1A               	movwf	(??___fleq+3)^0,c
  8761   005ADE  5017               	movf	??___fleq^0,w,c
  8762   005AE0  1018               	iorwf	(??___fleq+1)^0,w,c
  8763   005AE2  1019               	iorwf	(??___fleq+2)^0,w,c
  8764   005AE4  101A               	iorwf	(??___fleq+3)^0,w,c
  8765   005AE6  A4D8               	btfss	status,2,c
  8766   005AE8  EF78  F02D         	goto	u3461
  8767   005AEC  EF7A  F02D         	goto	u3460
  8768   005AF0                     u3461:
  8769   005AF0  EF82  F02D         	goto	l3449
  8770   005AF4                     u3460:
  8771   005AF4  0E00               	movlw	0
  8772   005AF6  6E13               	movwf	___fleq@ff2^0,c
  8773   005AF8  0E00               	movlw	0
  8774   005AFA  6E14               	movwf	(___fleq@ff2+1)^0,c
  8775   005AFC  0E00               	movlw	0
  8776   005AFE  6E15               	movwf	(___fleq@ff2+2)^0,c
  8777   005B00  0E00               	movlw	0
  8778   005B02  6E16               	movwf	(___fleq@ff2+3)^0,c
  8779   005B04                     l3449:
  8780   005B04  5013               	movf	___fleq@ff2^0,w,c
  8781   005B06  180F               	xorwf	___fleq@ff1^0,w,c
  8782   005B08  E10F               	bnz	u3470
  8783   005B0A  5014               	movf	(___fleq@ff2+1)^0,w,c
  8784   005B0C  1810               	xorwf	(___fleq@ff1+1)^0,w,c
  8785   005B0E  E10C               	bnz	u3470
  8786   005B10  5015               	movf	(___fleq@ff2+2)^0,w,c
  8787   005B12  1811               	xorwf	(___fleq@ff1+2)^0,w,c
  8788   005B14  E109               	bnz	u3470
  8789   005B16  5016               	movf	(___fleq@ff2+3)^0,w,c
  8790   005B18  1812               	xorwf	(___fleq@ff1+3)^0,w,c
  8791   005B1A  B4D8               	btfsc	status,2,c
  8792   005B1C  EF92  F02D         	goto	u3471
  8793   005B20  EF94  F02D         	goto	u3470
  8794   005B24                     u3471:
  8795   005B24  EF97  F02D         	goto	l3453
  8796   005B28                     u3470:
  8797   005B28  90D8               	bcf	status,0,c
  8798   005B2A  EF98  F02D         	goto	l442
  8799   005B2E                     l3453:
  8800   005B2E  80D8               	bsf	status,0,c
  8801   005B30                     l442:
  8802   005B30  0012               	return		;funcret
  8803   005B32                     __end_of___fleq:
  8804                           	callstack 0
  8805                           
  8806 ;; *************** function ___fldiv *****************
  8807 ;; Defined at:
  8808 ;;		line 11 in file "C:\Program Files\Microchip\xc8\v3.00\pic\sources\c99\common\sprcdiv.c"
  8809 ;; Parameters:    Size  Location     Type
  8810 ;;  b               4    0[COMRAM] unsigned char 
  8811 ;;  a               4    4[COMRAM] unsigned char 
  8812 ;; Auto vars:     Size  Location     Type
  8813 ;;  grs             4   19[COMRAM] unsigned long 
  8814 ;;  rem             4   12[COMRAM] unsigned long 
  8815 ;;  new_exp         2   17[COMRAM] short 
  8816 ;;  aexp            1   24[COMRAM] unsigned char 
  8817 ;;  bexp            1   23[COMRAM] unsigned char 
  8818 ;;  sign            1   16[COMRAM] unsigned char 
  8819 ;; Return value:  Size  Location     Type
  8820 ;;                  4    0[COMRAM] unsigned char 
  8821 ;; Registers used:
  8822 ;;		wreg, status,2, status,0
  8823 ;; Tracked objects:
  8824 ;;		On entry : 0/0
  8825 ;;		On exit  : 0/0
  8826 ;;		Unchanged: 0/0
  8827 ;; Data sizes:     COMRAM   BANK0   BANK1   BANK2   BANK3   BANK4   BANK5   BANK6   BANK7   BANK8   BANK9  BANK10  BANK1
      +1  BANK12  BANK13  BANK14  BANK15  BANK16  BANK17  BANK18  BANK19  BANK20  BANK21  BANK22  BANK23  BANK24  BANK25  BANK2
      +6  BANK27  BANK28  BANK29  BANK30  BANK31
  8828 ;;      Params:         8       0       0       0       0       0       0       0       0       0       0       0       
      +0       0       0       0       0       0       0       0       0       0       0       0       0       0       0       
      +0       0       0       0       0       0
  8829 ;;      Locals:        13       0       0       0       0       0       0       0       0       0       0       0       
      +0       0       0       0       0       0       0       0       0       0       0       0       0       0       0       
      +0       0       0       0       0       0
  8830 ;;      Temps:          4       0       0       0       0       0       0       0       0       0       0       0       
      +0       0       0       0       0       0       0       0       0       0       0       0       0       0       0       
      +0       0       0       0       0       0
  8831 ;;      Totals:        25       0       0       0       0       0       0       0       0       0       0       0       
      +0       0       0       0       0       0       0       0       0       0       0       0       0       0       0       
      +0       0       0       0       0       0
  8832 ;;Total ram usage:       25 bytes
  8833 ;; Hardware stack levels used: 1
  8834 ;; This function calls:
  8835 ;;		Nothing
  8836 ;; This function is called by:
  8837 ;;		_efgtoa
  8838 ;; This function uses a non-reentrant model
  8839 ;;
  8840                           
  8841                           	psect	text19
  8842   004916                     __ptext19:
  8843                           	callstack 0
  8844   004916                     ___fldiv:
  8845                           	callstack 26
  8846   004916  5004               	movf	(___fldiv@b+3)^0,w,c
  8847   004918  0B80               	andlw	128
  8848   00491A  6E11               	movwf	___fldiv@sign^0,c
  8849   00491C  5004               	movf	(___fldiv@b+3)^0,w,c
  8850   00491E  2404               	addwf	(___fldiv@b+3)^0,w,c
  8851   004920  6E18               	movwf	___fldiv@bexp^0,c
  8852   004922  AE03               	btfss	(___fldiv@b+2)^0,7,c
  8853   004924  EF96  F024         	goto	u2911
  8854   004928  EF98  F024         	goto	u2910
  8855   00492C                     u2911:
  8856   00492C  EF99  F024         	goto	l3097
  8857   004930                     u2910:
  8858   004930  8018               	bsf	___fldiv@bexp^0,0,c
  8859   004932                     l3097:
  8860   004932  5018               	movf	___fldiv@bexp^0,w,c
  8861   004934  B4D8               	btfsc	status,2,c
  8862   004936  EF9F  F024         	goto	u2921
  8863   00493A  EFA1  F024         	goto	u2920
  8864   00493E                     u2921:
  8865   00493E  EFB5  F024         	goto	l3107
  8866   004942                     u2920:
  8867   004942  2818               	incf	___fldiv@bexp^0,w,c
  8868   004944  A4D8               	btfss	status,2,c
  8869   004946  EFA7  F024         	goto	u2931
  8870   00494A  EFA9  F024         	goto	u2930
  8871   00494E                     u2931:
  8872   00494E  EFB1  F024         	goto	l3103
  8873   004952                     u2930:
  8874   004952  0E00               	movlw	0
  8875   004954  6E01               	movwf	___fldiv@b^0,c
  8876   004956  0E00               	movlw	0
  8877   004958  6E02               	movwf	(___fldiv@b+1)^0,c
  8878   00495A  0E00               	movlw	0
  8879   00495C  6E03               	movwf	(___fldiv@b+2)^0,c
  8880   00495E  0E00               	movlw	0
  8881   004960  6E04               	movwf	(___fldiv@b+3)^0,c
  8882   004962                     l3103:
  8883   004962  8E03               	bsf	(___fldiv@b+2)^0,7,c
  8884   004964  6A04               	clrf	(___fldiv@b+3)^0,c
  8885   004966  EFBD  F024         	goto	l3109
  8886   00496A                     l3107:
  8887   00496A  0E00               	movlw	0
  8888   00496C  6E01               	movwf	___fldiv@b^0,c
  8889   00496E  0E00               	movlw	0
  8890   004970  6E02               	movwf	(___fldiv@b+1)^0,c
  8891   004972  0E00               	movlw	0
  8892   004974  6E03               	movwf	(___fldiv@b+2)^0,c
  8893   004976  0E00               	movlw	0
  8894   004978  6E04               	movwf	(___fldiv@b+3)^0,c
  8895   00497A                     l3109:
  8896   00497A  5008               	movf	(___fldiv@a+3)^0,w,c
  8897   00497C  0B80               	andlw	128
  8898   00497E  1A11               	xorwf	___fldiv@sign^0,f,c
  8899   004980  5008               	movf	(___fldiv@a+3)^0,w,c
  8900   004982  2408               	addwf	(___fldiv@a+3)^0,w,c
  8901   004984  6E19               	movwf	___fldiv@aexp^0,c
  8902   004986  AE07               	btfss	(___fldiv@a+2)^0,7,c
  8903   004988  EFC8  F024         	goto	u2941
  8904   00498C  EFCA  F024         	goto	u2940
  8905   004990                     u2941:
  8906   004990  EFCB  F024         	goto	l3117
  8907   004994                     u2940:
  8908   004994  8019               	bsf	___fldiv@aexp^0,0,c
  8909   004996                     l3117:
  8910   004996  5019               	movf	___fldiv@aexp^0,w,c
  8911   004998  B4D8               	btfsc	status,2,c
  8912   00499A  EFD1  F024         	goto	u2951
  8913   00499E  EFD3  F024         	goto	u2950
  8914   0049A2                     u2951:
  8915   0049A2  EFE7  F024         	goto	l3127
  8916   0049A6                     u2950:
  8917   0049A6  2819               	incf	___fldiv@aexp^0,w,c
  8918   0049A8  A4D8               	btfss	status,2,c
  8919   0049AA  EFD9  F024         	goto	u2961
  8920   0049AE  EFDB  F024         	goto	u2960
  8921   0049B2                     u2961:
  8922   0049B2  EFE3  F024         	goto	l3123
  8923   0049B6                     u2960:
  8924   0049B6  0E00               	movlw	0
  8925   0049B8  6E05               	movwf	___fldiv@a^0,c
  8926   0049BA  0E00               	movlw	0
  8927   0049BC  6E06               	movwf	(___fldiv@a+1)^0,c
  8928   0049BE  0E00               	movlw	0
  8929   0049C0  6E07               	movwf	(___fldiv@a+2)^0,c
  8930   0049C2  0E00               	movlw	0
  8931   0049C4  6E08               	movwf	(___fldiv@a+3)^0,c
  8932   0049C6                     l3123:
  8933   0049C6  8E07               	bsf	(___fldiv@a+2)^0,7,c
  8934   0049C8  6A08               	clrf	(___fldiv@a+3)^0,c
  8935   0049CA  EFEF  F024         	goto	l3129
  8936   0049CE                     l3127:
  8937   0049CE  0E00               	movlw	0
  8938   0049D0  6E05               	movwf	___fldiv@a^0,c
  8939   0049D2  0E00               	movlw	0
  8940   0049D4  6E06               	movwf	(___fldiv@a+1)^0,c
  8941   0049D6  0E00               	movlw	0
  8942   0049D8  6E07               	movwf	(___fldiv@a+2)^0,c
  8943   0049DA  0E00               	movlw	0
  8944   0049DC  6E08               	movwf	(___fldiv@a+3)^0,c
  8945   0049DE                     l3129:
  8946   0049DE  5005               	movf	___fldiv@a^0,w,c
  8947   0049E0  1006               	iorwf	(___fldiv@a+1)^0,w,c
  8948   0049E2  1007               	iorwf	(___fldiv@a+2)^0,w,c
  8949   0049E4  1008               	iorwf	(___fldiv@a+3)^0,w,c
  8950   0049E6  A4D8               	btfss	status,2,c
  8951   0049E8  EFF8  F024         	goto	u2971
  8952   0049EC  EFFA  F024         	goto	u2970
  8953   0049F0                     u2971:
  8954   0049F0  EF12  F025         	goto	l3141
  8955   0049F4                     u2970:
  8956   0049F4  0E00               	movlw	0
  8957   0049F6  6E01               	movwf	___fldiv@b^0,c
  8958   0049F8  0E00               	movlw	0
  8959   0049FA  6E02               	movwf	(___fldiv@b+1)^0,c
  8960   0049FC  0E00               	movlw	0
  8961   0049FE  6E03               	movwf	(___fldiv@b+2)^0,c
  8962   004A00  0E00               	movlw	0
  8963   004A02  6E04               	movwf	(___fldiv@b+3)^0,c
  8964   004A04  0E80               	movlw	128
  8965   004A06  1203               	iorwf	(___fldiv@b+2)^0,f,c
  8966   004A08  0E7F               	movlw	127
  8967   004A0A  1204               	iorwf	(___fldiv@b+3)^0,f,c
  8968   004A0C                     l3135:
  8969   004A0C  5011               	movf	___fldiv@sign^0,w,c
  8970   004A0E  1204               	iorwf	(___fldiv@b+3)^0,f,c
  8971   004A10  C001  F001         	movff	___fldiv@b,?___fldiv
  8972   004A14  C002  F002         	movff	___fldiv@b+1,?___fldiv+1
  8973   004A18  C003  F003         	movff	___fldiv@b+2,?___fldiv+2
  8974   004A1C  C004  F004         	movff	___fldiv@b+3,?___fldiv+3
  8975   004A20  EF52  F026         	goto	l765
  8976   004A24                     l3141:
  8977   004A24  5018               	movf	___fldiv@bexp^0,w,c
  8978   004A26  A4D8               	btfss	status,2,c
  8979   004A28  EF18  F025         	goto	u2981
  8980   004A2C  EF1A  F025         	goto	u2980
  8981   004A30                     u2981:
  8982   004A30  EF24  F025         	goto	l3149
  8983   004A34                     u2980:
  8984   004A34  0E00               	movlw	0
  8985   004A36  6E01               	movwf	?___fldiv^0,c
  8986   004A38  0E00               	movlw	0
  8987   004A3A  6E02               	movwf	(?___fldiv+1)^0,c
  8988   004A3C  0E00               	movlw	0
  8989   004A3E  6E03               	movwf	(?___fldiv+2)^0,c
  8990   004A40  0E00               	movlw	0
  8991   004A42  6E04               	movwf	(?___fldiv+3)^0,c
  8992   004A44  EF52  F026         	goto	l765
  8993   004A48                     l3149:
  8994   004A48  5019               	movf	___fldiv@aexp^0,w,c
  8995   004A4A  C018  F009         	movff	___fldiv@bexp,??___fldiv
  8996   004A4E  6A0A               	clrf	(??___fldiv+1)^0,c
  8997   004A50  5E09               	subwf	??___fldiv^0,f,c
  8998   004A52  0E00               	movlw	0
  8999   004A54  5A0A               	subwfb	(??___fldiv+1)^0,f,c
  9000   004A56  0E7F               	movlw	127
  9001   004A58  2409               	addwf	??___fldiv^0,w,c
  9002   004A5A  6E12               	movwf	___fldiv@new_exp^0,c
  9003   004A5C  0E00               	movlw	0
  9004   004A5E  200A               	addwfc	(??___fldiv+1)^0,w,c
  9005   004A60  6E13               	movwf	(___fldiv@new_exp+1)^0,c
  9006   004A62  C001  F00D         	movff	___fldiv@b,___fldiv@rem
  9007   004A66  C002  F00E         	movff	___fldiv@b+1,___fldiv@rem+1
  9008   004A6A  C003  F00F         	movff	___fldiv@b+2,___fldiv@rem+2
  9009   004A6E  C004  F010         	movff	___fldiv@b+3,___fldiv@rem+3
  9010   004A72  0E00               	movlw	0
  9011   004A74  6E01               	movwf	___fldiv@b^0,c
  9012   004A76  0E00               	movlw	0
  9013   004A78  6E02               	movwf	(___fldiv@b+1)^0,c
  9014   004A7A  0E00               	movlw	0
  9015   004A7C  6E03               	movwf	(___fldiv@b+2)^0,c
  9016   004A7E  0E00               	movlw	0
  9017   004A80  6E04               	movwf	(___fldiv@b+3)^0,c
  9018   004A82  0E00               	movlw	0
  9019   004A84  6E14               	movwf	___fldiv@grs^0,c
  9020   004A86  0E00               	movlw	0
  9021   004A88  6E15               	movwf	(___fldiv@grs+1)^0,c
  9022   004A8A  0E00               	movlw	0
  9023   004A8C  6E16               	movwf	(___fldiv@grs+2)^0,c
  9024   004A8E  0E00               	movlw	0
  9025   004A90  6E17               	movwf	(___fldiv@grs+3)^0,c
  9026   004A92  6A19               	clrf	___fldiv@aexp^0,c
  9027   004A94  EF84  F025         	goto	l767
  9028   004A98                     l3159:
  9029   004A98  5019               	movf	___fldiv@aexp^0,w,c
  9030   004A9A  B4D8               	btfsc	status,2,c
  9031   004A9C  EF52  F025         	goto	u2991
  9032   004AA0  EF54  F025         	goto	u2990
  9033   004AA4                     u2991:
  9034   004AA4  EF6B  F025         	goto	l3167
  9035   004AA8                     u2990:
  9036   004AA8  90D8               	bcf	status,0,c
  9037   004AAA  360D               	rlcf	___fldiv@rem^0,f,c
  9038   004AAC  360E               	rlcf	(___fldiv@rem+1)^0,f,c
  9039   004AAE  360F               	rlcf	(___fldiv@rem+2)^0,f,c
  9040   004AB0  3610               	rlcf	(___fldiv@rem+3)^0,f,c
  9041   004AB2  90D8               	bcf	status,0,c
  9042   004AB4  3601               	rlcf	___fldiv@b^0,f,c
  9043   004AB6  3602               	rlcf	(___fldiv@b+1)^0,f,c
  9044   004AB8  3603               	rlcf	(___fldiv@b+2)^0,f,c
  9045   004ABA  3604               	rlcf	(___fldiv@b+3)^0,f,c
  9046   004ABC  AE17               	btfss	(___fldiv@grs+3)^0,7,c
  9047   004ABE  EF63  F025         	goto	u3001
  9048   004AC2  EF65  F025         	goto	u3000
  9049   004AC6                     u3001:
  9050   004AC6  EF66  F025         	goto	l770
  9051   004ACA                     u3000:
  9052   004ACA  8001               	bsf	___fldiv@b^0,0,c
  9053   004ACC                     l770:
  9054   004ACC  90D8               	bcf	status,0,c
  9055   004ACE  3614               	rlcf	___fldiv@grs^0,f,c
  9056   004AD0  3615               	rlcf	(___fldiv@grs+1)^0,f,c
  9057   004AD2  3616               	rlcf	(___fldiv@grs+2)^0,f,c
  9058   004AD4  3617               	rlcf	(___fldiv@grs+3)^0,f,c
  9059   004AD6                     l3167:
  9060   004AD6  5005               	movf	___fldiv@a^0,w,c
  9061   004AD8  5C0D               	subwf	___fldiv@rem^0,w,c
  9062   004ADA  5006               	movf	(___fldiv@a+1)^0,w,c
  9063   004ADC  580E               	subwfb	(___fldiv@rem+1)^0,w,c
  9064   004ADE  5007               	movf	(___fldiv@a+2)^0,w,c
  9065   004AE0  580F               	subwfb	(___fldiv@rem+2)^0,w,c
  9066   004AE2  5008               	movf	(___fldiv@a+3)^0,w,c
  9067   004AE4  5810               	subwfb	(___fldiv@rem+3)^0,w,c
  9068   004AE6  A0D8               	btfss	status,0,c
  9069   004AE8  EF78  F025         	goto	u3011
  9070   004AEC  EF7A  F025         	goto	u3010
  9071   004AF0                     u3011:
  9072   004AF0  EF83  F025         	goto	l3173
  9073   004AF4                     u3010:
  9074   004AF4  8C17               	bsf	(___fldiv@grs+3)^0,6,c
  9075   004AF6  5005               	movf	___fldiv@a^0,w,c
  9076   004AF8  5E0D               	subwf	___fldiv@rem^0,f,c
  9077   004AFA  5006               	movf	(___fldiv@a+1)^0,w,c
  9078   004AFC  5A0E               	subwfb	(___fldiv@rem+1)^0,f,c
  9079   004AFE  5007               	movf	(___fldiv@a+2)^0,w,c
  9080   004B00  5A0F               	subwfb	(___fldiv@rem+2)^0,f,c
  9081   004B02  5008               	movf	(___fldiv@a+3)^0,w,c
  9082   004B04  5A10               	subwfb	(___fldiv@rem+3)^0,f,c
  9083   004B06                     l3173:
  9084   004B06  2A19               	incf	___fldiv@aexp^0,f,c
  9085   004B08                     l767:
  9086   004B08  0E19               	movlw	25
  9087   004B0A  6419               	cpfsgt	___fldiv@aexp^0,c
  9088   004B0C  EF8A  F025         	goto	u3021
  9089   004B10  EF8C  F025         	goto	u3020
  9090   004B14                     u3021:
  9091   004B14  EF4C  F025         	goto	l3159
  9092   004B18                     u3020:
  9093   004B18  500D               	movf	___fldiv@rem^0,w,c
  9094   004B1A  100E               	iorwf	(___fldiv@rem+1)^0,w,c
  9095   004B1C  100F               	iorwf	(___fldiv@rem+2)^0,w,c
  9096   004B1E  1010               	iorwf	(___fldiv@rem+3)^0,w,c
  9097   004B20  B4D8               	btfsc	status,2,c
  9098   004B22  EF95  F025         	goto	u3031
  9099   004B26  EF97  F025         	goto	u3030
  9100   004B2A                     u3031:
  9101   004B2A  EFAF  F025         	goto	l3185
  9102   004B2E                     u3030:
  9103   004B2E  8014               	bsf	___fldiv@grs^0,0,c
  9104   004B30  EFAF  F025         	goto	l3185
  9105   004B34                     l3179:
  9106   004B34  90D8               	bcf	status,0,c
  9107   004B36  3601               	rlcf	___fldiv@b^0,f,c
  9108   004B38  3602               	rlcf	(___fldiv@b+1)^0,f,c
  9109   004B3A  3603               	rlcf	(___fldiv@b+2)^0,f,c
  9110   004B3C  3604               	rlcf	(___fldiv@b+3)^0,f,c
  9111   004B3E  AE17               	btfss	(___fldiv@grs+3)^0,7,c
  9112   004B40  EFA4  F025         	goto	u3041
  9113   004B44  EFA6  F025         	goto	u3040
  9114   004B48                     u3041:
  9115   004B48  EFA7  F025         	goto	l776
  9116   004B4C                     u3040:
  9117   004B4C  8001               	bsf	___fldiv@b^0,0,c
  9118   004B4E                     l776:
  9119   004B4E  90D8               	bcf	status,0,c
  9120   004B50  3614               	rlcf	___fldiv@grs^0,f,c
  9121   004B52  3615               	rlcf	(___fldiv@grs+1)^0,f,c
  9122   004B54  3616               	rlcf	(___fldiv@grs+2)^0,f,c
  9123   004B56  3617               	rlcf	(___fldiv@grs+3)^0,f,c
  9124   004B58  0612               	decf	___fldiv@new_exp^0,f,c
  9125   004B5A  A0D8               	btfss	status,0,c
  9126   004B5C  0613               	decf	(___fldiv@new_exp+1)^0,f,c
  9127   004B5E                     l3185:
  9128   004B5E  AE03               	btfss	(___fldiv@b+2)^0,7,c
  9129   004B60  EFB4  F025         	goto	u3051
  9130   004B64  EFB6  F025         	goto	u3050
  9131   004B68                     u3051:
  9132   004B68  EF9A  F025         	goto	l3179
  9133   004B6C                     u3050:
  9134   004B6C  6A19               	clrf	___fldiv@aexp^0,c
  9135   004B6E  AE17               	btfss	(___fldiv@grs+3)^0,7,c
  9136   004B70  EFBC  F025         	goto	u3061
  9137   004B74  EFBE  F025         	goto	u3060
  9138   004B78                     u3061:
  9139   004B78  EFE2  F025         	goto	l778
  9140   004B7C                     u3060:
  9141   004B7C  0EFF               	movlw	255
  9142   004B7E  1414               	andwf	___fldiv@grs^0,w,c
  9143   004B80  6E09               	movwf	??___fldiv^0,c
  9144   004B82  0EFF               	movlw	255
  9145   004B84  1415               	andwf	(___fldiv@grs+1)^0,w,c
  9146   004B86  6E0A               	movwf	(??___fldiv+1)^0,c
  9147   004B88  0EFF               	movlw	255
  9148   004B8A  1416               	andwf	(___fldiv@grs+2)^0,w,c
  9149   004B8C  6E0B               	movwf	(??___fldiv+2)^0,c
  9150   004B8E  0E7F               	movlw	127
  9151   004B90  1417               	andwf	(___fldiv@grs+3)^0,w,c
  9152   004B92  6E0C               	movwf	(??___fldiv+3)^0,c
  9153   004B94  5009               	movf	??___fldiv^0,w,c
  9154   004B96  100A               	iorwf	(??___fldiv+1)^0,w,c
  9155   004B98  100B               	iorwf	(??___fldiv+2)^0,w,c
  9156   004B9A  100C               	iorwf	(??___fldiv+3)^0,w,c
  9157   004B9C  B4D8               	btfsc	status,2,c
  9158   004B9E  EFD3  F025         	goto	u3071
  9159   004BA2  EFD5  F025         	goto	u3070
  9160   004BA6                     u3071:
  9161   004BA6  EFD9  F025         	goto	l779
  9162   004BAA                     u3070:
  9163   004BAA                     l3189:
  9164   004BAA  0E01               	movlw	1
  9165   004BAC  6E19               	movwf	___fldiv@aexp^0,c
  9166   004BAE  EFE2  F025         	goto	l778
  9167   004BB2                     l779:
  9168   004BB2  A001               	btfss	___fldiv@b^0,0,c
  9169   004BB4  EFDE  F025         	goto	u3081
  9170   004BB8  EFE0  F025         	goto	u3080
  9171   004BBC                     u3081:
  9172   004BBC  EFE2  F025         	goto	l778
  9173   004BC0                     u3080:
  9174   004BC0  EFD5  F025         	goto	l3189
  9175   004BC4                     l778:
  9176   004BC4  5019               	movf	___fldiv@aexp^0,w,c
  9177   004BC6  B4D8               	btfsc	status,2,c
  9178   004BC8  EFE8  F025         	goto	u3091
  9179   004BCC  EFEA  F025         	goto	u3090
  9180   004BD0                     u3091:
  9181   004BD0  EF0E  F026         	goto	l3201
  9182   004BD4                     u3090:
  9183   004BD4  0E01               	movlw	1
  9184   004BD6  2601               	addwf	___fldiv@b^0,f,c
  9185   004BD8  0E00               	movlw	0
  9186   004BDA  2202               	addwfc	(___fldiv@b+1)^0,f,c
  9187   004BDC  2203               	addwfc	(___fldiv@b+2)^0,f,c
  9188   004BDE  2204               	addwfc	(___fldiv@b+3)^0,f,c
  9189   004BE0  A004               	btfss	(___fldiv@b+3)^0,0,c
  9190   004BE2  EFF5  F025         	goto	u3101
  9191   004BE6  EFF7  F025         	goto	u3100
  9192   004BEA                     u3101:
  9193   004BEA  EF0E  F026         	goto	l3201
  9194   004BEE                     u3100:
  9195   004BEE  C001  F009         	movff	___fldiv@b,??___fldiv
  9196   004BF2  C002  F00A         	movff	___fldiv@b+1,??___fldiv+1
  9197   004BF6  C003  F00B         	movff	___fldiv@b+2,??___fldiv+2
  9198   004BFA  C004  F00C         	movff	___fldiv@b+3,??___fldiv+3
  9199   004BFE  340C               	rlcf	(??___fldiv+3)^0,w,c
  9200   004C00  320C               	rrcf	(??___fldiv+3)^0,f,c
  9201   004C02  320B               	rrcf	(??___fldiv+2)^0,f,c
  9202   004C04  320A               	rrcf	(??___fldiv+1)^0,f,c
  9203   004C06  3209               	rrcf	??___fldiv^0,f,c
  9204   004C08  C009  F001         	movff	??___fldiv,___fldiv@b
  9205   004C0C  C00A  F002         	movff	??___fldiv+1,___fldiv@b+1
  9206   004C10  C00B  F003         	movff	??___fldiv+2,___fldiv@b+2
  9207   004C14  C00C  F004         	movff	??___fldiv+3,___fldiv@b+3
  9208   004C18  4A12               	infsnz	___fldiv@new_exp^0,f,c
  9209   004C1A  2A13               	incf	(___fldiv@new_exp+1)^0,f,c
  9210   004C1C                     l3201:
  9211   004C1C  BE13               	btfsc	(___fldiv@new_exp+1)^0,7,c
  9212   004C1E  EF19  F026         	goto	u3111
  9213   004C22  5013               	movf	(___fldiv@new_exp+1)^0,w,c
  9214   004C24  E108               	bnz	u3110
  9215   004C26  2812               	incf	___fldiv@new_exp^0,w,c
  9216   004C28  A0D8               	btfss	status,0,c
  9217   004C2A  EF19  F026         	goto	u3111
  9218   004C2E  EF1B  F026         	goto	u3110
  9219   004C32                     u3111:
  9220   004C32  EF26  F026         	goto	l3205
  9221   004C36                     u3110:
  9222   004C36  0E00               	movlw	0
  9223   004C38  6E13               	movwf	(___fldiv@new_exp+1)^0,c
  9224   004C3A  6812               	setf	___fldiv@new_exp^0,c
  9225   004C3C  0E00               	movlw	0
  9226   004C3E  6E01               	movwf	___fldiv@b^0,c
  9227   004C40  0E00               	movlw	0
  9228   004C42  6E02               	movwf	(___fldiv@b+1)^0,c
  9229   004C44  0E00               	movlw	0
  9230   004C46  6E03               	movwf	(___fldiv@b+2)^0,c
  9231   004C48  0E00               	movlw	0
  9232   004C4A  6E04               	movwf	(___fldiv@b+3)^0,c
  9233   004C4C                     l3205:
  9234   004C4C  BE13               	btfsc	(___fldiv@new_exp+1)^0,7,c
  9235   004C4E  EF33  F026         	goto	u3120
  9236   004C52  5013               	movf	(___fldiv@new_exp+1)^0,w,c
  9237   004C54  E106               	bnz	u3121
  9238   004C56  0412               	decf	___fldiv@new_exp^0,w,c
  9239   004C58  B0D8               	btfsc	status,0,c
  9240   004C5A  EF31  F026         	goto	u3121
  9241   004C5E  EF33  F026         	goto	u3120
  9242   004C62                     u3121:
  9243   004C62  EF40  F026         	goto	l3211
  9244   004C66                     u3120:
  9245   004C66  0E00               	movlw	0
  9246   004C68  6E13               	movwf	(___fldiv@new_exp+1)^0,c
  9247   004C6A  0E00               	movlw	0
  9248   004C6C  6E12               	movwf	___fldiv@new_exp^0,c
  9249   004C6E  0E00               	movlw	0
  9250   004C70  6E01               	movwf	___fldiv@b^0,c
  9251   004C72  0E00               	movlw	0
  9252   004C74  6E02               	movwf	(___fldiv@b+1)^0,c
  9253   004C76  0E00               	movlw	0
  9254   004C78  6E03               	movwf	(___fldiv@b+2)^0,c
  9255   004C7A  0E00               	movlw	0
  9256   004C7C  6E04               	movwf	(___fldiv@b+3)^0,c
  9257   004C7E  6A11               	clrf	___fldiv@sign^0,c
  9258   004C80                     l3211:
  9259   004C80  C012  F018         	movff	___fldiv@new_exp,___fldiv@bexp
  9260   004C84  A018               	btfss	___fldiv@bexp^0,0,c
  9261   004C86  EF47  F026         	goto	u3131
  9262   004C8A  EF49  F026         	goto	u3130
  9263   004C8E                     u3131:
  9264   004C8E  EF4C  F026         	goto	l3217
  9265   004C92                     u3130:
  9266   004C92  8E03               	bsf	(___fldiv@b+2)^0,7,c
  9267   004C94  EF4D  F026         	goto	l3219
  9268   004C98                     l3217:
  9269   004C98  9E03               	bcf	(___fldiv@b+2)^0,7,c
  9270   004C9A                     l3219:
  9271   004C9A  90D8               	bcf	status,0,c
  9272   004C9C  3018               	rrcf	___fldiv@bexp^0,w,c
  9273   004C9E  6E04               	movwf	(___fldiv@b+3)^0,c
  9274   004CA0  EF06  F025         	goto	l3135
  9275   004CA4                     l765:
  9276   004CA4  0012               	return		;funcret
  9277   004CA6                     __end_of___fldiv:
  9278                           	callstack 0
  9279                           
  9280 ;; *************** function _dtoa *****************
  9281 ;; Defined at:
  9282 ;;		line 513 in file "C:\Program Files\Microchip\xc8\v3.00\pic\sources\c99\common\doprnt.c"
  9283 ;; Parameters:    Size  Location     Type
  9284 ;;  fp              1   28[COMRAM] PTR struct _IO_FILE
  9285 ;;		 -> sprintf@f(11), 
  9286 ;;  d               2   29[COMRAM] int 
  9287 ;; Auto vars:     Size  Location     Type
  9288 ;;  i               2   38[COMRAM] int 
  9289 ;;  p               2   35[COMRAM] int 
  9290 ;;  w               2   33[COMRAM] int 
  9291 ;;  s               1   37[COMRAM] unsigned char 
  9292 ;; Return value:  Size  Location     Type
  9293 ;;                  1    wreg      void 
  9294 ;; Registers used:
  9295 ;;		wreg, fsr1l, fsr1h, fsr2l, fsr2h, status,2, status,0, cstack
  9296 ;; Tracked objects:
  9297 ;;		On entry : 0/0
  9298 ;;		On exit  : 0/0
  9299 ;;		Unchanged: 0/0
  9300 ;; Data sizes:     COMRAM   BANK0   BANK1   BANK2   BANK3   BANK4   BANK5   BANK6   BANK7   BANK8   BANK9  BANK10  BANK1
      +1  BANK12  BANK13  BANK14  BANK15  BANK16  BANK17  BANK18  BANK19  BANK20  BANK21  BANK22  BANK23  BANK24  BANK25  BANK2
      +6  BANK27  BANK28  BANK29  BANK30  BANK31
  9301 ;;      Params:         3       0       0       0       0       0       0       0       0       0       0       0       
      +0       0       0       0       0       0       0       0       0       0       0       0       0       0       0       
      +0       0       0       0       0       0
  9302 ;;      Locals:         9       0       0       0       0       0       0       0       0       0       0       0       
      +0       0       0       0       0       0       0       0       0       0       0       0       0       0       0       
      +0       0       0       0       0       0
  9303 ;;      Temps:          0       0       0       0       0       0       0       0       0       0       0       0       
      +0       0       0       0       0       0       0       0       0       0       0       0       0       0       0       
      +0       0       0       0       0       0
  9304 ;;      Totals:        12       0       0       0       0       0       0       0       0       0       0       0       
      +0       0       0       0       0       0       0       0       0       0       0       0       0       0       0       
      +0       0       0       0       0       0
  9305 ;;Total ram usage:       12 bytes
  9306 ;; Hardware stack levels used: 1
  9307 ;; Hardware stack levels required when called: 4
  9308 ;; This function calls:
  9309 ;;		___awdiv
  9310 ;;		___awmod
  9311 ;;		_abs
  9312 ;;		_pad
  9313 ;; This function is called by:
  9314 ;;		_vfpfcnvrt
  9315 ;; This function uses a non-reentrant model
  9316 ;;
  9317                           
  9318                           	psect	text20
  9319   005332                     __ptext20:
  9320                           	callstack 0
  9321   005332                     _dtoa:
  9322                           	callstack 23
  9323   005332                     
  9324                           ;C:\Program Files\Microchip\xc8\v3.00\pic\sources\c99\common\doprnt.c: 513: static void 
      +                          dtoa(FILE *fp, vfpf_sint_t d);C:\Program Files\Microchip\xc8\v3.00\pic\sources\c99\commo
      +                          n\doprnt.c: 514: {;C:\Program Files\Microchip\xc8\v3.00\pic\sources\c99\common\doprnt.c:
      +                           515:  char s;;C:\Program Files\Microchip\xc8\v3.00\pic\sources\c99\common\doprnt.c: 516
      +                          :     int i, w;;C:\Program Files\Microchip\xc8\v3.00\pic\sources\c99\common\doprnt.c: 51
      +                          8:  int p;;C:\Program Files\Microchip\xc8\v3.00\pic\sources\c99\common\doprnt.c: 524:   
      +                            s = d < 0 ? 1 : 0;
  9325   005332  BE1F               	btfsc	(dtoa@d+1)^0,7,c
  9326   005334  EF9E  F029         	goto	u3881
  9327   005338  EFA1  F029         	goto	u3880
  9328   00533C                     u3881:
  9329   00533C  0E01               	movlw	1
  9330   00533E  EFA2  F029         	goto	u3890
  9331   005342                     u3880:
  9332   005342  0E00               	movlw	0
  9333   005344                     u3890:
  9334   005344  6E26               	movwf	dtoa@s^0,c
  9335                           
  9336                           ;C:\Program Files\Microchip\xc8\v3.00\pic\sources\c99\common\doprnt.c: 533:     p = (0 <
      +                          = prec) ? prec : 1;
  9337   005346  0100               	movlb	0	; () banked
  9338   005348  BFA7               	btfsc	(_prec+1)& (0+255),7,b
  9339   00534A  EFAB  F029         	goto	u3900
  9340   00534E  EFA9  F029         	goto	u3901
  9341   005352                     u3901:
  9342   005352  EFB1  F029         	goto	l900
  9343   005356                     u3900:
  9344   005356                     
  9345                           ; BSR set to: 0
  9346   005356  0E00               	movlw	0
  9347   005358  6E25               	movwf	(dtoa@p+1)^0,c
  9348   00535A  0E01               	movlw	1
  9349   00535C  6E24               	movwf	dtoa@p^0,c
  9350   00535E  EFB5  F029         	goto	l902
  9351   005362                     l900:
  9352                           
  9353                           ; BSR set to: 0
  9354   005362  C0A6  F024         	movff	_prec,dtoa@p
  9355   005366  C0A7  F025         	movff	_prec+1,dtoa@p+1
  9356   00536A                     l902:
  9357                           
  9358                           ; BSR set to: 0
  9359                           ;C:\Program Files\Microchip\xc8\v3.00\pic\sources\c99\common\doprnt.c: 535:     w = widt
      +                          h;
  9360   00536A  C0A4  F022         	movff	_width,dtoa@w
  9361   00536E  C0A5  F023         	movff	_width+1,dtoa@w+1
  9362   005372                     
  9363                           ; BSR set to: 0
  9364                           ;C:\Program Files\Microchip\xc8\v3.00\pic\sources\c99\common\doprnt.c: 536:     if (s
  9365   005372  5026               	movf	dtoa@s^0,w,c
  9366   005374  B4D8               	btfsc	status,2,c
  9367   005376  EFBF  F029         	goto	u3911
  9368   00537A  EFC1  F029         	goto	u3910
  9369   00537E                     u3911:
  9370   00537E  EFD8  F029         	goto	l903
  9371   005382                     u3910:
  9372   005382                     
  9373                           ; BSR set to: 0
  9374                           ;C:\Program Files\Microchip\xc8\v3.00\pic\sources\c99\common\doprnt.c: 540:     ) {;C:\P
      +                          rogram Files\Microchip\xc8\v3.00\pic\sources\c99\common\doprnt.c: 541:         --w;
  9375   005382  0622               	decf	dtoa@w^0,f,c
  9376   005384  A0D8               	btfss	status,0,c
  9377   005386  0623               	decf	(dtoa@w+1)^0,f,c
  9378   005388                     
  9379                           ; BSR set to: 0
  9380                           ;C:\Program Files\Microchip\xc8\v3.00\pic\sources\c99\common\doprnt.c: 542:   s = s ? '-
      +                          ' : '+';
  9381   005388  5026               	movf	dtoa@s^0,w,c
  9382   00538A  A4D8               	btfss	status,2,c
  9383   00538C  EFCA  F029         	goto	u3921
  9384   005390  EFCC  F029         	goto	u3920
  9385   005394                     u3921:
  9386   005394  EFD2  F029         	goto	l3653
  9387   005398                     u3920:
  9388   005398                     
  9389                           ; BSR set to: 0
  9390   005398  0E00               	movlw	0
  9391   00539A  6E21               	movwf	(_dtoa$945+1)^0,c
  9392   00539C  0E2B               	movlw	43
  9393   00539E  6E20               	movwf	_dtoa$945^0,c
  9394   0053A0  EFD6  F029         	goto	l3655
  9395   0053A4                     l3653:
  9396                           
  9397                           ; BSR set to: 0
  9398   0053A4  0E00               	movlw	0
  9399   0053A6  6E21               	movwf	(_dtoa$945+1)^0,c
  9400   0053A8  0E2D               	movlw	45
  9401   0053AA  6E20               	movwf	_dtoa$945^0,c
  9402   0053AC                     l3655:
  9403                           
  9404                           ; BSR set to: 0
  9405   0053AC  C020  F026         	movff	_dtoa$945,dtoa@s
  9406   0053B0                     l903:
  9407                           
  9408                           ; BSR set to: 0
  9409                           ;C:\Program Files\Microchip\xc8\v3.00\pic\sources\c99\common\doprnt.c: 552:     i = size
      +                          of(dbuf) - 1;
  9410   0053B0  0E00               	movlw	0
  9411   0053B2  6E28               	movwf	(dtoa@i+1)^0,c
  9412   0053B4  0E4F               	movlw	79
  9413   0053B6  6E27               	movwf	dtoa@i^0,c
  9414   0053B8                     
  9415                           ; BSR set to: 0
  9416                           ;C:\Program Files\Microchip\xc8\v3.00\pic\sources\c99\common\doprnt.c: 553:     dbuf[i] 
      +                          = '\0';
  9417   0053B8  0101               	movlb	1	; () banked
  9418   0053BA  6B4F               	clrf	(_dbuf+79)& (0+255),b
  9419                           
  9420                           ;C:\Program Files\Microchip\xc8\v3.00\pic\sources\c99\common\doprnt.c: 554:     while (!
      +                          (i < 1) && (d != 0
  9421   0053BC  EF10  F02A         	goto	l3669
  9422   0053C0                     l3659:
  9423                           
  9424                           ;C:\Program Files\Microchip\xc8\v3.00\pic\sources\c99\common\doprnt.c: 563:     )) {;C:\
      +                          Program Files\Microchip\xc8\v3.00\pic\sources\c99\common\doprnt.c: 564:         --i;
  9425   0053C0  0627               	decf	dtoa@i^0,f,c
  9426   0053C2  A0D8               	btfss	status,0,c
  9427   0053C4  0628               	decf	(dtoa@i+1)^0,f,c
  9428   0053C6                     
  9429                           ;C:\Program Files\Microchip\xc8\v3.00\pic\sources\c99\common\doprnt.c: 565:         dbuf
      +                          [i] = (char)((int)'0' + abs(d % 10));
  9430   0053C6  0E00               	movlw	low _dbuf
  9431   0053C8  2427               	addwf	dtoa@i^0,w,c
  9432   0053CA  6ED9               	movwf	fsr2l,c
  9433   0053CC  0E01               	movlw	high _dbuf
  9434   0053CE  2028               	addwfc	(dtoa@i+1)^0,w,c
  9435   0053D0  6EDA               	movwf	fsr2h,c
  9436   0053D2  C01E  F013         	movff	dtoa@d,___awmod@dividend
  9437   0053D6  C01F  F014         	movff	dtoa@d+1,___awmod@dividend+1
  9438   0053DA  0E00               	movlw	0
  9439   0053DC  6E16               	movwf	(___awmod@divisor+1)^0,c
  9440   0053DE  0E0A               	movlw	10
  9441   0053E0  6E15               	movwf	___awmod@divisor^0,c
  9442   0053E2  EC97  F02C         	call	___awmod	;wreg free
  9443   0053E6  C013  F019         	movff	?___awmod,abs@a
  9444   0053EA  C014  F01A         	movff	?___awmod+1,abs@a+1
  9445   0053EE  EC2F  F030         	call	_abs	;wreg free
  9446   0053F2  5019               	movf	?_abs^0,w,c
  9447   0053F4  0F30               	addlw	48
  9448   0053F6  6EDF               	movwf	indf2,c
  9449   0053F8                     
  9450                           ;C:\Program Files\Microchip\xc8\v3.00\pic\sources\c99\common\doprnt.c: 567:         --p;
  9451   0053F8  0624               	decf	dtoa@p^0,f,c
  9452   0053FA  A0D8               	btfss	status,0,c
  9453   0053FC  0625               	decf	(dtoa@p+1)^0,f,c
  9454   0053FE                     
  9455                           ;C:\Program Files\Microchip\xc8\v3.00\pic\sources\c99\common\doprnt.c: 571:         --w;
  9456   0053FE  0622               	decf	dtoa@w^0,f,c
  9457   005400  A0D8               	btfss	status,0,c
  9458   005402  0623               	decf	(dtoa@w+1)^0,f,c
  9459   005404                     
  9460                           ;C:\Program Files\Microchip\xc8\v3.00\pic\sources\c99\common\doprnt.c: 572:         d = 
      +                          d / 10;
  9461   005404  C01E  F001         	movff	dtoa@d,___awdiv@dividend
  9462   005408  C01F  F002         	movff	dtoa@d+1,___awdiv@dividend+1
  9463   00540C  0E00               	movlw	0
  9464   00540E  6E04               	movwf	(___awdiv@divisor+1)^0,c
  9465   005410  0E0A               	movlw	10
  9466   005412  6E03               	movwf	___awdiv@divisor^0,c
  9467   005414  ECDA  F02B         	call	___awdiv	;wreg free
  9468   005418  C001  F01E         	movff	?___awdiv,dtoa@d
  9469   00541C  C002  F01F         	movff	?___awdiv+1,dtoa@d+1
  9470   005420                     l3669:
  9471                           
  9472                           ;C:\Program Files\Microchip\xc8\v3.00\pic\sources\c99\common\doprnt.c: 554:     while (!
      +                          (i < 1) && (d != 0
  9473   005420  BE28               	btfsc	(dtoa@i+1)^0,7,c
  9474   005422  EF1B  F02A         	goto	u3931
  9475   005426  5028               	movf	(dtoa@i+1)^0,w,c
  9476   005428  E108               	bnz	u3930
  9477   00542A  0427               	decf	dtoa@i^0,w,c
  9478   00542C  A0D8               	btfss	status,0,c
  9479   00542E  EF1B  F02A         	goto	u3931
  9480   005432  EF1D  F02A         	goto	u3930
  9481   005436                     u3931:
  9482   005436  EF33  F02A         	goto	l3675
  9483   00543A                     u3930:
  9484   00543A  501E               	movf	dtoa@d^0,w,c
  9485   00543C  101F               	iorwf	(dtoa@d+1)^0,w,c
  9486   00543E  A4D8               	btfss	status,2,c
  9487   005440  EF24  F02A         	goto	u3941
  9488   005444  EF26  F02A         	goto	u3940
  9489   005448                     u3941:
  9490   005448  EFE0  F029         	goto	l3659
  9491   00544C                     u3940:
  9492   00544C  BE25               	btfsc	(dtoa@p+1)^0,7,c
  9493   00544E  EF33  F02A         	goto	u3950
  9494   005452  5025               	movf	(dtoa@p+1)^0,w,c
  9495   005454  E106               	bnz	u3951
  9496   005456  0424               	decf	dtoa@p^0,w,c
  9497   005458  B0D8               	btfsc	status,0,c
  9498   00545A  EF31  F02A         	goto	u3951
  9499   00545E  EF33  F02A         	goto	u3950
  9500   005462                     u3951:
  9501   005462  EFE0  F029         	goto	l3659
  9502   005466                     u3950:
  9503   005466                     l3675:
  9504                           
  9505                           ;C:\Program Files\Microchip\xc8\v3.00\pic\sources\c99\common\doprnt.c: 576:     if (s !=
      +                           0) {
  9506   005466  5026               	movf	dtoa@s^0,w,c
  9507   005468  B4D8               	btfsc	status,2,c
  9508   00546A  EF39  F02A         	goto	u3961
  9509   00546E  EF3B  F02A         	goto	u3960
  9510   005472                     u3961:
  9511   005472  EF47  F02A         	goto	l3681
  9512   005476                     u3960:
  9513   005476                     
  9514                           ;C:\Program Files\Microchip\xc8\v3.00\pic\sources\c99\common\doprnt.c: 577:         --i;
  9515   005476  0627               	decf	dtoa@i^0,f,c
  9516   005478  A0D8               	btfss	status,0,c
  9517   00547A  0628               	decf	(dtoa@i+1)^0,f,c
  9518   00547C                     
  9519                           ;C:\Program Files\Microchip\xc8\v3.00\pic\sources\c99\common\doprnt.c: 578:         dbuf
      +                          [i] = s;
  9520   00547C  0E00               	movlw	low _dbuf
  9521   00547E  2427               	addwf	dtoa@i^0,w,c
  9522   005480  6ED9               	movwf	fsr2l,c
  9523   005482  0E01               	movlw	high _dbuf
  9524   005484  2028               	addwfc	(dtoa@i+1)^0,w,c
  9525   005486  6EDA               	movwf	fsr2h,c
  9526   005488  0060  F09B  FFDF   	movff	dtoa@s,indf2
  9527   00548E                     l3681:
  9528                           
  9529                           ;C:\Program Files\Microchip\xc8\v3.00\pic\sources\c99\common\doprnt.c: 582:     return (
      +                          void) pad(fp, &dbuf[i], w);
  9530   00548E  C01D  F00F         	movff	dtoa@fp,pad@fp
  9531   005492  0E00               	movlw	low _dbuf
  9532   005494  2427               	addwf	dtoa@i^0,w,c
  9533   005496  6E10               	movwf	pad@buf^0,c
  9534   005498  0E01               	movlw	high _dbuf
  9535   00549A  2028               	addwfc	(dtoa@i+1)^0,w,c
  9536   00549C  6E11               	movwf	(pad@buf+1)^0,c
  9537   00549E  C022  F012         	movff	dtoa@w,pad@p
  9538   0054A2  C023  F013         	movff	dtoa@w+1,pad@p+1
  9539   0054A6  EC99  F02D         	call	_pad	;wreg free
  9540   0054AA  0012               	return		;funcret
  9541   0054AC                     __end_of_dtoa:
  9542                           	callstack 0
  9543                           
  9544 ;; *************** function _pad *****************
  9545 ;; Defined at:
  9546 ;;		line 193 in file "C:\Program Files\Microchip\xc8\v3.00\pic\sources\c99\common\doprnt.c"
  9547 ;; Parameters:    Size  Location     Type
  9548 ;;  fp              1   14[COMRAM] PTR struct _IO_FILE
  9549 ;;		 -> sprintf@f(11), 
  9550 ;;  buf             2   15[COMRAM] PTR unsigned char 
  9551 ;;		 -> dbuf(80), 
  9552 ;;  p               2   17[COMRAM] int 
  9553 ;; Auto vars:     Size  Location     Type
  9554 ;;  i               2   20[COMRAM] int 
  9555 ;; Return value:  Size  Location     Type
  9556 ;;                  1    wreg      void 
  9557 ;; Registers used:
  9558 ;;		wreg, fsr1l, fsr1h, fsr2l, fsr2h, status,2, status,0, cstack
  9559 ;; Tracked objects:
  9560 ;;		On entry : 0/0
  9561 ;;		On exit  : 0/0
  9562 ;;		Unchanged: 0/0
  9563 ;; Data sizes:     COMRAM   BANK0   BANK1   BANK2   BANK3   BANK4   BANK5   BANK6   BANK7   BANK8   BANK9  BANK10  BANK1
      +1  BANK12  BANK13  BANK14  BANK15  BANK16  BANK17  BANK18  BANK19  BANK20  BANK21  BANK22  BANK23  BANK24  BANK25  BANK2
      +6  BANK27  BANK28  BANK29  BANK30  BANK31
  9564 ;;      Params:         5       0       0       0       0       0       0       0       0       0       0       0       
      +0       0       0       0       0       0       0       0       0       0       0       0       0       0       0       
      +0       0       0       0       0       0
  9565 ;;      Locals:         2       0       0       0       0       0       0       0       0       0       0       0       
      +0       0       0       0       0       0       0       0       0       0       0       0       0       0       0       
      +0       0       0       0       0       0
  9566 ;;      Temps:          1       0       0       0       0       0       0       0       0       0       0       0       
      +0       0       0       0       0       0       0       0       0       0       0       0       0       0       0       
      +0       0       0       0       0       0
  9567 ;;      Totals:         8       0       0       0       0       0       0       0       0       0       0       0       
      +0       0       0       0       0       0       0       0       0       0       0       0       0       0       0       
      +0       0       0       0       0       0
  9568 ;;Total ram usage:        8 bytes
  9569 ;; Hardware stack levels used: 1
  9570 ;; Hardware stack levels required when called: 3
  9571 ;; This function calls:
  9572 ;;		_fputc
  9573 ;;		_fputs
  9574 ;; This function is called by:
  9575 ;;		_dtoa
  9576 ;;		_efgtoa
  9577 ;; This function uses a non-reentrant model
  9578 ;;
  9579                           
  9580                           	psect	text21
  9581   005B32                     __ptext21:
  9582                           	callstack 0
  9583   005B32                     _pad:
  9584                           	callstack 23
  9585   005B32                     
  9586                           ;C:\Program Files\Microchip\xc8\v3.00\pic\sources\c99\common\doprnt.c: 193: static void 
      +                          pad(FILE *fp, char *buf, int p);C:\Program Files\Microchip\xc8\v3.00\pic\sources\c99\com
      +                          mon\doprnt.c: 194: {;C:\Program Files\Microchip\xc8\v3.00\pic\sources\c99\common\doprnt.
      +                          c: 195:     int i;;C:\Program Files\Microchip\xc8\v3.00\pic\sources\c99\common\doprnt.c:
      +                           199:     if (flags & (1 << 0)) {
  9587   005B32  A05E               	btfss	_flags^0,0,c
  9588   005B34  EF9E  F02D         	goto	u3611
  9589   005B38  EFA0  F02D         	goto	u3610
  9590   005B3C                     u3611:
  9591   005B3C  EFA8  F02D         	goto	l3535
  9592   005B40                     u3610:
  9593   005B40                     
  9594                           ;C:\Program Files\Microchip\xc8\v3.00\pic\sources\c99\common\doprnt.c: 200:         fput
      +                          s((const char *)buf, fp);
  9595   005B40  C010  F009         	movff	pad@buf,fputs@s
  9596   005B44  C011  F00A         	movff	pad@buf+1,fputs@s+1
  9597   005B48  C00F  F00B         	movff	pad@fp,fputs@fp
  9598   005B4C  EC9D  F02F         	call	_fputs	;wreg free
  9599   005B50                     l3535:
  9600                           
  9601                           ;C:\Program Files\Microchip\xc8\v3.00\pic\sources\c99\common\doprnt.c: 205:  if (p < 0) 
      +                          {
  9602   005B50  BE13               	btfsc	(pad@p+1)^0,7,c
  9603   005B52  EFAF  F02D         	goto	u3620
  9604   005B56  EFAD  F02D         	goto	u3621
  9605   005B5A                     u3621:
  9606   005B5A  EFB3  F02D         	goto	l891
  9607   005B5E                     u3620:
  9608   005B5E                     
  9609                           ;C:\Program Files\Microchip\xc8\v3.00\pic\sources\c99\common\doprnt.c: 206:   p = 0;
  9610   005B5E  0E00               	movlw	0
  9611   005B60  6E13               	movwf	(pad@p+1)^0,c
  9612   005B62  0E00               	movlw	0
  9613   005B64  6E12               	movwf	pad@p^0,c
  9614   005B66                     l891:
  9615                           
  9616                           ;C:\Program Files\Microchip\xc8\v3.00\pic\sources\c99\common\doprnt.c: 208:     i = 0;
  9617   005B66  0E00               	movlw	0
  9618   005B68  6E16               	movwf	(pad@i+1)^0,c
  9619   005B6A  0E00               	movlw	0
  9620   005B6C  6E15               	movwf	pad@i^0,c
  9621                           
  9622                           ;C:\Program Files\Microchip\xc8\v3.00\pic\sources\c99\common\doprnt.c: 209:     while (i
      +                           < p) {
  9623   005B6E  EFC3  F02D         	goto	l3543
  9624   005B72                     l3539:
  9625                           
  9626                           ;C:\Program Files\Microchip\xc8\v3.00\pic\sources\c99\common\doprnt.c: 210:         fput
      +                          c(' ', fp);
  9627   005B72  0E00               	movlw	0
  9628   005B74  6E02               	movwf	(fputc@c+1)^0,c
  9629   005B76  0E20               	movlw	32
  9630   005B78  6E01               	movwf	fputc@c^0,c
  9631   005B7A  C00F  F003         	movff	pad@fp,fputc@fp
  9632   005B7E  ECEE  F02C         	call	_fputc	;wreg free
  9633   005B82                     
  9634                           ;C:\Program Files\Microchip\xc8\v3.00\pic\sources\c99\common\doprnt.c: 211:         ++i;
  9635   005B82  4A15               	infsnz	pad@i^0,f,c
  9636   005B84  2A16               	incf	(pad@i+1)^0,f,c
  9637   005B86                     l3543:
  9638                           
  9639                           ;C:\Program Files\Microchip\xc8\v3.00\pic\sources\c99\common\doprnt.c: 209:     while (i
      +                           < p) {
  9640   005B86  5012               	movf	pad@p^0,w,c
  9641   005B88  5C15               	subwf	pad@i^0,w,c
  9642   005B8A  5016               	movf	(pad@i+1)^0,w,c
  9643   005B8C  0A80               	xorlw	128
  9644   005B8E  6E14               	movwf	??_pad^0,c
  9645   005B90  5013               	movf	(pad@p+1)^0,w,c
  9646   005B92  0A80               	xorlw	128
  9647   005B94  5814               	subwfb	??_pad^0,w,c
  9648   005B96  A0D8               	btfss	status,0,c
  9649   005B98  EFD0  F02D         	goto	u3631
  9650   005B9C  EFD2  F02D         	goto	u3630
  9651   005BA0                     u3631:
  9652   005BA0  EFB9  F02D         	goto	l3539
  9653   005BA4                     u3630:
  9654   005BA4                     
  9655                           ;C:\Program Files\Microchip\xc8\v3.00\pic\sources\c99\common\doprnt.c: 216:     if (!(fl
      +                          ags & (1 << 0))) {
  9656   005BA4  B05E               	btfsc	_flags^0,0,c
  9657   005BA6  EFD7  F02D         	goto	u3641
  9658   005BAA  EFD9  F02D         	goto	u3640
  9659   005BAE                     u3641:
  9660   005BAE  EFE1  F02D         	goto	l896
  9661   005BB2                     u3640:
  9662   005BB2                     
  9663                           ;C:\Program Files\Microchip\xc8\v3.00\pic\sources\c99\common\doprnt.c: 218:         fput
      +                          s((const char *)buf, fp);
  9664   005BB2  C010  F009         	movff	pad@buf,fputs@s
  9665   005BB6  C011  F00A         	movff	pad@buf+1,fputs@s+1
  9666   005BBA  C00F  F00B         	movff	pad@fp,fputs@fp
  9667   005BBE  EC9D  F02F         	call	_fputs	;wreg free
  9668   005BC2                     l896:
  9669   005BC2  0012               	return		;funcret
  9670   005BC4                     __end_of_pad:
  9671                           	callstack 0
  9672                           
  9673 ;; *************** function _fputs *****************
  9674 ;; Defined at:
  9675 ;;		line 8 in file "C:\Program Files\Microchip\xc8\v3.00\pic\sources\c99\common\nf_fputs.c"
  9676 ;; Parameters:    Size  Location     Type
  9677 ;;  s               2    8[COMRAM] PTR const unsigned char 
  9678 ;;		 -> dbuf(80), 
  9679 ;;  fp              1   10[COMRAM] PTR struct _IO_FILE
  9680 ;;		 -> sprintf@f(11), 
  9681 ;; Auto vars:     Size  Location     Type
  9682 ;;  i               2   12[COMRAM] int 
  9683 ;;  c               1   11[COMRAM] unsigned char 
  9684 ;; Return value:  Size  Location     Type
  9685 ;;                  2    8[COMRAM] int 
  9686 ;; Registers used:
  9687 ;;		wreg, fsr1l, fsr1h, fsr2l, fsr2h, status,2, status,0, cstack
  9688 ;; Tracked objects:
  9689 ;;		On entry : 0/0
  9690 ;;		On exit  : 0/0
  9691 ;;		Unchanged: 0/0
  9692 ;; Data sizes:     COMRAM   BANK0   BANK1   BANK2   BANK3   BANK4   BANK5   BANK6   BANK7   BANK8   BANK9  BANK10  BANK1
      +1  BANK12  BANK13  BANK14  BANK15  BANK16  BANK17  BANK18  BANK19  BANK20  BANK21  BANK22  BANK23  BANK24  BANK25  BANK2
      +6  BANK27  BANK28  BANK29  BANK30  BANK31
  9693 ;;      Params:         3       0       0       0       0       0       0       0       0       0       0       0       
      +0       0       0       0       0       0       0       0       0       0       0       0       0       0       0       
      +0       0       0       0       0       0
  9694 ;;      Locals:         3       0       0       0       0       0       0       0       0       0       0       0       
      +0       0       0       0       0       0       0       0       0       0       0       0       0       0       0       
      +0       0       0       0       0       0
  9695 ;;      Temps:          0       0       0       0       0       0       0       0       0       0       0       0       
      +0       0       0       0       0       0       0       0       0       0       0       0       0       0       0       
      +0       0       0       0       0       0
  9696 ;;      Totals:         6       0       0       0       0       0       0       0       0       0       0       0       
      +0       0       0       0       0       0       0       0       0       0       0       0       0       0       0       
      +0       0       0       0       0       0
  9697 ;;Total ram usage:        6 bytes
  9698 ;; Hardware stack levels used: 1
  9699 ;; Hardware stack levels required when called: 2
  9700 ;; This function calls:
  9701 ;;		_fputc
  9702 ;; This function is called by:
  9703 ;;		_pad
  9704 ;; This function uses a non-reentrant model
  9705 ;;
  9706                           
  9707                           	psect	text22
  9708   005F3A                     __ptext22:
  9709                           	callstack 0
  9710   005F3A                     _fputs:
  9711                           	callstack 23
  9712   005F3A  0E00               	movlw	0
  9713   005F3C  6E0E               	movwf	(fputs@i+1)^0,c
  9714   005F3E  0E00               	movlw	0
  9715   005F40  6E0D               	movwf	fputs@i^0,c
  9716   005F42  EFAC  F02F         	goto	l3089
  9717   005F46                     l3085:
  9718   005F46  C00C  F001         	movff	fputs@c,fputc@c
  9719   005F4A  6A02               	clrf	(fputc@c+1)^0,c
  9720   005F4C  C00B  F003         	movff	fputs@fp,fputc@fp
  9721   005F50  ECEE  F02C         	call	_fputc	;wreg free
  9722   005F54  4A0D               	infsnz	fputs@i^0,f,c
  9723   005F56  2A0E               	incf	(fputs@i+1)^0,f,c
  9724   005F58                     l3089:
  9725   005F58  500D               	movf	fputs@i^0,w,c
  9726   005F5A  2409               	addwf	fputs@s^0,w,c
  9727   005F5C  6ED9               	movwf	fsr2l,c
  9728   005F5E  500E               	movf	(fputs@i+1)^0,w,c
  9729   005F60  200A               	addwfc	(fputs@s+1)^0,w,c
  9730   005F62  6EDA               	movwf	fsr2h,c
  9731   005F64  50DF               	movf	indf2,w,c
  9732   005F66  6E0C               	movwf	fputs@c^0,c
  9733   005F68  500C               	movf	fputs@c^0,w,c
  9734   005F6A  A4D8               	btfss	status,2,c
  9735   005F6C  EFBA  F02F         	goto	u2901
  9736   005F70  EFBC  F02F         	goto	u2900
  9737   005F74                     u2901:
  9738   005F74  EFA3  F02F         	goto	l3085
  9739   005F78                     u2900:
  9740   005F78  0012               	return		;funcret
  9741   005F7A                     __end_of_fputs:
  9742                           	callstack 0
  9743                           
  9744 ;; *************** function _fputc *****************
  9745 ;; Defined at:
  9746 ;;		line 8 in file "C:\Program Files\Microchip\xc8\v3.00\pic\sources\c99\common\nf_fputc.c"
  9747 ;; Parameters:    Size  Location     Type
  9748 ;;  c               2    0[COMRAM] int 
  9749 ;;  fp              1    2[COMRAM] PTR struct _IO_FILE
  9750 ;;		 -> sprintf@f(11), 
  9751 ;; Auto vars:     Size  Location     Type
  9752 ;;		None
  9753 ;; Return value:  Size  Location     Type
  9754 ;;                  2    0[COMRAM] int 
  9755 ;; Registers used:
  9756 ;;		wreg, fsr1l, fsr1h, fsr2l, fsr2h, status,2, status,0, cstack
  9757 ;; Tracked objects:
  9758 ;;		On entry : 0/0
  9759 ;;		On exit  : 0/0
  9760 ;;		Unchanged: 0/0
  9761 ;; Data sizes:     COMRAM   BANK0   BANK1   BANK2   BANK3   BANK4   BANK5   BANK6   BANK7   BANK8   BANK9  BANK10  BANK1
      +1  BANK12  BANK13  BANK14  BANK15  BANK16  BANK17  BANK18  BANK19  BANK20  BANK21  BANK22  BANK23  BANK24  BANK25  BANK2
      +6  BANK27  BANK28  BANK29  BANK30  BANK31
  9762 ;;      Params:         3       0       0       0       0       0       0       0       0       0       0       0       
      +0       0       0       0       0       0       0       0       0       0       0       0       0       0       0       
      +0       0       0       0       0       0
  9763 ;;      Locals:         0       0       0       0       0       0       0       0       0       0       0       0       
      +0       0       0       0       0       0       0       0       0       0       0       0       0       0       0       
      +0       0       0       0       0       0
  9764 ;;      Temps:          5       0       0       0       0       0       0       0       0       0       0       0       
      +0       0       0       0       0       0       0       0       0       0       0       0       0       0       0       
      +0       0       0       0       0       0
  9765 ;;      Totals:         8       0       0       0       0       0       0       0       0       0       0       0       
      +0       0       0       0       0       0       0       0       0       0       0       0       0       0       0       
      +0       0       0       0       0       0
  9766 ;;Total ram usage:        8 bytes
  9767 ;; Hardware stack levels used: 1
  9768 ;; Hardware stack levels required when called: 1
  9769 ;; This function calls:
  9770 ;;		_putch
  9771 ;; This function is called by:
  9772 ;;		_pad
  9773 ;;		_vfpfcnvrt
  9774 ;;		_fputs
  9775 ;; This function uses a non-reentrant model
  9776 ;;
  9777                           
  9778                           	psect	text23
  9779   0059DC                     __ptext23:
  9780                           	callstack 0
  9781   0059DC                     _fputc:
  9782                           	callstack 26
  9783   0059DC  5003               	movf	fputc@fp^0,w,c
  9784   0059DE  B4D8               	btfsc	status,2,c
  9785   0059E0  EFF4  F02C         	goto	u2471
  9786   0059E4  EFF6  F02C         	goto	u2470
  9787   0059E8                     u2471:
  9788   0059E8  EFFE  F02C         	goto	l2879
  9789   0059EC                     u2470:
  9790   0059EC  5003               	movf	fputc@fp^0,w,c
  9791   0059EE  A4D8               	btfss	status,2,c
  9792   0059F0  EFFC  F02C         	goto	u2481
  9793   0059F4  EFFE  F02C         	goto	u2480
  9794   0059F8                     u2481:
  9795   0059F8  EF03  F02D         	goto	l2881
  9796   0059FC                     u2480:
  9797   0059FC                     l2879:
  9798   0059FC  5001               	movf	fputc@c^0,w,c
  9799   0059FE  EC94  F030         	call	_putch
  9800   005A02  EF43  F02D         	goto	l1061
  9801   005A06                     l2881:
  9802   005A06  5003               	movf	fputc@fp^0,w,c
  9803   005A08  6ED9               	movwf	fsr2l,c
  9804   005A0A  6ADA               	clrf	fsr2h,c
  9805   005A0C  0E09               	movlw	9
  9806   005A0E  26D9               	addwf	fsr2l,f,c
  9807   005A10  50DE               	movf	postinc2,w,c
  9808   005A12  10DE               	iorwf	postinc2,w,c
  9809   005A14  B4D8               	btfsc	status,2,c
  9810   005A16  EF0F  F02D         	goto	u2491
  9811   005A1A  EF11  F02D         	goto	u2490
  9812   005A1E                     u2491:
  9813   005A1E  EF2A  F02D         	goto	l2885
  9814   005A22                     u2490:
  9815   005A22  5003               	movf	fputc@fp^0,w,c
  9816   005A24  6ED9               	movwf	fsr2l,c
  9817   005A26  6ADA               	clrf	fsr2h,c
  9818   005A28  0E09               	movlw	9
  9819   005A2A  26D9               	addwf	fsr2l,f,c
  9820   005A2C  5003               	movf	fputc@fp^0,w,c
  9821   005A2E  6EE1               	movwf	fsr1l,c
  9822   005A30  6AE2               	clrf	fsr1h,c
  9823   005A32  0E02               	movlw	2
  9824   005A34  26E1               	addwf	fsr1l,f,c
  9825   005A36  50DE               	movf	postinc2,w,c
  9826   005A38  5CE6               	subwf	postinc1,w,c
  9827   005A3A  50E6               	movf	postinc1,w,c
  9828   005A3C  0A80               	xorlw	128
  9829   005A3E  6E08               	movwf	(??_fputc+4)^0,c
  9830   005A40  50DE               	movf	postinc2,w,c
  9831   005A42  0A80               	xorlw	128
  9832   005A44  5808               	subwfb	(??_fputc+4)^0,w,c
  9833   005A46  B0D8               	btfsc	status,0,c
  9834   005A48  EF28  F02D         	goto	u2501
  9835   005A4C  EF2A  F02D         	goto	u2500
  9836   005A50                     u2501:
  9837   005A50  EF43  F02D         	goto	l1061
  9838   005A54                     u2500:
  9839   005A54                     l2885:
  9840   005A54  5003               	movf	fputc@fp^0,w,c
  9841   005A56  6ED9               	movwf	fsr2l,c
  9842   005A58  6ADA               	clrf	fsr2h,c
  9843   005A5A  0E02               	movlw	2
  9844   005A5C  26D9               	addwf	fsr2l,f,c
  9845   005A5E  50DF               	movf	indf2,w,c
  9846   005A60  6E04               	movwf	??_fputc^0,c
  9847   005A62  5003               	movf	fputc@fp^0,w,c
  9848   005A64  6ED9               	movwf	fsr2l,c
  9849   005A66  6ADA               	clrf	fsr2h,c
  9850   005A68  50DF               	movf	indf2,w,c
  9851   005A6A  2404               	addwf	??_fputc^0,w,c
  9852   005A6C  6ED9               	movwf	fsr2l,c
  9853   005A6E  6ADA               	clrf	fsr2h,c
  9854   005A70  0060  F007  FFDF   	movff	fputc@c,indf2
  9855   005A76  5003               	movf	fputc@fp^0,w,c
  9856   005A78  6ED9               	movwf	fsr2l,c
  9857   005A7A  6ADA               	clrf	fsr2h,c
  9858   005A7C  0E02               	movlw	2
  9859   005A7E  26D9               	addwf	fsr2l,f,c
  9860   005A80  2ADE               	incf	postinc2,f,c
  9861   005A82  0E00               	movlw	0
  9862   005A84  22DD               	addwfc	postdec2,f,c
  9863   005A86                     l1061:
  9864   005A86  0012               	return		;funcret
  9865   005A88                     __end_of_fputc:
  9866                           	callstack 0
  9867                           
  9868 ;; *************** function _putch *****************
  9869 ;; Defined at:
  9870 ;;		line 7 in file "C:\Program Files\Microchip\xc8\v3.00\pic\sources\c99\common\putch.c"
  9871 ;; Parameters:    Size  Location     Type
  9872 ;;  c               1    wreg     unsigned char 
  9873 ;; Auto vars:     Size  Location     Type
  9874 ;;  c               1    0[COMRAM] unsigned char 
  9875 ;; Return value:  Size  Location     Type
  9876 ;;                  1    wreg      void 
  9877 ;; Registers used:
  9878 ;;		wreg
  9879 ;; Tracked objects:
  9880 ;;		On entry : 0/0
  9881 ;;		On exit  : 0/0
  9882 ;;		Unchanged: 0/0
  9883 ;; Data sizes:     COMRAM   BANK0   BANK1   BANK2   BANK3   BANK4   BANK5   BANK6   BANK7   BANK8   BANK9  BANK10  BANK1
      +1  BANK12  BANK13  BANK14  BANK15  BANK16  BANK17  BANK18  BANK19  BANK20  BANK21  BANK22  BANK23  BANK24  BANK25  BANK2
      +6  BANK27  BANK28  BANK29  BANK30  BANK31
  9884 ;;      Params:         0       0       0       0       0       0       0       0       0       0       0       0       
      +0       0       0       0       0       0       0       0       0       0       0       0       0       0       0       
      +0       0       0       0       0       0
  9885 ;;      Locals:         0       0       0       0       0       0       0       0       0       0       0       0       
      +0       0       0       0       0       0       0       0       0       0       0       0       0       0       0       
      +0       0       0       0       0       0
  9886 ;;      Temps:          0       0       0       0       0       0       0       0       0       0       0       0       
      +0       0       0       0       0       0       0       0       0       0       0       0       0       0       0       
      +0       0       0       0       0       0
  9887 ;;      Totals:         0       0       0       0       0       0       0       0       0       0       0       0       
      +0       0       0       0       0       0       0       0       0       0       0       0       0       0       0       
      +0       0       0       0       0       0
  9888 ;;Total ram usage:        0 bytes
  9889 ;; Hardware stack levels used: 1
  9890 ;; This function calls:
  9891 ;;		Nothing
  9892 ;; This function is called by:
  9893 ;;		_fputc
  9894 ;; This function uses a non-reentrant model
  9895 ;;
  9896                           
  9897                           	psect	text24
  9898   006128                     __ptext24:
  9899                           	callstack 0
  9900   006128                     _putch:
  9901                           	callstack 26
  9902   006128  0012               	return		;funcret
  9903   00612A                     __end_of_putch:
  9904                           	callstack 0
  9905                           
  9906 ;; *************** function _abs *****************
  9907 ;; Defined at:
  9908 ;;		line 1 in file "C:\Program Files\Microchip\xc8\v3.00\pic\sources\c99\common\abs.c"
  9909 ;; Parameters:    Size  Location     Type
  9910 ;;  a               2   24[COMRAM] int 
  9911 ;; Auto vars:     Size  Location     Type
  9912 ;;		None
  9913 ;; Return value:  Size  Location     Type
  9914 ;;                  2   24[COMRAM] int 
  9915 ;; Registers used:
  9916 ;;		wreg, status,2, status,0
  9917 ;; Tracked objects:
  9918 ;;		On entry : 0/0
  9919 ;;		On exit  : 0/0
  9920 ;;		Unchanged: 0/0
  9921 ;; Data sizes:     COMRAM   BANK0   BANK1   BANK2   BANK3   BANK4   BANK5   BANK6   BANK7   BANK8   BANK9  BANK10  BANK1
      +1  BANK12  BANK13  BANK14  BANK15  BANK16  BANK17  BANK18  BANK19  BANK20  BANK21  BANK22  BANK23  BANK24  BANK25  BANK2
      +6  BANK27  BANK28  BANK29  BANK30  BANK31
  9922 ;;      Params:         2       0       0       0       0       0       0       0       0       0       0       0       
      +0       0       0       0       0       0       0       0       0       0       0       0       0       0       0       
      +0       0       0       0       0       0
  9923 ;;      Locals:         0       0       0       0       0       0       0       0       0       0       0       0       
      +0       0       0       0       0       0       0       0       0       0       0       0       0       0       0       
      +0       0       0       0       0       0
  9924 ;;      Temps:          2       0       0       0       0       0       0       0       0       0       0       0       
      +0       0       0       0       0       0       0       0       0       0       0       0       0       0       0       
      +0       0       0       0       0       0
  9925 ;;      Totals:         4       0       0       0       0       0       0       0       0       0       0       0       
      +0       0       0       0       0       0       0       0       0       0       0       0       0       0       0       
      +0       0       0       0       0       0
  9926 ;;Total ram usage:        4 bytes
  9927 ;; Hardware stack levels used: 1
  9928 ;; This function calls:
  9929 ;;		Nothing
  9930 ;; This function is called by:
  9931 ;;		_dtoa
  9932 ;; This function uses a non-reentrant model
  9933 ;;
  9934                           
  9935                           	psect	text25
  9936   00605E                     __ptext25:
  9937                           	callstack 0
  9938   00605E                     _abs:
  9939                           	callstack 26
  9940   00605E  BE1A               	btfsc	(abs@a+1)^0,7,c
  9941   006060  EF34  F030         	goto	u3651
  9942   006064  EF36  F030         	goto	u3650
  9943   006068                     u3651:
  9944   006068  EF3C  F030         	goto	l1020
  9945   00606C                     u3650:
  9946   00606C  C019  F019         	movff	abs@a,?_abs
  9947   006070  C01A  F01A         	movff	abs@a+1,?_abs+1
  9948   006074  EF48  F030         	goto	l1023
  9949   006078                     l1020:
  9950   006078  C019  F01B         	movff	abs@a,??_abs
  9951   00607C  C01A  F01C         	movff	abs@a+1,??_abs+1
  9952   006080  1E1B               	comf	??_abs^0,f,c
  9953   006082  1E1C               	comf	(??_abs+1)^0,f,c
  9954   006084  4A1B               	infsnz	??_abs^0,f,c
  9955   006086  2A1C               	incf	(??_abs+1)^0,f,c
  9956   006088  C01B  F019         	movff	??_abs,?_abs
  9957   00608C  C01C  F01A         	movff	??_abs+1,?_abs+1
  9958   006090                     l1023:
  9959   006090  0012               	return		;funcret
  9960   006092                     __end_of_abs:
  9961                           	callstack 0
  9962                           
  9963 ;; *************** function ___awmod *****************
  9964 ;; Defined at:
  9965 ;;		line 7 in file "C:\Program Files\Microchip\xc8\v3.00\pic\sources\c99\common\awmod.c"
  9966 ;; Parameters:    Size  Location     Type
  9967 ;;  dividend        2   18[COMRAM] int 
  9968 ;;  divisor         2   20[COMRAM] int 
  9969 ;; Auto vars:     Size  Location     Type
  9970 ;;  sign            1   23[COMRAM] unsigned char 
  9971 ;;  counter         1   22[COMRAM] unsigned char 
  9972 ;; Return value:  Size  Location     Type
  9973 ;;                  2   18[COMRAM] int 
  9974 ;; Registers used:
  9975 ;;		wreg, status,2, status,0
  9976 ;; Tracked objects:
  9977 ;;		On entry : 0/0
  9978 ;;		On exit  : 0/0
  9979 ;;		Unchanged: 0/0
  9980 ;; Data sizes:     COMRAM   BANK0   BANK1   BANK2   BANK3   BANK4   BANK5   BANK6   BANK7   BANK8   BANK9  BANK10  BANK1
      +1  BANK12  BANK13  BANK14  BANK15  BANK16  BANK17  BANK18  BANK19  BANK20  BANK21  BANK22  BANK23  BANK24  BANK25  BANK2
      +6  BANK27  BANK28  BANK29  BANK30  BANK31
  9981 ;;      Params:         4       0       0       0       0       0       0       0       0       0       0       0       
      +0       0       0       0       0       0       0       0       0       0       0       0       0       0       0       
      +0       0       0       0       0       0
  9982 ;;      Locals:         2       0       0       0       0       0       0       0       0       0       0       0       
      +0       0       0       0       0       0       0       0       0       0       0       0       0       0       0       
      +0       0       0       0       0       0
  9983 ;;      Temps:          0       0       0       0       0       0       0       0       0       0       0       0       
      +0       0       0       0       0       0       0       0       0       0       0       0       0       0       0       
      +0       0       0       0       0       0
  9984 ;;      Totals:         6       0       0       0       0       0       0       0       0       0       0       0       
      +0       0       0       0       0       0       0       0       0       0       0       0       0       0       0       
      +0       0       0       0       0       0
  9985 ;;Total ram usage:        6 bytes
  9986 ;; Hardware stack levels used: 1
  9987 ;; This function calls:
  9988 ;;		Nothing
  9989 ;; This function is called by:
  9990 ;;		_main
  9991 ;;		_dtoa
  9992 ;; This function uses a non-reentrant model
  9993 ;;
  9994                           
  9995                           	psect	text26
  9996   00592E                     __ptext26:
  9997                           	callstack 0
  9998   00592E                     ___awmod:
  9999                           	callstack 26
 10000   00592E  6A18               	clrf	___awmod@sign^0,c
 10001   005930  BE14               	btfsc	(___awmod@dividend+1)^0,7,c
 10002   005932  EF9F  F02C         	goto	u3390
 10003   005936  EF9D  F02C         	goto	u3391
 10004   00593A                     u3391:
 10005   00593A  EFA5  F02C         	goto	l3413
 10006   00593E                     u3390:
 10007   00593E  6C13               	negf	___awmod@dividend^0,c
 10008   005940  1E14               	comf	(___awmod@dividend+1)^0,f,c
 10009   005942  B0D8               	btfsc	status,0,c
 10010   005944  2A14               	incf	(___awmod@dividend+1)^0,f,c
 10011   005946  0E01               	movlw	1
 10012   005948  6E18               	movwf	___awmod@sign^0,c
 10013   00594A                     l3413:
 10014   00594A  BE16               	btfsc	(___awmod@divisor+1)^0,7,c
 10015   00594C  EFAC  F02C         	goto	u3400
 10016   005950  EFAA  F02C         	goto	u3401
 10017   005954                     u3401:
 10018   005954  EFB0  F02C         	goto	l3417
 10019   005958                     u3400:
 10020   005958  6C15               	negf	___awmod@divisor^0,c
 10021   00595A  1E16               	comf	(___awmod@divisor+1)^0,f,c
 10022   00595C  B0D8               	btfsc	status,0,c
 10023   00595E  2A16               	incf	(___awmod@divisor+1)^0,f,c
 10024   005960                     l3417:
 10025   005960  5015               	movf	___awmod@divisor^0,w,c
 10026   005962  1016               	iorwf	(___awmod@divisor+1)^0,w,c
 10027   005964  B4D8               	btfsc	status,2,c
 10028   005966  EFB7  F02C         	goto	u3411
 10029   00596A  EFB9  F02C         	goto	u3410
 10030   00596E                     u3411:
 10031   00596E  EFDD  F02C         	goto	l3433
 10032   005972                     u3410:
 10033   005972  0E01               	movlw	1
 10034   005974  6E17               	movwf	___awmod@counter^0,c
 10035   005976  EFC1  F02C         	goto	l3423
 10036   00597A                     l3421:
 10037   00597A  90D8               	bcf	status,0,c
 10038   00597C  3615               	rlcf	___awmod@divisor^0,f,c
 10039   00597E  3616               	rlcf	(___awmod@divisor+1)^0,f,c
 10040   005980  2A17               	incf	___awmod@counter^0,f,c
 10041   005982                     l3423:
 10042   005982  AE16               	btfss	(___awmod@divisor+1)^0,7,c
 10043   005984  EFC6  F02C         	goto	u3421
 10044   005988  EFC8  F02C         	goto	u3420
 10045   00598C                     u3421:
 10046   00598C  EFBD  F02C         	goto	l3421
 10047   005990                     u3420:
 10048   005990                     l3425:
 10049   005990  5015               	movf	___awmod@divisor^0,w,c
 10050   005992  5C13               	subwf	___awmod@dividend^0,w,c
 10051   005994  5016               	movf	(___awmod@divisor+1)^0,w,c
 10052   005996  5814               	subwfb	(___awmod@dividend+1)^0,w,c
 10053   005998  A0D8               	btfss	status,0,c
 10054   00599A  EFD1  F02C         	goto	u3431
 10055   00599E  EFD3  F02C         	goto	u3430
 10056   0059A2                     u3431:
 10057   0059A2  EFD7  F02C         	goto	l3429
 10058   0059A6                     u3430:
 10059   0059A6  5015               	movf	___awmod@divisor^0,w,c
 10060   0059A8  5E13               	subwf	___awmod@dividend^0,f,c
 10061   0059AA  5016               	movf	(___awmod@divisor+1)^0,w,c
 10062   0059AC  5A14               	subwfb	(___awmod@dividend+1)^0,f,c
 10063   0059AE                     l3429:
 10064   0059AE  90D8               	bcf	status,0,c
 10065   0059B0  3216               	rrcf	(___awmod@divisor+1)^0,f,c
 10066   0059B2  3215               	rrcf	___awmod@divisor^0,f,c
 10067   0059B4  2E17               	decfsz	___awmod@counter^0,f,c
 10068   0059B6  EFC8  F02C         	goto	l3425
 10069   0059BA                     l3433:
 10070   0059BA  5018               	movf	___awmod@sign^0,w,c
 10071   0059BC  B4D8               	btfsc	status,2,c
 10072   0059BE  EFE3  F02C         	goto	u3441
 10073   0059C2  EFE5  F02C         	goto	u3440
 10074   0059C6                     u3441:
 10075   0059C6  EFE9  F02C         	goto	l3437
 10076   0059CA                     u3440:
 10077   0059CA  6C13               	negf	___awmod@dividend^0,c
 10078   0059CC  1E14               	comf	(___awmod@dividend+1)^0,f,c
 10079   0059CE  B0D8               	btfsc	status,0,c
 10080   0059D0  2A14               	incf	(___awmod@dividend+1)^0,f,c
 10081   0059D2                     l3437:
 10082   0059D2  C013  F013         	movff	___awmod@dividend,?___awmod
 10083   0059D6  C014  F014         	movff	___awmod@dividend+1,?___awmod+1
 10084   0059DA  0012               	return		;funcret
 10085   0059DC                     __end_of___awmod:
 10086                           	callstack 0
 10087                           
 10088 ;; *************** function ___awdiv *****************
 10089 ;; Defined at:
 10090 ;;		line 7 in file "C:\Program Files\Microchip\xc8\v3.00\pic\sources\c99\common\awdiv.c"
 10091 ;; Parameters:    Size  Location     Type
 10092 ;;  dividend        2    0[COMRAM] int 
 10093 ;;  divisor         2    2[COMRAM] int 
 10094 ;; Auto vars:     Size  Location     Type
 10095 ;;  quotient        2    6[COMRAM] int 
 10096 ;;  sign            1    5[COMRAM] unsigned char 
 10097 ;;  counter         1    4[COMRAM] unsigned char 
 10098 ;; Return value:  Size  Location     Type
 10099 ;;                  2    0[COMRAM] int 
 10100 ;; Registers used:
 10101 ;;		wreg, status,2, status,0
 10102 ;; Tracked objects:
 10103 ;;		On entry : 0/0
 10104 ;;		On exit  : 0/0
 10105 ;;		Unchanged: 0/0
 10106 ;; Data sizes:     COMRAM   BANK0   BANK1   BANK2   BANK3   BANK4   BANK5   BANK6   BANK7   BANK8   BANK9  BANK10  BANK1
      +1  BANK12  BANK13  BANK14  BANK15  BANK16  BANK17  BANK18  BANK19  BANK20  BANK21  BANK22  BANK23  BANK24  BANK25  BANK2
      +6  BANK27  BANK28  BANK29  BANK30  BANK31
 10107 ;;      Params:         4       0       0       0       0       0       0       0       0       0       0       0       
      +0       0       0       0       0       0       0       0       0       0       0       0       0       0       0       
      +0       0       0       0       0       0
 10108 ;;      Locals:         4       0       0       0       0       0       0       0       0       0       0       0       
      +0       0       0       0       0       0       0       0       0       0       0       0       0       0       0       
      +0       0       0       0       0       0
 10109 ;;      Temps:          0       0       0       0       0       0       0       0       0       0       0       0       
      +0       0       0       0       0       0       0       0       0       0       0       0       0       0       0       
      +0       0       0       0       0       0
 10110 ;;      Totals:         8       0       0       0       0       0       0       0       0       0       0       0       
      +0       0       0       0       0       0       0       0       0       0       0       0       0       0       0       
      +0       0       0       0       0       0
 10111 ;;Total ram usage:        8 bytes
 10112 ;; Hardware stack levels used: 1
 10113 ;; This function calls:
 10114 ;;		Nothing
 10115 ;; This function is called by:
 10116 ;;		_dtoa
 10117 ;; This function uses a non-reentrant model
 10118 ;;
 10119                           
 10120                           	psect	text27
 10121   0057B4                     __ptext27:
 10122                           	callstack 0
 10123   0057B4                     ___awdiv:
 10124                           	callstack 26
 10125   0057B4  6A06               	clrf	___awdiv@sign^0,c
 10126   0057B6  BE04               	btfsc	(___awdiv@divisor+1)^0,7,c
 10127   0057B8  EFE2  F02B         	goto	u3330
 10128   0057BC  EFE0  F02B         	goto	u3331
 10129   0057C0                     u3331:
 10130   0057C0  EFE8  F02B         	goto	l3369
 10131   0057C4                     u3330:
 10132   0057C4  6C03               	negf	___awdiv@divisor^0,c
 10133   0057C6  1E04               	comf	(___awdiv@divisor+1)^0,f,c
 10134   0057C8  B0D8               	btfsc	status,0,c
 10135   0057CA  2A04               	incf	(___awdiv@divisor+1)^0,f,c
 10136   0057CC  0E01               	movlw	1
 10137   0057CE  6E06               	movwf	___awdiv@sign^0,c
 10138   0057D0                     l3369:
 10139   0057D0  BE02               	btfsc	(___awdiv@dividend+1)^0,7,c
 10140   0057D2  EFEF  F02B         	goto	u3340
 10141   0057D6  EFED  F02B         	goto	u3341
 10142   0057DA                     u3341:
 10143   0057DA  EFF5  F02B         	goto	l3375
 10144   0057DE                     u3340:
 10145   0057DE  6C01               	negf	___awdiv@dividend^0,c
 10146   0057E0  1E02               	comf	(___awdiv@dividend+1)^0,f,c
 10147   0057E2  B0D8               	btfsc	status,0,c
 10148   0057E4  2A02               	incf	(___awdiv@dividend+1)^0,f,c
 10149   0057E6  0E01               	movlw	1
 10150   0057E8  1A06               	xorwf	___awdiv@sign^0,f,c
 10151   0057EA                     l3375:
 10152   0057EA  0E00               	movlw	0
 10153   0057EC  6E08               	movwf	(___awdiv@quotient+1)^0,c
 10154   0057EE  0E00               	movlw	0
 10155   0057F0  6E07               	movwf	___awdiv@quotient^0,c
 10156   0057F2  5003               	movf	___awdiv@divisor^0,w,c
 10157   0057F4  1004               	iorwf	(___awdiv@divisor+1)^0,w,c
 10158   0057F6  B4D8               	btfsc	status,2,c
 10159   0057F8  EF00  F02C         	goto	u3351
 10160   0057FC  EF02  F02C         	goto	u3350
 10161   005800                     u3351:
 10162   005800  EF2A  F02C         	goto	l3397
 10163   005804                     u3350:
 10164   005804  0E01               	movlw	1
 10165   005806  6E05               	movwf	___awdiv@counter^0,c
 10166   005808  EF0A  F02C         	goto	l3383
 10167   00580C                     l3381:
 10168   00580C  90D8               	bcf	status,0,c
 10169   00580E  3603               	rlcf	___awdiv@divisor^0,f,c
 10170   005810  3604               	rlcf	(___awdiv@divisor+1)^0,f,c
 10171   005812  2A05               	incf	___awdiv@counter^0,f,c
 10172   005814                     l3383:
 10173   005814  AE04               	btfss	(___awdiv@divisor+1)^0,7,c
 10174   005816  EF0F  F02C         	goto	u3361
 10175   00581A  EF11  F02C         	goto	u3360
 10176   00581E                     u3361:
 10177   00581E  EF06  F02C         	goto	l3381
 10178   005822                     u3360:
 10179   005822                     l3385:
 10180   005822  90D8               	bcf	status,0,c
 10181   005824  3607               	rlcf	___awdiv@quotient^0,f,c
 10182   005826  3608               	rlcf	(___awdiv@quotient+1)^0,f,c
 10183   005828  5003               	movf	___awdiv@divisor^0,w,c
 10184   00582A  5C01               	subwf	___awdiv@dividend^0,w,c
 10185   00582C  5004               	movf	(___awdiv@divisor+1)^0,w,c
 10186   00582E  5802               	subwfb	(___awdiv@dividend+1)^0,w,c
 10187   005830  A0D8               	btfss	status,0,c
 10188   005832  EF1D  F02C         	goto	u3371
 10189   005836  EF1F  F02C         	goto	u3370
 10190   00583A                     u3371:
 10191   00583A  EF24  F02C         	goto	l3393
 10192   00583E                     u3370:
 10193   00583E  5003               	movf	___awdiv@divisor^0,w,c
 10194   005840  5E01               	subwf	___awdiv@dividend^0,f,c
 10195   005842  5004               	movf	(___awdiv@divisor+1)^0,w,c
 10196   005844  5A02               	subwfb	(___awdiv@dividend+1)^0,f,c
 10197   005846  8007               	bsf	___awdiv@quotient^0,0,c
 10198   005848                     l3393:
 10199   005848  90D8               	bcf	status,0,c
 10200   00584A  3204               	rrcf	(___awdiv@divisor+1)^0,f,c
 10201   00584C  3203               	rrcf	___awdiv@divisor^0,f,c
 10202   00584E  2E05               	decfsz	___awdiv@counter^0,f,c
 10203   005850  EF11  F02C         	goto	l3385
 10204   005854                     l3397:
 10205   005854  5006               	movf	___awdiv@sign^0,w,c
 10206   005856  B4D8               	btfsc	status,2,c
 10207   005858  EF30  F02C         	goto	u3381
 10208   00585C  EF32  F02C         	goto	u3380
 10209   005860                     u3381:
 10210   005860  EF36  F02C         	goto	l3401
 10211   005864                     u3380:
 10212   005864  6C07               	negf	___awdiv@quotient^0,c
 10213   005866  1E08               	comf	(___awdiv@quotient+1)^0,f,c
 10214   005868  B0D8               	btfsc	status,0,c
 10215   00586A  2A08               	incf	(___awdiv@quotient+1)^0,f,c
 10216   00586C                     l3401:
 10217   00586C  C007  F001         	movff	___awdiv@quotient,?___awdiv
 10218   005870  C008  F002         	movff	___awdiv@quotient+1,?___awdiv+1
 10219   005874  0012               	return		;funcret
 10220   005876                     __end_of___awdiv:
 10221                           	callstack 0
 10222                           
 10223 ;; *************** function _rand *****************
 10224 ;; Defined at:
 10225 ;;		line 11 in file "C:\Program Files\Microchip\xc8\v3.00\pic\sources\c99\common\rand.c"
 10226 ;; Parameters:    Size  Location     Type
 10227 ;;		None
 10228 ;; Auto vars:     Size  Location     Type
 10229 ;;		None
 10230 ;; Return value:  Size  Location     Type
 10231 ;;                  2   12[COMRAM] int 
 10232 ;; Registers used:
 10233 ;;		wreg, status,2, status,0, cstack
 10234 ;; Tracked objects:
 10235 ;;		On entry : 0/0
 10236 ;;		On exit  : 0/0
 10237 ;;		Unchanged: 0/0
 10238 ;; Data sizes:     COMRAM   BANK0   BANK1   BANK2   BANK3   BANK4   BANK5   BANK6   BANK7   BANK8   BANK9  BANK10  BANK1
      +1  BANK12  BANK13  BANK14  BANK15  BANK16  BANK17  BANK18  BANK19  BANK20  BANK21  BANK22  BANK23  BANK24  BANK25  BANK2
      +6  BANK27  BANK28  BANK29  BANK30  BANK31
 10239 ;;      Params:         2       0       0       0       0       0       0       0       0       0       0       0       
      +0       0       0       0       0       0       0       0       0       0       0       0       0       0       0       
      +0       0       0       0       0       0
 10240 ;;      Locals:         0       0       0       0       0       0       0       0       0       0       0       0       
      +0       0       0       0       0       0       0       0       0       0       0       0       0       0       0       
      +0       0       0       0       0       0
 10241 ;;      Temps:          4       0       0       0       0       0       0       0       0       0       0       0       
      +0       0       0       0       0       0       0       0       0       0       0       0       0       0       0       
      +0       0       0       0       0       0
 10242 ;;      Totals:         6       0       0       0       0       0       0       0       0       0       0       0       
      +0       0       0       0       0       0       0       0       0       0       0       0       0       0       0       
      +0       0       0       0       0       0
 10243 ;;Total ram usage:        6 bytes
 10244 ;; Hardware stack levels used: 1
 10245 ;; Hardware stack levels required when called: 1
 10246 ;; This function calls:
 10247 ;;		___lmul
 10248 ;; This function is called by:
 10249 ;;		_main
 10250 ;; This function uses a non-reentrant model
 10251 ;;
 10252                           
 10253                           	psect	text28
 10254   005C36                     __ptext28:
 10255                           	callstack 0
 10256   005C36                     _rand:
 10257                           	callstack 29
 10258   005C36  C0B6  F001         	movff	_seed,___lmul@multiplier
 10259   005C3A  C0B7  F002         	movff	_seed+1,___lmul@multiplier+1
 10260   005C3E  C0B8  F003         	movff	_seed+2,___lmul@multiplier+2
 10261   005C42  C0B9  F004         	movff	_seed+3,___lmul@multiplier+3
 10262   005C46  0E2D               	movlw	45
 10263   005C48  6E05               	movwf	___lmul@multiplicand^0,c
 10264   005C4A  0E7F               	movlw	127
 10265   005C4C  6E06               	movwf	(___lmul@multiplicand+1)^0,c
 10266   005C4E  0E95               	movlw	149
 10267   005C50  6E07               	movwf	(___lmul@multiplicand+2)^0,c
 10268   005C52  0E4C               	movlw	76
 10269   005C54  6E08               	movwf	(___lmul@multiplicand+3)^0,c
 10270   005C56  EC52  F02E         	call	___lmul	;wreg free
 10271   005C5A  0E01               	movlw	1
 10272   005C5C  2401               	addwf	?___lmul^0,w,c
 10273   005C5E  0100               	movlb	0	; () banked
 10274   005C60  6FB6               	movwf	_seed& (0+255),b
 10275   005C62  0E00               	movlw	0
 10276   005C64  2002               	addwfc	(?___lmul+1)^0,w,c
 10277   005C66  6FB7               	movwf	(_seed+1)& (0+255),b
 10278   005C68  0E00               	movlw	0
 10279   005C6A  2003               	addwfc	(?___lmul+2)^0,w,c
 10280   005C6C  6FB8               	movwf	(_seed+2)& (0+255),b
 10281   005C6E  0E00               	movlw	0
 10282   005C70  2004               	addwfc	(?___lmul+3)^0,w,c
 10283   005C72  6FB9               	movwf	(_seed+3)& (0+255),b
 10284   005C74                     
 10285                           ; BSR set to: 0
 10286   005C74  C0B6  F00F         	movff	_seed,??_rand
 10287   005C78  C0B7  F010         	movff	_seed+1,??_rand+1
 10288   005C7C  C0B8  F011         	movff	_seed+2,??_rand+2
 10289   005C80  C0B9  F012         	movff	_seed+3,??_rand+3
 10290   005C84  0E12               	movlw	18
 10291   005C86  EF4A  F02E         	goto	u4440
 10292   005C8A                     u4445:
 10293   005C8A  90D8               	bcf	status,0,c
 10294   005C8C  3212               	rrcf	(??_rand+3)^0,f,c
 10295   005C8E  3211               	rrcf	(??_rand+2)^0,f,c
 10296   005C90  3210               	rrcf	(??_rand+1)^0,f,c
 10297   005C92  320F               	rrcf	??_rand^0,f,c
 10298   005C94                     u4440:
 10299   005C94  2EE8               	decfsz	wreg,f,c
 10300   005C96  EF45  F02E         	goto	u4445
 10301   005C9A  C00F  F00D         	movff	??_rand,?_rand
 10302   005C9E  C010  F00E         	movff	??_rand+1,?_rand+1
 10303   005CA2                     
 10304                           ; BSR set to: 0
 10305   005CA2  0012               	return		;funcret
 10306   005CA4                     __end_of_rand:
 10307                           	callstack 0
 10308                           
 10309 ;; *************** function ___lmul *****************
 10310 ;; Defined at:
 10311 ;;		line 15 in file "C:\Program Files\Microchip\xc8\v3.00\pic\sources\c99\common\Umul32.c"
 10312 ;; Parameters:    Size  Location     Type
 10313 ;;  multiplier      4    0[COMRAM] unsigned long 
 10314 ;;  multiplicand    4    4[COMRAM] unsigned long 
 10315 ;; Auto vars:     Size  Location     Type
 10316 ;;  product         4    8[COMRAM] unsigned long 
 10317 ;; Return value:  Size  Location     Type
 10318 ;;                  4    0[COMRAM] unsigned long 
 10319 ;; Registers used:
 10320 ;;		wreg, status,2, status,0
 10321 ;; Tracked objects:
 10322 ;;		On entry : 0/0
 10323 ;;		On exit  : 0/0
 10324 ;;		Unchanged: 0/0
 10325 ;; Data sizes:     COMRAM   BANK0   BANK1   BANK2   BANK3   BANK4   BANK5   BANK6   BANK7   BANK8   BANK9  BANK10  BANK1
      +1  BANK12  BANK13  BANK14  BANK15  BANK16  BANK17  BANK18  BANK19  BANK20  BANK21  BANK22  BANK23  BANK24  BANK25  BANK2
      +6  BANK27  BANK28  BANK29  BANK30  BANK31
 10326 ;;      Params:         8       0       0       0       0       0       0       0       0       0       0       0       
      +0       0       0       0       0       0       0       0       0       0       0       0       0       0       0       
      +0       0       0       0       0       0
 10327 ;;      Locals:         4       0       0       0       0       0       0       0       0       0       0       0       
      +0       0       0       0       0       0       0       0       0       0       0       0       0       0       0       
      +0       0       0       0       0       0
 10328 ;;      Temps:          0       0       0       0       0       0       0       0       0       0       0       0       
      +0       0       0       0       0       0       0       0       0       0       0       0       0       0       0       
      +0       0       0       0       0       0
 10329 ;;      Totals:        12       0       0       0       0       0       0       0       0       0       0       0       
      +0       0       0       0       0       0       0       0       0       0       0       0       0       0       0       
      +0       0       0       0       0       0
 10330 ;;Total ram usage:       12 bytes
 10331 ;; Hardware stack levels used: 1
 10332 ;; This function calls:
 10333 ;;		Nothing
 10334 ;; This function is called by:
 10335 ;;		_rand
 10336 ;; This function uses a non-reentrant model
 10337 ;;
 10338                           
 10339                           	psect	text29
 10340   005CA4                     __ptext29:
 10341                           	callstack 0
 10342   005CA4                     ___lmul:
 10343                           	callstack 29
 10344   005CA4  0E00               	movlw	0
 10345   005CA6  6E09               	movwf	___lmul@product^0,c
 10346   005CA8  0E00               	movlw	0
 10347   005CAA  6E0A               	movwf	(___lmul@product+1)^0,c
 10348   005CAC  0E00               	movlw	0
 10349   005CAE  6E0B               	movwf	(___lmul@product+2)^0,c
 10350   005CB0  0E00               	movlw	0
 10351   005CB2  6E0C               	movwf	(___lmul@product+3)^0,c
 10352   005CB4                     l4029:
 10353   005CB4  A001               	btfss	___lmul@multiplier^0,0,c
 10354   005CB6  EF5F  F02E         	goto	u4401
 10355   005CBA  EF61  F02E         	goto	u4400
 10356   005CBE                     u4401:
 10357   005CBE  EF69  F02E         	goto	l4033
 10358   005CC2                     u4400:
 10359   005CC2  5005               	movf	___lmul@multiplicand^0,w,c
 10360   005CC4  2609               	addwf	___lmul@product^0,f,c
 10361   005CC6  5006               	movf	(___lmul@multiplicand+1)^0,w,c
 10362   005CC8  220A               	addwfc	(___lmul@product+1)^0,f,c
 10363   005CCA  5007               	movf	(___lmul@multiplicand+2)^0,w,c
 10364   005CCC  220B               	addwfc	(___lmul@product+2)^0,f,c
 10365   005CCE  5008               	movf	(___lmul@multiplicand+3)^0,w,c
 10366   005CD0  220C               	addwfc	(___lmul@product+3)^0,f,c
 10367   005CD2                     l4033:
 10368   005CD2  90D8               	bcf	status,0,c
 10369   005CD4  3605               	rlcf	___lmul@multiplicand^0,f,c
 10370   005CD6  3606               	rlcf	(___lmul@multiplicand+1)^0,f,c
 10371   005CD8  3607               	rlcf	(___lmul@multiplicand+2)^0,f,c
 10372   005CDA  3608               	rlcf	(___lmul@multiplicand+3)^0,f,c
 10373   005CDC  90D8               	bcf	status,0,c
 10374   005CDE  3204               	rrcf	(___lmul@multiplier+3)^0,f,c
 10375   005CE0  3203               	rrcf	(___lmul@multiplier+2)^0,f,c
 10376   005CE2  3202               	rrcf	(___lmul@multiplier+1)^0,f,c
 10377   005CE4  3201               	rrcf	___lmul@multiplier^0,f,c
 10378   005CE6  5001               	movf	___lmul@multiplier^0,w,c
 10379   005CE8  1002               	iorwf	(___lmul@multiplier+1)^0,w,c
 10380   005CEA  1003               	iorwf	(___lmul@multiplier+2)^0,w,c
 10381   005CEC  1004               	iorwf	(___lmul@multiplier+3)^0,w,c
 10382   005CEE  A4D8               	btfss	status,2,c
 10383   005CF0  EF7C  F02E         	goto	u4411
 10384   005CF4  EF7E  F02E         	goto	u4410
 10385   005CF8                     u4411:
 10386   005CF8  EF5A  F02E         	goto	l4029
 10387   005CFC                     u4410:
 10388   005CFC  C009  F001         	movff	___lmul@product,?___lmul
 10389   005D00  C00A  F002         	movff	___lmul@product+1,?___lmul+1
 10390   005D04  C00B  F003         	movff	___lmul@product+2,?___lmul+2
 10391   005D08  C00C  F004         	movff	___lmul@product+3,?___lmul+3
 10392   005D0C  0012               	return		;funcret
 10393   005D0E                     __end_of___lmul:
 10394                           	callstack 0
 10395                           
 10396 ;; *************** function ___xxtofl *****************
 10397 ;; Defined at:
 10398 ;;		line 10 in file "C:\Program Files\Microchip\xc8\v3.00\pic\sources\c99\common\xxtofl.c"
 10399 ;; Parameters:    Size  Location     Type
 10400 ;;  sign            1    wreg     unsigned char 
 10401 ;;  val             4    0[COMRAM] long 
 10402 ;; Auto vars:     Size  Location     Type
 10403 ;;  sign            1    8[COMRAM] unsigned char 
 10404 ;;  arg             4   10[COMRAM] unsigned long 
 10405 ;;  exp             1    9[COMRAM] unsigned char 
 10406 ;; Return value:  Size  Location     Type
 10407 ;;                  4    0[COMRAM] unsigned char 
 10408 ;; Registers used:
 10409 ;;		wreg, status,2, status,0
 10410 ;; Tracked objects:
 10411 ;;		On entry : 0/0
 10412 ;;		On exit  : 0/0
 10413 ;;		Unchanged: 0/0
 10414 ;; Data sizes:     COMRAM   BANK0   BANK1   BANK2   BANK3   BANK4   BANK5   BANK6   BANK7   BANK8   BANK9  BANK10  BANK1
      +1  BANK12  BANK13  BANK14  BANK15  BANK16  BANK17  BANK18  BANK19  BANK20  BANK21  BANK22  BANK23  BANK24  BANK25  BANK2
      +6  BANK27  BANK28  BANK29  BANK30  BANK31
 10415 ;;      Params:         4       0       0       0       0       0       0       0       0       0       0       0       
      +0       0       0       0       0       0       0       0       0       0       0       0       0       0       0       
      +0       0       0       0       0       0
 10416 ;;      Locals:         6       0       0       0       0       0       0       0       0       0       0       0       
      +0       0       0       0       0       0       0       0       0       0       0       0       0       0       0       
      +0       0       0       0       0       0
 10417 ;;      Temps:          4       0       0       0       0       0       0       0       0       0       0       0       
      +0       0       0       0       0       0       0       0       0       0       0       0       0       0       0       
      +0       0       0       0       0       0
 10418 ;;      Totals:        14       0       0       0       0       0       0       0       0       0       0       0       
      +0       0       0       0       0       0       0       0       0       0       0       0       0       0       0       
      +0       0       0       0       0       0
 10419 ;;Total ram usage:       14 bytes
 10420 ;; Hardware stack levels used: 1
 10421 ;; This function calls:
 10422 ;;		Nothing
 10423 ;; This function is called by:
 10424 ;;		_main
 10425 ;; This function uses a non-reentrant model
 10426 ;;
 10427                           
 10428                           	psect	text30
 10429   00517E                     __ptext30:
 10430                           	callstack 0
 10431   00517E                     ___xxtofl:
 10432                           	callstack 30
 10433                           
 10434                           ;incstack = 0
 10435                           ;___xxtofl@sign stored from wreg
 10436   00517E  6E09               	movwf	___xxtofl@sign^0,c
 10437   005180  5009               	movf	___xxtofl@sign^0,w,c
 10438   005182  B4D8               	btfsc	status,2,c
 10439   005184  EFC6  F028         	goto	u4471
 10440   005188  EFC8  F028         	goto	u4470
 10441   00518C                     u4471:
 10442   00518C  EFEA  F028         	goto	l838
 10443   005190                     u4470:
 10444   005190  BE04               	btfsc	(___xxtofl@val+3)^0,7,c
 10445   005192  EFCF  F028         	goto	u4480
 10446   005196  EFCD  F028         	goto	u4481
 10447   00519A                     u4481:
 10448   00519A  EFEA  F028         	goto	l838
 10449   00519E                     u4480:
 10450   00519E  C001  F005         	movff	___xxtofl@val,??___xxtofl
 10451   0051A2  C002  F006         	movff	___xxtofl@val+1,??___xxtofl+1
 10452   0051A6  C003  F007         	movff	___xxtofl@val+2,??___xxtofl+2
 10453   0051AA  C004  F008         	movff	___xxtofl@val+3,??___xxtofl+3
 10454   0051AE  1E05               	comf	??___xxtofl^0,f,c
 10455   0051B0  1E06               	comf	(??___xxtofl+1)^0,f,c
 10456   0051B2  1E07               	comf	(??___xxtofl+2)^0,f,c
 10457   0051B4  1E08               	comf	(??___xxtofl+3)^0,f,c
 10458   0051B6  2A05               	incf	??___xxtofl^0,f,c
 10459   0051B8  0E00               	movlw	0
 10460   0051BA  2206               	addwfc	(??___xxtofl+1)^0,f,c
 10461   0051BC  2207               	addwfc	(??___xxtofl+2)^0,f,c
 10462   0051BE  2208               	addwfc	(??___xxtofl+3)^0,f,c
 10463   0051C0  C005  F00B         	movff	??___xxtofl,___xxtofl@arg
 10464   0051C4  C006  F00C         	movff	??___xxtofl+1,___xxtofl@arg+1
 10465   0051C8  C007  F00D         	movff	??___xxtofl+2,___xxtofl@arg+2
 10466   0051CC  C008  F00E         	movff	??___xxtofl+3,___xxtofl@arg+3
 10467   0051D0  EFF2  F028         	goto	l4145
 10468   0051D4                     l838:
 10469   0051D4  C001  F00B         	movff	___xxtofl@val,___xxtofl@arg
 10470   0051D8  C002  F00C         	movff	___xxtofl@val+1,___xxtofl@arg+1
 10471   0051DC  C003  F00D         	movff	___xxtofl@val+2,___xxtofl@arg+2
 10472   0051E0  C004  F00E         	movff	___xxtofl@val+3,___xxtofl@arg+3
 10473   0051E4                     l4145:
 10474   0051E4  5001               	movf	___xxtofl@val^0,w,c
 10475   0051E6  1002               	iorwf	(___xxtofl@val+1)^0,w,c
 10476   0051E8  1003               	iorwf	(___xxtofl@val+2)^0,w,c
 10477   0051EA  1004               	iorwf	(___xxtofl@val+3)^0,w,c
 10478   0051EC  A4D8               	btfss	status,2,c
 10479   0051EE  EFFB  F028         	goto	u4491
 10480   0051F2  EFFD  F028         	goto	u4490
 10481   0051F6                     u4491:
 10482   0051F6  EF07  F029         	goto	l4151
 10483   0051FA                     u4490:
 10484   0051FA  0E00               	movlw	0
 10485   0051FC  6E01               	movwf	?___xxtofl^0,c
 10486   0051FE  0E00               	movlw	0
 10487   005200  6E02               	movwf	(?___xxtofl+1)^0,c
 10488   005202  0E00               	movlw	0
 10489   005204  6E03               	movwf	(?___xxtofl+2)^0,c
 10490   005206  0E00               	movlw	0
 10491   005208  6E04               	movwf	(?___xxtofl+3)^0,c
 10492   00520A  EF98  F029         	goto	l841
 10493   00520E                     l4151:
 10494   00520E  0E96               	movlw	150
 10495   005210  6E0A               	movwf	___xxtofl@exp^0,c
 10496   005212  EF11  F029         	goto	l4155
 10497   005216                     l4153:
 10498   005216  2A0A               	incf	___xxtofl@exp^0,f,c
 10499   005218  90D8               	bcf	status,0,c
 10500   00521A  320E               	rrcf	(___xxtofl@arg+3)^0,f,c
 10501   00521C  320D               	rrcf	(___xxtofl@arg+2)^0,f,c
 10502   00521E  320C               	rrcf	(___xxtofl@arg+1)^0,f,c
 10503   005220  320B               	rrcf	___xxtofl@arg^0,f,c
 10504   005222                     l4155:
 10505   005222  0E00               	movlw	0
 10506   005224  140B               	andwf	___xxtofl@arg^0,w,c
 10507   005226  6E05               	movwf	??___xxtofl^0,c
 10508   005228  0E00               	movlw	0
 10509   00522A  140C               	andwf	(___xxtofl@arg+1)^0,w,c
 10510   00522C  6E06               	movwf	(??___xxtofl+1)^0,c
 10511   00522E  0E00               	movlw	0
 10512   005230  140D               	andwf	(___xxtofl@arg+2)^0,w,c
 10513   005232  6E07               	movwf	(??___xxtofl+2)^0,c
 10514   005234  0EFE               	movlw	254
 10515   005236  140E               	andwf	(___xxtofl@arg+3)^0,w,c
 10516   005238  6E08               	movwf	(??___xxtofl+3)^0,c
 10517   00523A  5005               	movf	??___xxtofl^0,w,c
 10518   00523C  1006               	iorwf	(??___xxtofl+1)^0,w,c
 10519   00523E  1007               	iorwf	(??___xxtofl+2)^0,w,c
 10520   005240  1008               	iorwf	(??___xxtofl+3)^0,w,c
 10521   005242  A4D8               	btfss	status,2,c
 10522   005244  EF26  F029         	goto	u4501
 10523   005248  EF28  F029         	goto	u4500
 10524   00524C                     u4501:
 10525   00524C  EF0B  F029         	goto	l4153
 10526   005250                     u4500:
 10527   005250  EF36  F029         	goto	l845
 10528   005254                     l4157:
 10529   005254  2A0A               	incf	___xxtofl@exp^0,f,c
 10530   005256  0E01               	movlw	1
 10531   005258  260B               	addwf	___xxtofl@arg^0,f,c
 10532   00525A  0E00               	movlw	0
 10533   00525C  220C               	addwfc	(___xxtofl@arg+1)^0,f,c
 10534   00525E  220D               	addwfc	(___xxtofl@arg+2)^0,f,c
 10535   005260  220E               	addwfc	(___xxtofl@arg+3)^0,f,c
 10536   005262  90D8               	bcf	status,0,c
 10537   005264  320E               	rrcf	(___xxtofl@arg+3)^0,f,c
 10538   005266  320D               	rrcf	(___xxtofl@arg+2)^0,f,c
 10539   005268  320C               	rrcf	(___xxtofl@arg+1)^0,f,c
 10540   00526A  320B               	rrcf	___xxtofl@arg^0,f,c
 10541   00526C                     l845:
 10542   00526C  0E00               	movlw	0
 10543   00526E  140B               	andwf	___xxtofl@arg^0,w,c
 10544   005270  6E05               	movwf	??___xxtofl^0,c
 10545   005272  0E00               	movlw	0
 10546   005274  140C               	andwf	(___xxtofl@arg+1)^0,w,c
 10547   005276  6E06               	movwf	(??___xxtofl+1)^0,c
 10548   005278  0E00               	movlw	0
 10549   00527A  140D               	andwf	(___xxtofl@arg+2)^0,w,c
 10550   00527C  6E07               	movwf	(??___xxtofl+2)^0,c
 10551   00527E  0EFF               	movlw	255
 10552   005280  140E               	andwf	(___xxtofl@arg+3)^0,w,c
 10553   005282  6E08               	movwf	(??___xxtofl+3)^0,c
 10554   005284  5005               	movf	??___xxtofl^0,w,c
 10555   005286  1006               	iorwf	(??___xxtofl+1)^0,w,c
 10556   005288  1007               	iorwf	(??___xxtofl+2)^0,w,c
 10557   00528A  1008               	iorwf	(??___xxtofl+3)^0,w,c
 10558   00528C  A4D8               	btfss	status,2,c
 10559   00528E  EF4B  F029         	goto	u4511
 10560   005292  EF4D  F029         	goto	u4510
 10561   005296                     u4511:
 10562   005296  EF2A  F029         	goto	l4157
 10563   00529A                     u4510:
 10564   00529A  EF55  F029         	goto	l4165
 10565   00529E                     l4163:
 10566   00529E  060A               	decf	___xxtofl@exp^0,f,c
 10567   0052A0  90D8               	bcf	status,0,c
 10568   0052A2  360B               	rlcf	___xxtofl@arg^0,f,c
 10569   0052A4  360C               	rlcf	(___xxtofl@arg+1)^0,f,c
 10570   0052A6  360D               	rlcf	(___xxtofl@arg+2)^0,f,c
 10571   0052A8  360E               	rlcf	(___xxtofl@arg+3)^0,f,c
 10572   0052AA                     l4165:
 10573   0052AA  BE0D               	btfsc	(___xxtofl@arg+2)^0,7,c
 10574   0052AC  EF5A  F029         	goto	u4521
 10575   0052B0  EF5C  F029         	goto	u4520
 10576   0052B4                     u4521:
 10577   0052B4  EF64  F029         	goto	l852
 10578   0052B8                     u4520:
 10579   0052B8  0E02               	movlw	2
 10580   0052BA  600A               	cpfslt	___xxtofl@exp^0,c
 10581   0052BC  EF62  F029         	goto	u4531
 10582   0052C0  EF64  F029         	goto	u4530
 10583   0052C4                     u4531:
 10584   0052C4  EF4F  F029         	goto	l4163
 10585   0052C8                     u4530:
 10586   0052C8                     l852:
 10587   0052C8  B00A               	btfsc	___xxtofl@exp^0,0,c
 10588   0052CA  EF69  F029         	goto	u4541
 10589   0052CE  EF6B  F029         	goto	u4540
 10590   0052D2                     u4541:
 10591   0052D2  EF6C  F029         	goto	l4171
 10592   0052D6                     u4540:
 10593   0052D6  9E0D               	bcf	(___xxtofl@arg+2)^0,7,c
 10594   0052D8                     l4171:
 10595   0052D8  90D8               	bcf	status,0,c
 10596   0052DA  320A               	rrcf	___xxtofl@exp^0,f,c
 10597   0052DC  C00A  F005         	movff	___xxtofl@exp,??___xxtofl
 10598   0052E0  6A06               	clrf	(??___xxtofl+1)^0,c
 10599   0052E2  6A07               	clrf	(??___xxtofl+2)^0,c
 10600   0052E4  6A08               	clrf	(??___xxtofl+3)^0,c
 10601   0052E6  C005  F008         	movff	??___xxtofl,??___xxtofl+3
 10602   0052EA  6A07               	clrf	(??___xxtofl+2)^0,c
 10603   0052EC  6A06               	clrf	(??___xxtofl+1)^0,c
 10604   0052EE  6A05               	clrf	??___xxtofl^0,c
 10605   0052F0  5005               	movf	??___xxtofl^0,w,c
 10606   0052F2  120B               	iorwf	___xxtofl@arg^0,f,c
 10607   0052F4  5006               	movf	(??___xxtofl+1)^0,w,c
 10608   0052F6  120C               	iorwf	(___xxtofl@arg+1)^0,f,c
 10609   0052F8  5007               	movf	(??___xxtofl+2)^0,w,c
 10610   0052FA  120D               	iorwf	(___xxtofl@arg+2)^0,f,c
 10611   0052FC  5008               	movf	(??___xxtofl+3)^0,w,c
 10612   0052FE  120E               	iorwf	(___xxtofl@arg+3)^0,f,c
 10613   005300  5009               	movf	___xxtofl@sign^0,w,c
 10614   005302  B4D8               	btfsc	status,2,c
 10615   005304  EF86  F029         	goto	u4551
 10616   005308  EF88  F029         	goto	u4550
 10617   00530C                     u4551:
 10618   00530C  EF90  F029         	goto	l4181
 10619   005310                     u4550:
 10620   005310  BE04               	btfsc	(___xxtofl@val+3)^0,7,c
 10621   005312  EF8F  F029         	goto	u4560
 10622   005316  EF8D  F029         	goto	u4561
 10623   00531A                     u4561:
 10624   00531A  EF90  F029         	goto	l4181
 10625   00531E                     u4560:
 10626   00531E  8E0E               	bsf	(___xxtofl@arg+3)^0,7,c
 10627   005320                     l4181:
 10628   005320  C00B  F001         	movff	___xxtofl@arg,?___xxtofl
 10629   005324  C00C  F002         	movff	___xxtofl@arg+1,?___xxtofl+1
 10630   005328  C00D  F003         	movff	___xxtofl@arg+2,?___xxtofl+2
 10631   00532C  C00E  F004         	movff	___xxtofl@arg+3,?___xxtofl+3
 10632   005330                     l841:
 10633   005330  0012               	return		;funcret
 10634   005332                     __end_of___xxtofl:
 10635                           	callstack 0
 10636                           
 10637 ;; *************** function _LCD_String_xy *****************
 10638 ;; Defined at:
 10639 ;;		line 54 in file "./functions.h"
 10640 ;; Parameters:    Size  Location     Type
 10641 ;;  row             1    wreg     unsigned char 
 10642 ;;  pos             1    9[COMRAM] unsigned char 
 10643 ;;  msg             2   10[COMRAM] PTR const unsigned char 
 10644 ;;		 -> STR_65(13), STR_64(10), STR_63(10), STR_62(13), 
 10645 ;;		 -> STR_60(13), STR_58(5), STR_57(13), STR_56(13), 
 10646 ;;		 -> STR_55(10), STR_54(13), STR_52(13), STR_50(5), 
 10647 ;;		 -> STR_49(13), STR_48(13), STR_47(10), STR_46(13), 
 10648 ;;		 -> STR_44(13), STR_42(5), STR_41(13), STR_39(13), 
 10649 ;;		 -> STR_37(4), STR_36(13), STR_35(13), STR_34(10), 
 10650 ;;		 -> STR_33(13), STR_31(13), STR_29(5), STR_28(13), 
 10651 ;;		 -> STR_27(17), STR_26(16), STR_25(17), STR_24(13), 
 10652 ;;		 -> STR_23(10), STR_22(13), STR_20(13), STR_18(5), 
 10653 ;;		 -> STR_17(13), STR_16(17), STR_15(16), STR_14(17), 
 10654 ;;		 -> STR_13(13), STR_12(10), STR_11(13), STR_9(13), 
 10655 ;;		 -> STR_7(5), STR_6(13), STR_5(15), STR_4(15), 
 10656 ;;		 -> STR_3(15), STR_2(18), data(10), 
 10657 ;; Auto vars:     Size  Location     Type
 10658 ;;  row             1   12[COMRAM] unsigned char 
 10659 ;;  location        1   13[COMRAM] unsigned char 
 10660 ;; Return value:  Size  Location     Type
 10661 ;;                  1    wreg      void 
 10662 ;; Registers used:
 10663 ;;		wreg, fsr1l, fsr1h, status,2, status,0, tblptrl, tblptrh, tblptru, cstack
 10664 ;; Tracked objects:
 10665 ;;		On entry : 0/0
 10666 ;;		On exit  : 0/0
 10667 ;;		Unchanged: 0/0
 10668 ;; Data sizes:     COMRAM   BANK0   BANK1   BANK2   BANK3   BANK4   BANK5   BANK6   BANK7   BANK8   BANK9  BANK10  BANK1
      +1  BANK12  BANK13  BANK14  BANK15  BANK16  BANK17  BANK18  BANK19  BANK20  BANK21  BANK22  BANK23  BANK24  BANK25  BANK2
      +6  BANK27  BANK28  BANK29  BANK30  BANK31
 10669 ;;      Params:         3       0       0       0       0       0       0       0       0       0       0       0       
      +0       0       0       0       0       0       0       0       0       0       0       0       0       0       0       
      +0       0       0       0       0       0
 10670 ;;      Locals:         2       0       0       0       0       0       0       0       0       0       0       0       
      +0       0       0       0       0       0       0       0       0       0       0       0       0       0       0       
      +0       0       0       0       0       0
 10671 ;;      Temps:          0       0       0       0       0       0       0       0       0       0       0       0       
      +0       0       0       0       0       0       0       0       0       0       0       0       0       0       0       
      +0       0       0       0       0       0
 10672 ;;      Totals:         5       0       0       0       0       0       0       0       0       0       0       0       
      +0       0       0       0       0       0       0       0       0       0       0       0       0       0       0       
      +0       0       0       0       0       0
 10673 ;;Total ram usage:        5 bytes
 10674 ;; Hardware stack levels used: 1
 10675 ;; Hardware stack levels required when called: 3
 10676 ;; This function calls:
 10677 ;;		_LCD_Command
 10678 ;;		_LCD_String
 10679 ;; This function is called by:
 10680 ;;		_main
 10681 ;; This function uses a non-reentrant model
 10682 ;;
 10683                           
 10684                           	psect	text31
 10685   005F7A                     __ptext31:
 10686                           	callstack 0
 10687   005F7A                     _LCD_String_xy:
 10688                           	callstack 27
 10689                           
 10690                           ;incstack = 0
 10691                           ;LCD_String_xy@row stored from wreg
 10692   005F7A  6E0D               	movwf	LCD_String_xy@row^0,c
 10693   005F7C                     
 10694                           ;./functions.h: 57:     if(row<=1)
 10695   005F7C  0E02               	movlw	2
 10696   005F7E  600D               	cpfslt	LCD_String_xy@row^0,c
 10697   005F80  EFC4  F02F         	goto	u4431
 10698   005F84  EFC6  F02F         	goto	u4430
 10699   005F88                     u4431:
 10700   005F88  EFCF  F02F         	goto	l4105
 10701   005F8C                     u4430:
 10702   005F8C                     
 10703                           ;./functions.h: 58:     {;./functions.h: 59:         location=(0x80) | ((pos) & 0x0f);
 10704   005F8C  500A               	movf	LCD_String_xy@pos^0,w,c
 10705   005F8E  0B0F               	andlw	15
 10706   005F90  0980               	iorlw	128
 10707   005F92  6E0E               	movwf	LCD_String_xy@location^0,c
 10708   005F94                     
 10709                           ;./functions.h: 60:         LCD_Command(location);
 10710   005F94  500E               	movf	LCD_String_xy@location^0,w,c
 10711   005F96  EC81  F030         	call	_LCD_Command
 10712                           
 10713                           ;./functions.h: 61:     }
 10714   005F9A  EFD6  F02F         	goto	l4109
 10715   005F9E                     l4105:
 10716                           
 10717                           ;./functions.h: 63:     {;./functions.h: 64:         location=(0xC0) | ((pos) & 0x0f);
 10718   005F9E  500A               	movf	LCD_String_xy@pos^0,w,c
 10719   005FA0  0B0F               	andlw	15
 10720   005FA2  09C0               	iorlw	192
 10721   005FA4  6E0E               	movwf	LCD_String_xy@location^0,c
 10722   005FA6                     
 10723                           ;./functions.h: 65:         LCD_Command(location);
 10724   005FA6  500E               	movf	LCD_String_xy@location^0,w,c
 10725   005FA8  EC81  F030         	call	_LCD_Command
 10726   005FAC                     l4109:
 10727                           
 10728                           ;./functions.h: 67:     LCD_String(msg);
 10729   005FAC  C00B  F008         	movff	LCD_String_xy@msg,LCD_String@msg
 10730   005FB0  C00C  F009         	movff	LCD_String_xy@msg+1,LCD_String@msg+1
 10731   005FB4  ECE2  F02D         	call	_LCD_String	;wreg free
 10732   005FB8  0012               	return		;funcret
 10733   005FBA                     __end_of_LCD_String_xy:
 10734                           	callstack 0
 10735                           
 10736 ;; *************** function _LCD_String *****************
 10737 ;; Defined at:
 10738 ;;		line 45 in file "./functions.h"
 10739 ;; Parameters:    Size  Location     Type
 10740 ;;  msg             2    7[COMRAM] PTR const unsigned char 
 10741 ;;		 -> STR_65(13), STR_64(10), STR_63(10), STR_62(13), 
 10742 ;;		 -> STR_60(13), STR_58(5), STR_57(13), STR_56(13), 
 10743 ;;		 -> STR_55(10), STR_54(13), STR_52(13), STR_50(5), 
 10744 ;;		 -> STR_49(13), STR_48(13), STR_47(10), STR_46(13), 
 10745 ;;		 -> STR_44(13), STR_42(5), STR_41(13), STR_39(13), 
 10746 ;;		 -> STR_37(4), STR_36(13), STR_35(13), STR_34(10), 
 10747 ;;		 -> STR_33(13), STR_31(13), STR_29(5), STR_28(13), 
 10748 ;;		 -> STR_27(17), STR_26(16), STR_25(17), STR_24(13), 
 10749 ;;		 -> STR_23(10), STR_22(13), STR_20(13), STR_18(5), 
 10750 ;;		 -> STR_17(13), STR_16(17), STR_15(16), STR_14(17), 
 10751 ;;		 -> STR_13(13), STR_12(10), STR_11(13), STR_9(13), 
 10752 ;;		 -> STR_7(5), STR_6(13), STR_5(15), STR_4(15), 
 10753 ;;		 -> STR_3(15), STR_2(18), data(10), 
 10754 ;; Auto vars:     Size  Location     Type
 10755 ;;		None
 10756 ;; Return value:  Size  Location     Type
 10757 ;;                  1    wreg      void 
 10758 ;; Registers used:
 10759 ;;		wreg, fsr1l, fsr1h, status,2, status,0, tblptrl, tblptrh, tblptru, cstack
 10760 ;; Tracked objects:
 10761 ;;		On entry : 0/0
 10762 ;;		On exit  : 0/0
 10763 ;;		Unchanged: 0/0
 10764 ;; Data sizes:     COMRAM   BANK0   BANK1   BANK2   BANK3   BANK4   BANK5   BANK6   BANK7   BANK8   BANK9  BANK10  BANK1
      +1  BANK12  BANK13  BANK14  BANK15  BANK16  BANK17  BANK18  BANK19  BANK20  BANK21  BANK22  BANK23  BANK24  BANK25  BANK2
      +6  BANK27  BANK28  BANK29  BANK30  BANK31
 10765 ;;      Params:         2       0       0       0       0       0       0       0       0       0       0       0       
      +0       0       0       0       0       0       0       0       0       0       0       0       0       0       0       
      +0       0       0       0       0       0
 10766 ;;      Locals:         0       0       0       0       0       0       0       0       0       0       0       0       
      +0       0       0       0       0       0       0       0       0       0       0       0       0       0       0       
      +0       0       0       0       0       0
 10767 ;;      Temps:          0       0       0       0       0       0       0       0       0       0       0       0       
      +0       0       0       0       0       0       0       0       0       0       0       0       0       0       0       
      +0       0       0       0       0       0
 10768 ;;      Totals:         2       0       0       0       0       0       0       0       0       0       0       0       
      +0       0       0       0       0       0       0       0       0       0       0       0       0       0       0       
      +0       0       0       0       0       0
 10769 ;;Total ram usage:        2 bytes
 10770 ;; Hardware stack levels used: 1
 10771 ;; Hardware stack levels required when called: 2
 10772 ;; This function calls:
 10773 ;;		_LCD_Char
 10774 ;; This function is called by:
 10775 ;;		_LCD_String_xy
 10776 ;; This function uses a non-reentrant model
 10777 ;;
 10778                           
 10779                           	psect	text32
 10780   005BC4                     __ptext32:
 10781                           	callstack 0
 10782   005BC4                     _LCD_String:
 10783                           	callstack 27
 10784   005BC4                     
 10785                           ;./functions.h: 45: void LCD_String(const char *msg);./functions.h: 46: {;./functions.h:
      +                           47:     while((*msg)!=0)
 10786   005BC4  EFFD  F02D         	goto	l4025
 10787   005BC8                     l4021:
 10788                           
 10789                           ;./functions.h: 48:     {;./functions.h: 49:       LCD_Char(*msg);
 10790   005BC8  0060  F023  FFF6   	movff	LCD_String@msg,tblptrl
 10791   005BCE  0060  F027  FFF7   	movff	LCD_String@msg+1,tblptrh
 10792   005BD4  0E00               	movlw	low (__smallconst shr (0+16))
 10793   005BD6  6EF8               	movwf	tblptru,c
 10794   005BD8  0E1F               	movlw	(high __ramtop+-1)
 10795   005BDA  64F7               	cpfsgt	tblptrh,c
 10796   005BDC  D003               	bra	u4377
 10797   005BDE  0008               	tblrd		*
 10798   005BE0  50F5               	movf	tablat,w,c
 10799   005BE2  D007               	bra	u4370
 10800   005BE4                     u4377:
 10801   005BE4  006F FFDB FFE1     	movff	tblptrl,fsr1l
 10802   005BEA  006F FFDF FFE2     	movff	tblptrh,fsr1h
 10803   005BF0  50E7               	movf	indf1,w,c
 10804   005BF2                     u4370:
 10805   005BF2  EC72  F030         	call	_LCD_Char
 10806   005BF6                     
 10807                           ;./functions.h: 50:       msg++;
 10808   005BF6  4A08               	infsnz	LCD_String@msg^0,f,c
 10809   005BF8  2A09               	incf	(LCD_String@msg+1)^0,f,c
 10810   005BFA                     l4025:
 10811                           
 10812                           ;./functions.h: 47:     while((*msg)!=0)
 10813   005BFA  0060  F023  FFF6   	movff	LCD_String@msg,tblptrl
 10814   005C00  0060  F027  FFF7   	movff	LCD_String@msg+1,tblptrh
 10815   005C06  0E00               	movlw	low (__smallconst shr (0+16))
 10816   005C08  6EF8               	movwf	tblptru,c
 10817   005C0A  0E1F               	movlw	(high __ramtop+-1)
 10818   005C0C  64F7               	cpfsgt	tblptrh,c
 10819   005C0E  D003               	bra	u4387
 10820   005C10  0008               	tblrd		*
 10821   005C12  50F5               	movf	tablat,w,c
 10822   005C14  D007               	bra	u4380
 10823   005C16                     u4387:
 10824   005C16  006F FFDB FFE1     	movff	tblptrl,fsr1l
 10825   005C1C  006F FFDF FFE2     	movff	tblptrh,fsr1h
 10826   005C22  50E7               	movf	indf1,w,c
 10827   005C24                     u4380:
 10828   005C24  0900               	iorlw	0
 10829   005C26  A4D8               	btfss	status,2,c
 10830   005C28  EF18  F02E         	goto	u4391
 10831   005C2C  EF1A  F02E         	goto	u4390
 10832   005C30                     u4391:
 10833   005C30  EFE4  F02D         	goto	l4021
 10834   005C34                     u4390:
 10835   005C34  0012               	return		;funcret
 10836   005C36                     __end_of_LCD_String:
 10837                           	callstack 0
 10838                           
 10839 ;; *************** function _LCD_Char *****************
 10840 ;; Defined at:
 10841 ;;		line 34 in file "./functions.h"
 10842 ;; Parameters:    Size  Location     Type
 10843 ;;  dat             1    wreg     unsigned char 
 10844 ;; Auto vars:     Size  Location     Type
 10845 ;;  dat             1    6[COMRAM] unsigned char 
 10846 ;; Return value:  Size  Location     Type
 10847 ;;                  1    wreg      void 
 10848 ;; Registers used:
 10849 ;;		wreg, status,2, status,0, cstack
 10850 ;; Tracked objects:
 10851 ;;		On entry : 0/0
 10852 ;;		On exit  : 0/0
 10853 ;;		Unchanged: 0/0
 10854 ;; Data sizes:     COMRAM   BANK0   BANK1   BANK2   BANK3   BANK4   BANK5   BANK6   BANK7   BANK8   BANK9  BANK10  BANK1
      +1  BANK12  BANK13  BANK14  BANK15  BANK16  BANK17  BANK18  BANK19  BANK20  BANK21  BANK22  BANK23  BANK24  BANK25  BANK2
      +6  BANK27  BANK28  BANK29  BANK30  BANK31
 10855 ;;      Params:         0       0       0       0       0       0       0       0       0       0       0       0       
      +0       0       0       0       0       0       0       0       0       0       0       0       0       0       0       
      +0       0       0       0       0       0
 10856 ;;      Locals:         1       0       0       0       0       0       0       0       0       0       0       0       
      +0       0       0       0       0       0       0       0       0       0       0       0       0       0       0       
      +0       0       0       0       0       0
 10857 ;;      Temps:          0       0       0       0       0       0       0       0       0       0       0       0       
      +0       0       0       0       0       0       0       0       0       0       0       0       0       0       0       
      +0       0       0       0       0       0
 10858 ;;      Totals:         1       0       0       0       0       0       0       0       0       0       0       0       
      +0       0       0       0       0       0       0       0       0       0       0       0       0       0       0       
      +0       0       0       0       0       0
 10859 ;;Total ram usage:        1 bytes
 10860 ;; Hardware stack levels used: 1
 10861 ;; Hardware stack levels required when called: 1
 10862 ;; This function calls:
 10863 ;;		_MSdelay
 10864 ;; This function is called by:
 10865 ;;		_LCD_String
 10866 ;; This function uses a non-reentrant model
 10867 ;;
 10868                           
 10869                           	psect	text33
 10870   0060E4                     __ptext33:
 10871                           	callstack 0
 10872   0060E4                     _LCD_Char:
 10873                           	callstack 27
 10874                           
 10875                           ;incstack = 0
 10876                           ;LCD_Char@dat stored from wreg
 10877   0060E4  6E07               	movwf	LCD_Char@dat^0,c
 10878   0060E6                     
 10879                           ;./functions.h: 34: void LCD_Char(char dat);./functions.h: 35: {;./functions.h: 36:     
      +                          LATB= dat;
 10880   0060E6  0060  F01F  FFBB   	movff	LCD_Char@dat,16315	;volatile
 10881   0060EC                     
 10882                           ;./functions.h: 37:     LATDbits.LATD4 = 1;
 10883   0060EC  88BD               	bsf	189,4,c	;volatile
 10884   0060EE                     
 10885                           ;./functions.h: 38:     LATDbits.LATD5=1;
 10886   0060EE  8ABD               	bsf	189,5,c	;volatile
 10887   0060F0                     
 10888                           ;./functions.h: 39:     __nop();
 10889   0060F0  0000               	nop	
 10890   0060F2                     
 10891                           ;./functions.h: 40:     LATDbits.LATD5=0;
 10892   0060F2  9ABD               	bcf	189,5,c	;volatile
 10893   0060F4                     
 10894                           ;./functions.h: 41:     MSdelay(1);
 10895   0060F4  0E00               	movlw	0
 10896   0060F6  6E02               	movwf	(MSdelay@val+1)^0,c
 10897   0060F8  0E01               	movlw	1
 10898   0060FA  6E01               	movwf	MSdelay@val^0,c
 10899   0060FC  EC10  F02F         	call	_MSdelay	;wreg free
 10900   006100  0012               	return		;funcret
 10901   006102                     __end_of_LCD_Char:
 10902                           	callstack 0
 10903                           
 10904 ;; *************** function _LCD_Init *****************
 10905 ;; Defined at:
 10906 ;;		line 56 in file "./init.h"
 10907 ;; Parameters:    Size  Location     Type
 10908 ;;		None
 10909 ;; Auto vars:     Size  Location     Type
 10910 ;;		None
 10911 ;; Return value:  Size  Location     Type
 10912 ;;                  1    wreg      void 
 10913 ;; Registers used:
 10914 ;;		wreg, status,2, status,0, cstack
 10915 ;; Tracked objects:
 10916 ;;		On entry : 0/0
 10917 ;;		On exit  : 0/0
 10918 ;;		Unchanged: 0/0
 10919 ;; Data sizes:     COMRAM   BANK0   BANK1   BANK2   BANK3   BANK4   BANK5   BANK6   BANK7   BANK8   BANK9  BANK10  BANK1
      +1  BANK12  BANK13  BANK14  BANK15  BANK16  BANK17  BANK18  BANK19  BANK20  BANK21  BANK22  BANK23  BANK24  BANK25  BANK2
      +6  BANK27  BANK28  BANK29  BANK30  BANK31
 10920 ;;      Params:         0       0       0       0       0       0       0       0       0       0       0       0       
      +0       0       0       0       0       0       0       0       0       0       0       0       0       0       0       
      +0       0       0       0       0       0
 10921 ;;      Locals:         0       0       0       0       0       0       0       0       0       0       0       0       
      +0       0       0       0       0       0       0       0       0       0       0       0       0       0       0       
      +0       0       0       0       0       0
 10922 ;;      Temps:          0       0       0       0       0       0       0       0       0       0       0       0       
      +0       0       0       0       0       0       0       0       0       0       0       0       0       0       0       
      +0       0       0       0       0       0
 10923 ;;      Totals:         0       0       0       0       0       0       0       0       0       0       0       0       
      +0       0       0       0       0       0       0       0       0       0       0       0       0       0       0       
      +0       0       0       0       0       0
 10924 ;;Total ram usage:        0 bytes
 10925 ;; Hardware stack levels used: 1
 10926 ;; Hardware stack levels required when called: 2
 10927 ;; This function calls:
 10928 ;;		_LCD_Command
 10929 ;;		_MSdelay
 10930 ;; This function is called by:
 10931 ;;		_main
 10932 ;; This function uses a non-reentrant model
 10933 ;;
 10934                           
 10935                           	psect	text34
 10936   006028                     __ptext34:
 10937                           	callstack 0
 10938   006028                     _LCD_Init:
 10939                           	callstack 28
 10940   006028                     
 10941                           ;./init.h: 57:     MSdelay(15);
 10942   006028  0E00               	movlw	0
 10943   00602A  6E02               	movwf	(MSdelay@val+1)^0,c
 10944   00602C  0E0F               	movlw	15
 10945   00602E  6E01               	movwf	MSdelay@val^0,c
 10946   006030  EC10  F02F         	call	_MSdelay	;wreg free
 10947   006034                     
 10948                           ;./init.h: 58:     TRISB = 0x00;
 10949   006034  6AC3               	clrf	195,c	;volatile
 10950   006036                     
 10951                           ;./init.h: 59:     TRISD = 0xC0;
 10952   006036  0EC0               	movlw	192
 10953   006038  6EC5               	movwf	197,c	;volatile
 10954   00603A                     
 10955                           ;./init.h: 60:     TRISE = 0xFF;
 10956   00603A  68C6               	setf	198,c	;volatile
 10957   00603C                     
 10958                           ;./init.h: 61:     ANSELD = 0x00;
 10959   00603C  013A               	movlb	58	; () banked
 10960   00603E  6B70               	clrf	112,b	;volatile
 10961   006040                     
 10962                           ; BSR set to: 58
 10963                           ;./init.h: 62:     ANSELB = 0x00;
 10964   006040  6B50               	clrf	80,b	;volatile
 10965   006042                     
 10966                           ; BSR set to: 58
 10967                           ;./init.h: 63:     ANSELE = 0x00;
 10968   006042  6B80               	clrf	128,b	;volatile
 10969   006044                     
 10970                           ; BSR set to: 58
 10971                           ;./init.h: 64:     LCD_Command(0x01);
 10972   006044  0E01               	movlw	1
 10973   006046  EC81  F030         	call	_LCD_Command
 10974   00604A                     
 10975                           ;./init.h: 65:     LCD_Command(0x38);
 10976   00604A  0E38               	movlw	56
 10977   00604C  EC81  F030         	call	_LCD_Command
 10978   006050                     
 10979                           ;./init.h: 66:     LCD_Command(0x0c);
 10980   006050  0E0C               	movlw	12
 10981   006052  EC81  F030         	call	_LCD_Command
 10982   006056                     
 10983                           ;./init.h: 67:     LCD_Command(0x06);
 10984   006056  0E06               	movlw	6
 10985   006058  EC81  F030         	call	_LCD_Command
 10986   00605C  0012               	return		;funcret
 10987   00605E                     __end_of_LCD_Init:
 10988                           	callstack 0
 10989                           
 10990 ;; *************** function _LCD_Clear *****************
 10991 ;; Defined at:
 10992 ;;		line 19 in file "./functions.h"
 10993 ;; Parameters:    Size  Location     Type
 10994 ;;		None
 10995 ;; Auto vars:     Size  Location     Type
 10996 ;;		None
 10997 ;; Return value:  Size  Location     Type
 10998 ;;                  1    wreg      void 
 10999 ;; Registers used:
 11000 ;;		wreg, status,2, status,0, cstack
 11001 ;; Tracked objects:
 11002 ;;		On entry : 0/0
 11003 ;;		On exit  : 0/0
 11004 ;;		Unchanged: 0/0
 11005 ;; Data sizes:     COMRAM   BANK0   BANK1   BANK2   BANK3   BANK4   BANK5   BANK6   BANK7   BANK8   BANK9  BANK10  BANK1
      +1  BANK12  BANK13  BANK14  BANK15  BANK16  BANK17  BANK18  BANK19  BANK20  BANK21  BANK22  BANK23  BANK24  BANK25  BANK2
      +6  BANK27  BANK28  BANK29  BANK30  BANK31
 11006 ;;      Params:         0       0       0       0       0       0       0       0       0       0       0       0       
      +0       0       0       0       0       0       0       0       0       0       0       0       0       0       0       
      +0       0       0       0       0       0
 11007 ;;      Locals:         0       0       0       0       0       0       0       0       0       0       0       0       
      +0       0       0       0       0       0       0       0       0       0       0       0       0       0       0       
      +0       0       0       0       0       0
 11008 ;;      Temps:          0       0       0       0       0       0       0       0       0       0       0       0       
      +0       0       0       0       0       0       0       0       0       0       0       0       0       0       0       
      +0       0       0       0       0       0
 11009 ;;      Totals:         0       0       0       0       0       0       0       0       0       0       0       0       
      +0       0       0       0       0       0       0       0       0       0       0       0       0       0       0       
      +0       0       0       0       0       0
 11010 ;;Total ram usage:        0 bytes
 11011 ;; Hardware stack levels used: 1
 11012 ;; Hardware stack levels required when called: 2
 11013 ;; This function calls:
 11014 ;;		_LCD_Command
 11015 ;; This function is called by:
 11016 ;;		_main
 11017 ;; This function uses a non-reentrant model
 11018 ;;
 11019                           
 11020                           	psect	text35
 11021   006120                     __ptext35:
 11022                           	callstack 0
 11023   006120                     _LCD_Clear:
 11024                           	callstack 28
 11025   006120                     
 11026                           ;./functions.h: 21:         LCD_Command(0x01);
 11027   006120  0E01               	movlw	1
 11028   006122  EC81  F030         	call	_LCD_Command
 11029   006126  0012               	return		;funcret
 11030   006128                     __end_of_LCD_Clear:
 11031                           	callstack 0
 11032                           
 11033 ;; *************** function _LCD_Command *****************
 11034 ;; Defined at:
 11035 ;;		line 24 in file "./functions.h"
 11036 ;; Parameters:    Size  Location     Type
 11037 ;;  cmd             1    wreg     unsigned char 
 11038 ;; Auto vars:     Size  Location     Type
 11039 ;;  cmd             1    6[COMRAM] unsigned char 
 11040 ;; Return value:  Size  Location     Type
 11041 ;;                  1    wreg      void 
 11042 ;; Registers used:
 11043 ;;		wreg, status,2, status,0, cstack
 11044 ;; Tracked objects:
 11045 ;;		On entry : 0/0
 11046 ;;		On exit  : 0/0
 11047 ;;		Unchanged: 0/0
 11048 ;; Data sizes:     COMRAM   BANK0   BANK1   BANK2   BANK3   BANK4   BANK5   BANK6   BANK7   BANK8   BANK9  BANK10  BANK1
      +1  BANK12  BANK13  BANK14  BANK15  BANK16  BANK17  BANK18  BANK19  BANK20  BANK21  BANK22  BANK23  BANK24  BANK25  BANK2
      +6  BANK27  BANK28  BANK29  BANK30  BANK31
 11049 ;;      Params:         0       0       0       0       0       0       0       0       0       0       0       0       
      +0       0       0       0       0       0       0       0       0       0       0       0       0       0       0       
      +0       0       0       0       0       0
 11050 ;;      Locals:         1       0       0       0       0       0       0       0       0       0       0       0       
      +0       0       0       0       0       0       0       0       0       0       0       0       0       0       0       
      +0       0       0       0       0       0
 11051 ;;      Temps:          0       0       0       0       0       0       0       0       0       0       0       0       
      +0       0       0       0       0       0       0       0       0       0       0       0       0       0       0       
      +0       0       0       0       0       0
 11052 ;;      Totals:         1       0       0       0       0       0       0       0       0       0       0       0       
      +0       0       0       0       0       0       0       0       0       0       0       0       0       0       0       
      +0       0       0       0       0       0
 11053 ;;Total ram usage:        1 bytes
 11054 ;; Hardware stack levels used: 1
 11055 ;; Hardware stack levels required when called: 1
 11056 ;; This function calls:
 11057 ;;		_MSdelay
 11058 ;; This function is called by:
 11059 ;;		_LCD_Init
 11060 ;;		_LCD_Clear
 11061 ;;		_LCD_String_xy
 11062 ;; This function uses a non-reentrant model
 11063 ;;
 11064                           
 11065                           	psect	text36
 11066   006102                     __ptext36:
 11067                           	callstack 0
 11068   006102                     _LCD_Command:
 11069                           	callstack 28
 11070                           
 11071                           ;incstack = 0
 11072                           ;LCD_Command@cmd stored from wreg
 11073   006102  6E07               	movwf	LCD_Command@cmd^0,c
 11074   006104                     
 11075                           ;./functions.h: 24: void LCD_Command(char cmd );./functions.h: 25: {;./functions.h: 26: 
      +                              LATB= cmd;
 11076   006104  0060  F01F  FFBB   	movff	LCD_Command@cmd,16315	;volatile
 11077   00610A                     
 11078                           ;./functions.h: 27:     LATDbits.LATD4 = 0;
 11079   00610A  98BD               	bcf	189,4,c	;volatile
 11080   00610C                     
 11081                           ;./functions.h: 28:     LATDbits.LATD5 = 1;
 11082   00610C  8ABD               	bsf	189,5,c	;volatile
 11083   00610E                     
 11084                           ;./functions.h: 29:     __nop();
 11085   00610E  0000               	nop	
 11086   006110                     
 11087                           ;./functions.h: 30:     LATDbits.LATD5 = 0;
 11088   006110  9ABD               	bcf	189,5,c	;volatile
 11089   006112                     
 11090                           ;./functions.h: 31:     MSdelay(3);
 11091   006112  0E00               	movlw	0
 11092   006114  6E02               	movwf	(MSdelay@val+1)^0,c
 11093   006116  0E03               	movlw	3
 11094   006118  6E01               	movwf	MSdelay@val^0,c
 11095   00611A  EC10  F02F         	call	_MSdelay	;wreg free
 11096   00611E  0012               	return		;funcret
 11097   006120                     __end_of_LCD_Command:
 11098                           	callstack 0
 11099                           
 11100 ;; *************** function _MSdelay *****************
 11101 ;; Defined at:
 11102 ;;		line 71 in file "./functions.h"
 11103 ;; Parameters:    Size  Location     Type
 11104 ;;  val             2    0[COMRAM] unsigned int 
 11105 ;; Auto vars:     Size  Location     Type
 11106 ;;  j               2    4[COMRAM] unsigned int 
 11107 ;;  i               2    2[COMRAM] unsigned int 
 11108 ;; Return value:  Size  Location     Type
 11109 ;;                  1    wreg      void 
 11110 ;; Registers used:
 11111 ;;		wreg, status,2, status,0
 11112 ;; Tracked objects:
 11113 ;;		On entry : 0/0
 11114 ;;		On exit  : 0/0
 11115 ;;		Unchanged: 0/0
 11116 ;; Data sizes:     COMRAM   BANK0   BANK1   BANK2   BANK3   BANK4   BANK5   BANK6   BANK7   BANK8   BANK9  BANK10  BANK1
      +1  BANK12  BANK13  BANK14  BANK15  BANK16  BANK17  BANK18  BANK19  BANK20  BANK21  BANK22  BANK23  BANK24  BANK25  BANK2
      +6  BANK27  BANK28  BANK29  BANK30  BANK31
 11117 ;;      Params:         2       0       0       0       0       0       0       0       0       0       0       0       
      +0       0       0       0       0       0       0       0       0       0       0       0       0       0       0       
      +0       0       0       0       0       0
 11118 ;;      Locals:         4       0       0       0       0       0       0       0       0       0       0       0       
      +0       0       0       0       0       0       0       0       0       0       0       0       0       0       0       
      +0       0       0       0       0       0
 11119 ;;      Temps:          0       0       0       0       0       0       0       0       0       0       0       0       
      +0       0       0       0       0       0       0       0       0       0       0       0       0       0       0       
      +0       0       0       0       0       0
 11120 ;;      Totals:         6       0       0       0       0       0       0       0       0       0       0       0       
      +0       0       0       0       0       0       0       0       0       0       0       0       0       0       0       
      +0       0       0       0       0       0
 11121 ;;Total ram usage:        6 bytes
 11122 ;; Hardware stack levels used: 1
 11123 ;; This function calls:
 11124 ;;		Nothing
 11125 ;; This function is called by:
 11126 ;;		_LCD_Init
 11127 ;;		_LCD_Command
 11128 ;;		_LCD_Char
 11129 ;;		_main
 11130 ;; This function uses a non-reentrant model
 11131 ;;
 11132                           
 11133                           	psect	text37
 11134   005E20                     __ptext37:
 11135                           	callstack 0
 11136   005E20                     _MSdelay:
 11137                           	callstack 30
 11138   005E20                     
 11139                           ;./functions.h: 71: void MSdelay(unsigned int val);./functions.h: 72: {;./functions.h: 7
      +                          3:      unsigned int i,j;;./functions.h: 74:         for(i=0;i<val;i++)
 11140   005E20  0E00               	movlw	0
 11141   005E22  6E04               	movwf	(MSdelay@i+1)^0,c
 11142   005E24  0E00               	movlw	0
 11143   005E26  6E03               	movwf	MSdelay@i^0,c
 11144   005E28  EF29  F02F         	goto	l3639
 11145   005E2C                     l3627:
 11146                           
 11147                           ;./functions.h: 75:             for(j=0;j<165;j++);
 11148   005E2C  0E00               	movlw	0
 11149   005E2E  6E06               	movwf	(MSdelay@j+1)^0,c
 11150   005E30  0E00               	movlw	0
 11151   005E32  6E05               	movwf	MSdelay@j^0,c
 11152   005E34                     l3633:
 11153   005E34  4A05               	infsnz	MSdelay@j^0,f,c
 11154   005E36  2A06               	incf	(MSdelay@j+1)^0,f,c
 11155   005E38  5006               	movf	(MSdelay@j+1)^0,w,c
 11156   005E3A  E109               	bnz	u3860
 11157   005E3C  0EA5               	movlw	165
 11158   005E3E  5C05               	subwf	MSdelay@j^0,w,c
 11159   005E40  A0D8               	btfss	status,0,c
 11160   005E42  EF25  F02F         	goto	u3861
 11161   005E46  EF27  F02F         	goto	u3860
 11162   005E4A                     u3861:
 11163   005E4A  EF1A  F02F         	goto	l3633
 11164   005E4E                     u3860:
 11165   005E4E  4A03               	infsnz	MSdelay@i^0,f,c
 11166   005E50  2A04               	incf	(MSdelay@i+1)^0,f,c
 11167   005E52                     l3639:
 11168   005E52  5001               	movf	MSdelay@val^0,w,c
 11169   005E54  5C03               	subwf	MSdelay@i^0,w,c
 11170   005E56  5002               	movf	(MSdelay@val+1)^0,w,c
 11171   005E58  5804               	subwfb	(MSdelay@i+1)^0,w,c
 11172   005E5A  A0D8               	btfss	status,0,c
 11173   005E5C  EF32  F02F         	goto	u3871
 11174   005E60  EF34  F02F         	goto	u3870
 11175   005E64                     u3871:
 11176   005E64  EF16  F02F         	goto	l3627
 11177   005E68                     u3870:
 11178   005E68  0012               	return		;funcret
 11179   005E6A                     __end_of_MSdelay:
 11180                           	callstack 0
 11181                           
 11182 ;; *************** function _ADC_Init *****************
 11183 ;; Defined at:
 11184 ;;		line 33 in file "./init.h"
 11185 ;; Parameters:    Size  Location     Type
 11186 ;;		None
 11187 ;; Auto vars:     Size  Location     Type
 11188 ;;		None
 11189 ;; Return value:  Size  Location     Type
 11190 ;;                  1    wreg      void 
 11191 ;; Registers used:
 11192 ;;		wreg, status,2
 11193 ;; Tracked objects:
 11194 ;;		On entry : 0/0
 11195 ;;		On exit  : 0/0
 11196 ;;		Unchanged: 0/0
 11197 ;; Data sizes:     COMRAM   BANK0   BANK1   BANK2   BANK3   BANK4   BANK5   BANK6   BANK7   BANK8   BANK9  BANK10  BANK1
      +1  BANK12  BANK13  BANK14  BANK15  BANK16  BANK17  BANK18  BANK19  BANK20  BANK21  BANK22  BANK23  BANK24  BANK25  BANK2
      +6  BANK27  BANK28  BANK29  BANK30  BANK31
 11198 ;;      Params:         0       0       0       0       0       0       0       0       0       0       0       0       
      +0       0       0       0       0       0       0       0       0       0       0       0       0       0       0       
      +0       0       0       0       0       0
 11199 ;;      Locals:         0       0       0       0       0       0       0       0       0       0       0       0       
      +0       0       0       0       0       0       0       0       0       0       0       0       0       0       0       
      +0       0       0       0       0       0
 11200 ;;      Temps:          0       0       0       0       0       0       0       0       0       0       0       0       
      +0       0       0       0       0       0       0       0       0       0       0       0       0       0       0       
      +0       0       0       0       0       0
 11201 ;;      Totals:         0       0       0       0       0       0       0       0       0       0       0       0       
      +0       0       0       0       0       0       0       0       0       0       0       0       0       0       0       
      +0       0       0       0       0       0
 11202 ;;Total ram usage:        0 bytes
 11203 ;; Hardware stack levels used: 1
 11204 ;; This function calls:
 11205 ;;		Nothing
 11206 ;; This function is called by:
 11207 ;;		_main
 11208 ;; This function uses a non-reentrant model
 11209 ;;
 11210                           
 11211                           	psect	text38
 11212   0060BC                     __ptext38:
 11213                           	callstack 0
 11214   0060BC                     _ADC_Init:
 11215                           	callstack 30
 11216   0060BC                     
 11217                           ;./init.h: 36:     ADCON0bits.FM = 1;
 11218   0060BC  013E               	movlb	62	; () banked
 11219   0060BE  51F8               	movf	248,w,b	;volatile
 11220   0060C0  0BF3               	andlw	-13
 11221   0060C2  0904               	iorlw	4
 11222   0060C4  6FF8               	movwf	248,b	;volatile
 11223   0060C6                     
 11224                           ; BSR set to: 62
 11225                           ;./init.h: 37:     ADCON0bits.CS = 1;
 11226   0060C6  89F8               	bsf	248,4,b	;volatile
 11227   0060C8                     
 11228                           ; BSR set to: 62
 11229                           ;./init.h: 39:     TRISAbits.TRISA0 = 1;
 11230   0060C8  80C2               	bsf	194,0,c	;volatile
 11231   0060CA                     
 11232                           ; BSR set to: 62
 11233                           ;./init.h: 40:     ANSELAbits.ANSELA0 = 1;
 11234   0060CA  013A               	movlb	58	; () banked
 11235   0060CC  8140               	bsf	64,0,b	;volatile
 11236   0060CE                     
 11237                           ; BSR set to: 58
 11238                           ;./init.h: 42:     ADPCH = 0x00;
 11239   0060CE  013E               	movlb	62	; () banked
 11240   0060D0  6BF1               	clrf	241,b	;volatile
 11241   0060D2                     
 11242                           ; BSR set to: 62
 11243                           ;./init.h: 43:     ADCLK = 0x00;
 11244   0060D2  6BFF               	clrf	255,b	;volatile
 11245   0060D4                     
 11246                           ; BSR set to: 62
 11247                           ;./init.h: 45:     ADRESH = 0x00;
 11248   0060D4  6BF0               	clrf	240,b	;volatile
 11249   0060D6                     
 11250                           ; BSR set to: 62
 11251                           ;./init.h: 46:     ADRESL = 0x00;
 11252   0060D6  6BEF               	clrf	239,b	;volatile
 11253   0060D8                     
 11254                           ; BSR set to: 62
 11255                           ;./init.h: 48:     ADPREL = 0x00;
 11256   0060D8  6BF6               	clrf	246,b	;volatile
 11257   0060DA                     
 11258                           ; BSR set to: 62
 11259                           ;./init.h: 49:     ADPREH = 0x00;
 11260   0060DA  6BF7               	clrf	247,b	;volatile
 11261   0060DC                     
 11262                           ; BSR set to: 62
 11263                           ;./init.h: 51:     ADACQL = 0x00;
 11264   0060DC  6BF3               	clrf	243,b	;volatile
 11265   0060DE                     
 11266                           ; BSR set to: 62
 11267                           ;./init.h: 52:     ADACQH = 0x00;
 11268   0060DE  6BF4               	clrf	244,b	;volatile
 11269   0060E0                     
 11270                           ; BSR set to: 62
 11271                           ;./init.h: 54:     ADCON0bits.ON = 1;
 11272   0060E0  8FF8               	bsf	248,7,b	;volatile
 11273   0060E2                     
 11274                           ; BSR set to: 62
 11275   0060E2  0012               	return		;funcret
 11276   0060E4                     __end_of_ADC_Init:
 11277                           	callstack 0
 11278                           
 11279                           	psect	rparam
 11280   000001                     ___rparam_used  equ	1
 11281   000000                     ___param_bank   equ	0
 11282   000000                     __Lparam        equ	__Lrparam
 11283   000000                     __Hparam        equ	__Hrparam
 11284                           
 11285                           	psect	config
 11286                           
 11287                           ;Config register CONFIG1L @ 0x300000
 11288                           ;	External Oscillator Selection
 11289                           ;	FEXTOSC = LP, LP (crystal oscillator) optimized for 32.768 kHz; PFM set to low power
 11290                           ;	Reset Oscillator Selection
 11291                           ;	RSTOSC = EXTOSC, EXTOSC operating per FEXTOSC bits (device manufacturing default)
 11292   300000                     	org	3145728
 11293   300000  F8                 	db	248
 11294                           
 11295                           ;Config register CONFIG1H @ 0x300001
 11296                           ;	Clock out Enable bit
 11297                           ;	CLKOUTEN = OFF, CLKOUT function is disabled
 11298                           ;	PRLOCKED One-Way Set Enable bit
 11299                           ;	PR1WAY = ON, PRLOCK bit can be cleared and set only once
 11300                           ;	Clock Switch Enable bit
 11301                           ;	CSWEN = ON, Writing to NOSC and NDIV is allowed
 11302                           ;	Fail-Safe Clock Monitor Enable bit
 11303                           ;	FCMEN = ON, Fail-Safe Clock Monitor enabled
 11304   300001                     	org	3145729
 11305   300001  FF                 	db	255
 11306                           
 11307                           ;Config register CONFIG2L @ 0x300002
 11308                           ;	MCLR Enable bit
 11309                           ;	MCLRE = EXTMCLR, If LVP = 0, MCLR pin is MCLR; If LVP = 1, RE3 pin function is MCLR
 11310                           ;	Power-up timer selection bits
 11311                           ;	PWRTS = PWRT_OFF, PWRT is disabled
 11312                           ;	Multi-vector enable bit
 11313                           ;	MVECEN = ON, Multi-vector enabled, Vector table used for interrupts
 11314                           ;	IVTLOCK bit One-way set enable bit
 11315                           ;	IVT1WAY = ON, IVTLOCK bit can be cleared and set only once
 11316                           ;	Low Power BOR Enable bit
 11317                           ;	LPBOREN = OFF, ULPBOR disabled
 11318                           ;	Brown-out Reset Enable bits
 11319                           ;	BOREN = SBORDIS, Brown-out Reset enabled , SBOREN bit is ignored
 11320   300002                     	org	3145730
 11321   300002  FF                 	db	255
 11322                           
 11323                           ;Config register CONFIG2H @ 0x300003
 11324                           ;	Brown-out Reset Voltage Selection bits
 11325                           ;	BORV = VBOR_2P45, Brown-out Reset Voltage (VBOR) set to 2.45V
 11326                           ;	ZCD Disable bit
 11327                           ;	ZCD = OFF, ZCD disabled. ZCD can be enabled by setting the ZCDSEN bit of ZCDCON
 11328                           ;	PPSLOCK bit One-Way Set Enable bit
 11329                           ;	PPS1WAY = ON, PPSLOCK bit can be cleared and set only once; PPS registers remain locke
      +                          d after one clear/set cycle
 11330                           ;	Stack Full/Underflow Reset Enable bit
 11331                           ;	STVREN = ON, Stack full/underflow will cause Reset
 11332                           ;	Debugger Enable bit
 11333                           ;	DEBUG = OFF, Background debugger disabled
 11334                           ;	Extended Instruction Set Enable bit
 11335                           ;	XINST = OFF, Extended Instruction Set and Indexed Addressing Mode disabled
 11336   300003                     	org	3145731
 11337   300003  FF                 	db	255
 11338                           
 11339                           ;Config register CONFIG3L @ 0x300004
 11340                           ;	WDT Period selection bits
 11341                           ;	WDTCPS = WDTCPS_31, Divider ratio 1:65536; software control of WDTPS
 11342                           ;	WDT operating mode
 11343                           ;	WDTE = OFF, WDT Disabled; SWDTEN is ignored
 11344   300004                     	org	3145732
 11345   300004  9F                 	db	159
 11346                           
 11347                           ;Config register CONFIG3H @ 0x300005
 11348                           ;	WDT Window Select bits
 11349                           ;	WDTCWS = WDTCWS_7, window always open (100%); software control; keyed access not requi
      +                          red
 11350                           ;	WDT input clock selector
 11351                           ;	WDTCCS = SC, Software Control
 11352   300005                     	org	3145733
 11353   300005  FF                 	db	255
 11354                           
 11355                           ;Config register CONFIG4L @ 0x300006
 11356                           ;	Boot Block Size selection bits
 11357                           ;	BBSIZE = BBSIZE_512, Boot Block size is 512 words
 11358                           ;	Boot Block enable bit
 11359                           ;	BBEN = OFF, Boot block disabled
 11360                           ;	Storage Area Flash enable bit
 11361                           ;	SAFEN = OFF, SAF disabled
 11362                           ;	Application Block write protection bit
 11363                           ;	WRTAPP = OFF, Application Block not write protected
 11364   300006                     	org	3145734
 11365   300006  FF                 	db	255
 11366                           
 11367                           ;Config register CONFIG4H @ 0x300007
 11368                           ;	Boot Block Write Protection bit
 11369                           ;	WRTB = OFF, Boot Block not write-protected
 11370                           ;	Configuration Register Write Protection bit
 11371                           ;	WRTC = OFF, Configuration registers not write-protected
 11372                           ;	Data EEPROM Write Protection bit
 11373                           ;	WRTD = OFF, Data EEPROM not write-protected
 11374                           ;	SAF Write protection bit
 11375                           ;	WRTSAF = OFF, SAF not Write Protected
 11376                           ;	Low Voltage Programming Enable bit
 11377                           ;	LVP = ON, Low voltage programming enabled. MCLR/VPP pin function is MCLR. MCLRE config
      +                          uration bit is ignored
 11378   300007                     	org	3145735
 11379   300007  FF                 	db	255
 11380                           
 11381                           ;Config register CONFIG5L @ 0x300008
 11382                           ;	PFM and Data EEPROM Code Protection bit
 11383                           ;	CP = OFF, PFM and Data EEPROM code protection disabled
 11384   300008                     	org	3145736
 11385   300008  FF                 	db	255
 11386                           
 11387                           ;Config register CONFIG5H @ 0x300009
 11388                           ;	unspecified, using default values
 11389   300009                     	org	3145737
 11390   300009  FF                 	db	255
 11391                           tosu	equ	0x3FFF
 11392                           tosh	equ	0x3FFE
 11393                           tosl	equ	0x3FFD
 11394                           stkptr	equ	0x3FFC
 11395                           pclatu	equ	0x3FFB
 11396                           pclath	equ	0x3FFA
 11397                           pcl	equ	0x3FF9
 11398                           tblptru	equ	0x3FF8
 11399                           tblptrh	equ	0x3FF7
 11400                           tblptrl	equ	0x3FF6
 11401                           tablat	equ	0x3FF5
 11402                           prodh	equ	0x3FF4
 11403                           prodl	equ	0x3FF3
 11404                           indf0	equ	0x3FEF
 11405                           postinc0	equ	0x3FEE
 11406                           postdec0	equ	0x3FED
 11407                           preinc0	equ	0x3FEC
 11408                           plusw0	equ	0x3FEB
 11409                           fsr0h	equ	0x3FEA
 11410                           fsr0l	equ	0x3FE9
 11411                           wreg	equ	0x3FE8
 11412                           indf1	equ	0x3FE7
 11413                           postinc1	equ	0x3FE6
 11414                           postdec1	equ	0x3FE5
 11415                           preinc1	equ	0x3FE4
 11416                           plusw1	equ	0x3FE3
 11417                           fsr1h	equ	0x3FE2
 11418                           fsr1l	equ	0x3FE1
 11419                           bsr	equ	0x3FE0
 11420                           indf2	equ	0x3FDF
 11421                           postinc2	equ	0x3FDE
 11422                           postdec2	equ	0x3FDD
 11423                           preinc2	equ	0x3FDC
 11424                           plusw2	equ	0x3FDB
 11425                           fsr2h	equ	0x3FDA
 11426                           fsr2l	equ	0x3FD9
 11427                           status	equ	0x3FD8

Data Sizes:
    Strings     190
    Constant    0
    Data        0
    BSS         127
    Persistent  0
    Stack       0

Auto Spaces:
    Space          Size  Autos    Used
    COMRAM           95     85      94
    BANK0           160     52      90
    BANK1           256      0      80
    BANK2           256      0       0
    BANK3           256      0       0
    BANK4           256      0       0
    BANK5           256      0       0
    BANK6           256      0       0
    BANK7           256      0       0
    BANK8           256      0       0
    BANK9           256      0       0
    BANK10          256      0       0
    BANK11          256      0       0
    BANK12          256      0       0
    BANK13          256      0       0
    BANK14          256      0       0
    BANK15          256      0       0
    BANK16          256      0       0
    BANK17          256      0       0
    BANK18          256      0       0
    BANK19          256      0       0
    BANK20          256      0       0
    BANK21          256      0       0
    BANK22          256      0       0
    BANK23          256      0       0
    BANK24          256      0       0
    BANK25          256      0       0
    BANK26          256      0       0
    BANK27          256      0       0
    BANK28          256      0       0
    BANK29          256      0       0
    BANK30          256      0       0
    BANK31          256      0       0

Pointer List with Targets:

    dtoa@fp	PTR struct _IO_FILE size(1) Largest target is 12
		 -> sprintf@f(COMRAM[11]), 

    efgtoa@fp	PTR struct _IO_FILE size(1) Largest target is 12
		 -> sprintf@f(COMRAM[11]), 

    f$.$buffer	PTR unsigned char  size(1) Largest target is 10
		 -> data(BANK0[10]), 

    f$.$source	PTR const unsigned char  size(2) Largest target is 0

    fputc@fp	PTR struct _IO_FILE size(1) Largest target is 12
		 -> sprintf@f(COMRAM[11]), 

    fputc@fp$.$buffer	PTR unsigned char  size(1) Largest target is 10
		 -> data(BANK0[10]), 

    fputc@fp$.$source	PTR const unsigned char  size(2) Largest target is 0

    fputs@fp	PTR struct _IO_FILE size(1) Largest target is 12
		 -> sprintf@f(COMRAM[11]), 

    fputs@s	PTR const unsigned char  size(2) Largest target is 80
		 -> dbuf(BANK1[80]), 

    LCD_String@msg	PTR const unsigned char  size(2) Largest target is 18
		 -> data(BANK0[10]), STR_11(CODE[13]), STR_12(CODE[10]), STR_13(CODE[13]), 
		 -> STR_14(CODE[17]), STR_15(CODE[16]), STR_16(CODE[17]), STR_17(CODE[13]), 
		 -> STR_18(CODE[5]), STR_2(CODE[18]), STR_20(CODE[13]), STR_22(CODE[13]), 
		 -> STR_23(CODE[10]), STR_24(CODE[13]), STR_25(CODE[17]), STR_26(CODE[16]), 
		 -> STR_27(CODE[17]), STR_28(CODE[13]), STR_29(CODE[5]), STR_3(CODE[15]), 
		 -> STR_31(CODE[13]), STR_33(CODE[13]), STR_34(CODE[10]), STR_35(CODE[13]), 
		 -> STR_36(CODE[13]), STR_37(CODE[4]), STR_39(CODE[13]), STR_4(CODE[15]), 
		 -> STR_41(CODE[13]), STR_42(CODE[5]), STR_44(CODE[13]), STR_46(CODE[13]), 
		 -> STR_47(CODE[10]), STR_48(CODE[13]), STR_49(CODE[13]), STR_5(CODE[15]), 
		 -> STR_50(CODE[5]), STR_52(CODE[13]), STR_54(CODE[13]), STR_55(CODE[10]), 
		 -> STR_56(CODE[13]), STR_57(CODE[13]), STR_58(CODE[5]), STR_6(CODE[13]), 
		 -> STR_60(CODE[13]), STR_62(CODE[13]), STR_63(CODE[10]), STR_64(CODE[10]), 
		 -> STR_65(CODE[13]), STR_7(CODE[5]), STR_9(CODE[13]), 

    LCD_String_xy@msg	PTR const unsigned char  size(2) Largest target is 18
		 -> data(BANK0[10]), STR_11(CODE[13]), STR_12(CODE[10]), STR_13(CODE[13]), 
		 -> STR_14(CODE[17]), STR_15(CODE[16]), STR_16(CODE[17]), STR_17(CODE[13]), 
		 -> STR_18(CODE[5]), STR_2(CODE[18]), STR_20(CODE[13]), STR_22(CODE[13]), 
		 -> STR_23(CODE[10]), STR_24(CODE[13]), STR_25(CODE[17]), STR_26(CODE[16]), 
		 -> STR_27(CODE[17]), STR_28(CODE[13]), STR_29(CODE[5]), STR_3(CODE[15]), 
		 -> STR_31(CODE[13]), STR_33(CODE[13]), STR_34(CODE[10]), STR_35(CODE[13]), 
		 -> STR_36(CODE[13]), STR_37(CODE[4]), STR_39(CODE[13]), STR_4(CODE[15]), 
		 -> STR_41(CODE[13]), STR_42(CODE[5]), STR_44(CODE[13]), STR_46(CODE[13]), 
		 -> STR_47(CODE[10]), STR_48(CODE[13]), STR_49(CODE[13]), STR_5(CODE[15]), 
		 -> STR_50(CODE[5]), STR_52(CODE[13]), STR_54(CODE[13]), STR_55(CODE[10]), 
		 -> STR_56(CODE[13]), STR_57(CODE[13]), STR_58(CODE[5]), STR_6(CODE[13]), 
		 -> STR_60(CODE[13]), STR_62(CODE[13]), STR_63(CODE[10]), STR_64(CODE[10]), 
		 -> STR_65(CODE[13]), STR_7(CODE[5]), STR_9(CODE[13]), 

    memcpy@d	PTR unsigned char  size(2) Largest target is 80
		 -> dbuf(BANK1[80]), 

    memcpy@d1	PTR void  size(2) Largest target is 80
		 -> dbuf(BANK1[80]), 

    memcpy@s	PTR const unsigned char  size(2) Largest target is 80
		 -> dbuf(BANK1[80]), 

    memcpy@s1	PTR const void  size(2) Largest target is 80
		 -> dbuf(BANK1[80]), 

    pad@buf	PTR unsigned char  size(2) Largest target is 80
		 -> dbuf(BANK1[80]), 

    pad@fp	PTR struct _IO_FILE size(1) Largest target is 12
		 -> sprintf@f(COMRAM[11]), 

    read_prec_or_width@ap	PTR PTR void [1] size(1) Largest target is 1
		 -> sprintf@ap(COMRAM[1]), 

    read_prec_or_width@fmt	PTR PTR const unsigned char  size(1) Largest target is 1
		 -> vfprintf@cfmt(COMRAM[1]), 

    S835$buffer	PTR unsigned char  size(1) Largest target is 10
		 -> data(BANK0[10]), 

    S835$source	PTR const unsigned char  size(2) Largest target is 0

    sp__memcpy	PTR void  size(2) Largest target is 80
		 -> dbuf(BANK1[80]), 

    sp__strcat	PTR unsigned char  size(1) Largest target is 10
		 -> data(BANK0[10]), 

    sp__strcpy	PTR unsigned char  size(2) Largest target is 80
		 -> dbuf(BANK1[80]), 

    sprintf@ap	PTR void [1] size(1) Largest target is 2
		 -> ?_sprintf(BANK0[2]), 

    sprintf@fmt	PTR const unsigned char  size(1) Largest target is 6
		 -> STR_1(CODE[5]), STR_10(CODE[5]), STR_19(CODE[5]), STR_21(CODE[5]), 
		 -> STR_30(CODE[5]), STR_32(CODE[5]), STR_38(CODE[6]), STR_43(CODE[5]), 
		 -> STR_45(CODE[5]), STR_51(CODE[5]), STR_53(CODE[5]), STR_59(CODE[5]), 
		 -> STR_61(CODE[5]), STR_8(CODE[5]), 

    sprintf@s	PTR unsigned char  size(1) Largest target is 10
		 -> data(BANK0[10]), 

    strcat@dest	PTR unsigned char  size(1) Largest target is 10
		 -> data(BANK0[10]), 

    strcat@src	PTR const unsigned char  size(1) Largest target is 3
		 -> STR_40(CODE[3]), 

    strcpy@d	PTR unsigned char  size(2) Largest target is 80
		 -> dbuf(BANK1[80]), 

    strcpy@dest	PTR unsigned char  size(2) Largest target is 80
		 -> dbuf(BANK1[80]), 

    strcpy@src	PTR const unsigned char  size(1) Largest target is 4
		 -> STR_66(CODE[4]), STR_69(CODE[4]), 

    vfpfcnvrt@ap	PTR PTR void  size(1) Largest target is 1
		 -> sprintf@ap(COMRAM[1]), 

    vfpfcnvrt@cp	PTR unsigned char  size(1) Largest target is 6
		 -> STR_1(CODE[5]), STR_10(CODE[5]), STR_19(CODE[5]), STR_21(CODE[5]), 
		 -> STR_30(CODE[5]), STR_32(CODE[5]), STR_38(CODE[6]), STR_43(CODE[5]), 
		 -> STR_45(CODE[5]), STR_51(CODE[5]), STR_53(CODE[5]), STR_59(CODE[5]), 
		 -> STR_61(CODE[5]), STR_8(CODE[5]), 

    vfpfcnvrt@fmt	PTR PTR unsigned char  size(1) Largest target is 1
		 -> vfprintf@cfmt(COMRAM[1]), 

    vfpfcnvrt@fp	PTR struct _IO_FILE size(1) Largest target is 12
		 -> sprintf@f(COMRAM[11]), 

    vfprintf@ap	PTR PTR void  size(1) Largest target is 1
		 -> sprintf@ap(COMRAM[1]), 

    vfprintf@cfmt	PTR unsigned char  size(1) Largest target is 6
		 -> STR_1(CODE[5]), STR_10(CODE[5]), STR_19(CODE[5]), STR_21(CODE[5]), 
		 -> STR_30(CODE[5]), STR_32(CODE[5]), STR_38(CODE[6]), STR_43(CODE[5]), 
		 -> STR_45(CODE[5]), STR_51(CODE[5]), STR_53(CODE[5]), STR_59(CODE[5]), 
		 -> STR_61(CODE[5]), STR_8(CODE[5]), 

    vfprintf@fmt	PTR const unsigned char  size(1) Largest target is 6
		 -> STR_1(CODE[5]), STR_10(CODE[5]), STR_19(CODE[5]), STR_21(CODE[5]), 
		 -> STR_30(CODE[5]), STR_32(CODE[5]), STR_38(CODE[6]), STR_43(CODE[5]), 
		 -> STR_45(CODE[5]), STR_51(CODE[5]), STR_53(CODE[5]), STR_59(CODE[5]), 
		 -> STR_61(CODE[5]), STR_8(CODE[5]), 

    vfprintf@fp	PTR struct _IO_FILE size(1) Largest target is 12
		 -> sprintf@f(COMRAM[11]), 


Critical Paths under _main in COMRAM

    _main->_sprintf
    _sprintf->_vfprintf
    _vfprintf->_vfpfcnvrt
    _vfpfcnvrt->_efgtoa
    _efgtoa->___flge
    _floorf->___fldiv
    ___flsub->___flmul
    ___flmul->___xxtofl
    ___flge->___flmul
    ___fleq->___xxtofl
    _dtoa->_abs
    _pad->_fputs
    _fputs->_fputc
    _abs->___awmod
    ___awmod->_rand
    _rand->___lmul
    _LCD_String_xy->_LCD_String
    _LCD_String->_LCD_Char
    _LCD_Char->_MSdelay
    _LCD_Init->_LCD_Command
    _LCD_Clear->_LCD_Command
    _LCD_Command->_MSdelay

Critical Paths under _main in BANK0

    _main->_sprintf
    _vfpfcnvrt->_efgtoa

Critical Paths under _main in BANK1

    None.

Critical Paths under _main in BANK2

    None.

Critical Paths under _main in BANK3

    None.

Critical Paths under _main in BANK4

    None.

Critical Paths under _main in BANK5

    None.

Critical Paths under _main in BANK6

    None.

Critical Paths under _main in BANK7

    None.

Critical Paths under _main in BANK8

    None.

Critical Paths under _main in BANK9

    None.

Critical Paths under _main in BANK10

    None.

Critical Paths under _main in BANK11

    None.

Critical Paths under _main in BANK12

    None.

Critical Paths under _main in BANK13

    None.

Critical Paths under _main in BANK14

    None.

Critical Paths under _main in BANK15

    None.

Critical Paths under _main in BANK16

    None.

Critical Paths under _main in BANK17

    None.

Critical Paths under _main in BANK18

    None.

Critical Paths under _main in BANK19

    None.

Critical Paths under _main in BANK20

    None.

Critical Paths under _main in BANK21

    None.

Critical Paths under _main in BANK22

    None.

Critical Paths under _main in BANK23

    None.

Critical Paths under _main in BANK24

    None.

Critical Paths under _main in BANK25

    None.

Critical Paths under _main in BANK26

    None.

Critical Paths under _main in BANK27

    None.

Critical Paths under _main in BANK28

    None.

Critical Paths under _main in BANK29

    None.

Critical Paths under _main in BANK30

    None.

Critical Paths under _main in BANK31

    None.

Call Graph Tables:

 ---------------------------------------------------------------------------------
 (Depth) Function   	        Calls       Base Space   Used Autos Params    Refs
 ---------------------------------------------------------------------------------
 (0) _main                                                 2     2      0   22082
                                             50 BANK0      2     2      0
                           _ADC_Init
                          _LCD_Clear
                           _LCD_Init
                      _LCD_String_xy
                            _MSdelay
                            ___awmod
                            ___fladd
                             ___fleq
                             ___flge
                            ___flmul
                            ___flsub
                           ___xxtofl
                               _rand
                            _sprintf
                             _strcat
 ---------------------------------------------------------------------------------
 (1) _strcat                                               4     2      2     122
                                              0 COMRAM     4     2      2
 ---------------------------------------------------------------------------------
 (1) _sprintf                                             20    14      6   14359
                                             73 COMRAM    12    12      0
                                             44 BANK0      6     0      6
                           _vfprintf
 ---------------------------------------------------------------------------------
 (2) _vfprintf                                             4     1      3   14126
                                             69 COMRAM     4     1      3
                          _vfpfcnvrt
 ---------------------------------------------------------------------------------
 (3) _vfpfcnvrt                                           11     8      3   13989
                                             59 COMRAM    10     7      3
                               _dtoa
                             _efgtoa
                              _fputc
                 _read_prec_or_width
 ---------------------------------------------------------------------------------
 (4) _read_prec_or_width                                   7     5      2     184
                                              0 COMRAM     7     5      2
 ---------------------------------------------------------------------------------
 (4) _efgtoa                                              53    47      6   11020
                                             51 COMRAM     8     2      6
                                              0 BANK0     44    44      0
                            ___fladd
                            ___fldiv
                             ___fleq
                             ___flge
                            ___flmul
                            ___flneg
                            ___flsub
                            ___fltol
                      ___fpclassifyf
                             _floorf
                               _labs
                             _memcpy
                                _pad
                             _strcpy
 ---------------------------------------------------------------------------------
 (5) _strcpy                                               6     3      3      77
                                              0 COMRAM     6     3      3
 ---------------------------------------------------------------------------------
 (5) _memcpy                                              11     5      6     146
                                              0 COMRAM    11     5      6
 ---------------------------------------------------------------------------------
 (5) _labs                                                 8     4      4      69
                                              0 COMRAM     8     4      4
 ---------------------------------------------------------------------------------
 (5) _floorf                                              20    16      4     340
                                             25 COMRAM    20    16      4
                            ___fldiv (ARG)
 ---------------------------------------------------------------------------------
 (5) ___fpclassifyf                                       14    10      4     137
                                              0 COMRAM    14    10      4
 ---------------------------------------------------------------------------------
 (5) ___fltol                                             10     6      4     232
                                              0 COMRAM    10     6      4
 ---------------------------------------------------------------------------------
 (5) ___flsub                                              8     0      8    2061
                                             39 COMRAM     8     0      8
                            ___fladd
                            ___flmul (ARG)
 ---------------------------------------------------------------------------------
 (6) ___fladd                                             16     8      8    2000
                                              0 COMRAM    16     8      8
 ---------------------------------------------------------------------------------
 (5) ___flneg                                              4     0      4      46
                                              0 COMRAM     4     0      4
 ---------------------------------------------------------------------------------
 (5) ___flmul                                             25    17      8    1480
                                             14 COMRAM    25    17      8
                           ___xxtofl (ARG)
 ---------------------------------------------------------------------------------
 (5) ___flge                                              12     4      8     198
                                             39 COMRAM    12     4      8
                            ___flmul (ARG)
 ---------------------------------------------------------------------------------
 (5) ___fleq                                              12     4      8     116
                                             14 COMRAM    12     4      8
                           ___xxtofl (ARG)
 ---------------------------------------------------------------------------------
 (5) ___fldiv                                             25    17      8    1131
                                              0 COMRAM    25    17      8
 ---------------------------------------------------------------------------------
 (4) _dtoa                                                12     9      3    1815
                                             28 COMRAM    12     9      3
                            ___awdiv
                            ___awmod
                                _abs
                                _pad
 ---------------------------------------------------------------------------------
 (5) _pad                                                  8     3      5     756
                                             14 COMRAM     8     3      5
                              _fputc
                              _fputs
 ---------------------------------------------------------------------------------
 (6) _fputs                                                6     3      3     333
                                              8 COMRAM     6     3      3
                              _fputc
 ---------------------------------------------------------------------------------
 (4) _fputc                                                8     5      3     232
                                              0 COMRAM     8     5      3
                              _putch
 ---------------------------------------------------------------------------------
 (5) _putch                                                1     1      0       0
 ---------------------------------------------------------------------------------
 (5) _abs                                                  4     2      2      67
                                             24 COMRAM     4     2      2
                            ___awmod (ARG)
 ---------------------------------------------------------------------------------
 (5) ___awmod                                              6     2      4     300
                                             18 COMRAM     6     2      4
                               _rand (ARG)
 ---------------------------------------------------------------------------------
 (5) ___awdiv                                              8     4      4     302
                                              0 COMRAM     8     4      4
 ---------------------------------------------------------------------------------
 (1) _rand                                                 6     4      2      94
                                             12 COMRAM     6     4      2
                             ___lmul
 ---------------------------------------------------------------------------------
 (2) ___lmul                                              12     4      8      94
                                              0 COMRAM    12     4      8
 ---------------------------------------------------------------------------------
 (1) ___xxtofl                                            14    10      4     344
                                              0 COMRAM    14    10      4
 ---------------------------------------------------------------------------------
 (1) _LCD_String_xy                                        5     2      3     566
                                              9 COMRAM     5     2      3
                        _LCD_Command
                         _LCD_String
 ---------------------------------------------------------------------------------
 (2) _LCD_String                                           2     0      2     171
                                              7 COMRAM     2     0      2
                           _LCD_Char
 ---------------------------------------------------------------------------------
 (3) _LCD_Char                                             1     1      0     125
                                              6 COMRAM     1     1      0
                            _MSdelay
 ---------------------------------------------------------------------------------
 (1) _LCD_Init                                             0     0      0     221
                        _LCD_Command
                            _MSdelay
 ---------------------------------------------------------------------------------
 (1) _LCD_Clear                                            0     0      0     125
                        _LCD_Command
 ---------------------------------------------------------------------------------
 (2) _LCD_Command                                          1     1      0     125
                                              6 COMRAM     1     1      0
                            _MSdelay
 ---------------------------------------------------------------------------------
 (1) _MSdelay                                              6     4      2      96
                                              0 COMRAM     6     4      2
 ---------------------------------------------------------------------------------
 (1) _ADC_Init                                             0     0      0       0
 ---------------------------------------------------------------------------------
 Estimated maximum stack depth 6
 ---------------------------------------------------------------------------------

 Call Graph Graphs:

 _main (ROOT)
   _ADC_Init
   _LCD_Clear
     _LCD_Command
       _MSdelay
   _LCD_Init
     _LCD_Command
     _MSdelay
   _LCD_String_xy
     _LCD_Command
     _LCD_String
       _LCD_Char
         _MSdelay
   _MSdelay
   ___awmod
     _rand (ARG)
       ___lmul
   ___fladd
   ___fleq
     ___xxtofl (ARG)
   ___flge
     ___flmul (ARG)
       ___xxtofl (ARG)
   ___flmul
   ___flsub
     ___fladd
     ___flmul (ARG)
   ___xxtofl
   _rand
   _sprintf
     _vfprintf
       _vfpfcnvrt
         _dtoa
           ___awdiv
           ___awmod
           _abs
             ___awmod (ARG)
           _pad
             _fputc
               _putch
             _fputs
               _fputc
         _efgtoa
           ___fladd
           ___fldiv
           ___fleq
           ___flge
           ___flmul
           ___flneg
           ___flsub
           ___fltol
           ___fpclassifyf
           _floorf
             ___fldiv (ARG)
           _labs
           _memcpy
           _pad
           _strcpy
         _fputc
         _read_prec_or_width
   _strcat

Address spaces:
Name               Size   Autos  Total    Usage
BIGRAM            8191      0       0      0.0%
BITBIGSFRlh       1205      0       0      0.0%
BITBIGSFRll        576      0       0      0.0%
BITBIGSFRh         263      0       0      0.0%
BITBANK31          256      0       0      0.0%
BANK31             256      0       0      0.0%
BITBANK30          256      0       0      0.0%
BANK30             256      0       0      0.0%
BITBANK29          256      0       0      0.0%
BANK29             256      0       0      0.0%
BITBANK28          256      0       0      0.0%
BANK28             256      0       0      0.0%
BITBANK27          256      0       0      0.0%
BANK27             256      0       0      0.0%
BITBANK26          256      0       0      0.0%
BANK26             256      0       0      0.0%
BITBANK25          256      0       0      0.0%
BANK25             256      0       0      0.0%
BITBANK24          256      0       0      0.0%
BANK24             256      0       0      0.0%
BITBANK23          256      0       0      0.0%
BANK23             256      0       0      0.0%
BITBANK22          256      0       0      0.0%
BANK22             256      0       0      0.0%
BITBANK21          256      0       0      0.0%
BANK21             256      0       0      0.0%
BITBANK20          256      0       0      0.0%
BANK20             256      0       0      0.0%
BITBANK19          256      0       0      0.0%
BANK19             256      0       0      0.0%
BITBANK18          256      0       0      0.0%
BANK18             256      0       0      0.0%
BITBANK17          256      0       0      0.0%
BANK17             256      0       0      0.0%
BITBANK16          256      0       0      0.0%
BANK16             256      0       0      0.0%
BITBANK15          256      0       0      0.0%
BANK15             256      0       0      0.0%
BITBANK14          256      0       0      0.0%
BANK14             256      0       0      0.0%
BITBANK13          256      0       0      0.0%
BANK13             256      0       0      0.0%
BITBANK12          256      0       0      0.0%
BANK12             256      0       0      0.0%
BITBANK11          256      0       0      0.0%
BANK11             256      0       0      0.0%
BITBANK10          256      0       0      0.0%
BANK10             256      0       0      0.0%
BITBANK9           256      0       0      0.0%
BANK9              256      0       0      0.0%
BITBANK8           256      0       0      0.0%
BANK8              256      0       0      0.0%
BITBANK7           256      0       0      0.0%
BANK7              256      0       0      0.0%
BITBANK6           256      0       0      0.0%
BANK6              256      0       0      0.0%
BITBANK5           256      0       0      0.0%
BANK5              256      0       0      0.0%
BITBANK4           256      0       0      0.0%
BANK4              256      0       0      0.0%
BITBANK3           256      0       0      0.0%
BANK3              256      0       0      0.0%
BITBANK2           256      0       0      0.0%
BANK2              256      0       0      0.0%
BITBANK1           256      0       0      0.0%
BANK1              256      0      80     31.2%
BITBANK0           160      0       0      0.0%
BANK0              160     52      90     56.2%
BITCOMRAM           95      0       0      0.0%
COMRAM              95     85      94     98.9%
STACK                0      0       0      0.0%
DATA                 0      0     263      0.0%


Microchip Technology PIC18 Macro Assembler V3.00 build 20241204225717 
Symbol Table                                                                                   Thu May 08 00:48:19 2025

              ___fldiv@aexp 0019                ___fldiv@bexp 0018                ___fldiv@sign 0011  
              ?_LCD_Command 0001                          l70 605C                          l73 6126  
                        l90 5FB8                          l67 60E2                          l76 611E  
                        l85 5C34                          l79 6100                          l98 5E68  
              ___awdiv@sign 0006                 ?_LCD_String 0008                         l130 2400  
                       l117 20C0                         l119 20E4                         l144 2A5C  
                       l161 30A8                         l153 2DC6                         l137 2738  
                       l414 5874                         l169 3372                         l194 5CFC  
                       l442 5B30                         l195 5D0C                         l427 59DA  
                       l453 56B4                         l711 41FE                         l448 566E  
                       l720 44CA                         l712 41EC                         l480 55B0  
                       l801 4914                         l457 5FF0                         l713 41B2  
                       l900 5362                         l804 47AA                         l805 47C8  
                       l725 43A6                         l902 536A                         l814 48D6  
                       l806 4820                         l903 53B0                         l807 480E  
                       l744 448E                         l728 4318                         l841 5330  
                       l737 43E6                         l753 5EF4                         l914 54AA  
                       l770 4ACC                         l738 43D4                         l930 37FA  
                       l852 52C8                         l845 526C                         l765 4CA4  
                       l925 4014                         l861 6026                         l838 51D4  
                       l767 4B08                         l776 4B4E                         l928 39B4  
                       l777 4B6C                         l778 4BC4                         l970 5924  
                       l891 5B66                         l779 4BB2                         l797 4590  
                       l894 5BA4                         l958 3DFA                         l974 592C  
                       l983 4F6A                         l896 5BC2                         l989 4E14  
                       _abs 605E                         _pad 5B32                         _num 005A  
              ___awmod@sign 0018                         wreg 3FE8                ___flmul@aexp 0020  
              ___flmul@bexp 0021                ___flmul@sign 001B                ___flmul@temp 0026  
              ___flmul@prod 0022                 LCD_Char@dat 0007                ___fltol@exp1 000A  
                      l1020 6078                        l1005 5F38                        l1023 6090  
                      l1015 57B2                        l1032 50C0                        l1043 5E1E  
                      ?_abs 0019                        l1061 5A86                        l1029 517C  
                      l1080 5CA2                        l1072 6128                        l3001 4268  
                      l1049 5DC8                        l3003 426C                        l3011 428C  
                      l1069 5F78                        l3101 4952                        l3013 42B2  
                      l3021 4308                        l3005 427A                        l3111 4980  
                      l3103 4962                        l3031 435C                        l3023 432E  
                      l3015 42E6                        l3007 427C                        l1095 5EAE  
                      l3201 4C1C                        l3121 49B6                        l3113 4986  
                      l3105 4964                        l3041 4386                        l3033 436A  
                      l3025 433E                        l3017 42E8                        l3009 4286  
                      l4001 4F42                        l1089 5D6E                        l4011 610C  
                      l3211 4C80                        l3203 4C36                        l3131 49F4  
                      l3123 49C6                        l3115 4994                        l3107 496A  
                      l3043 4396                        l3035 436C                        l3019 42F8  
                      l4013 610E                        l4021 5BC8                        l4101 5F8C  
                      l3213 4C84                        l3205 4C4C                        l3133 4A04  
                      l3141 4A24                        l3125 49C8                        l3117 4996  
                      l3109 497A                        l3301 4704                        l3053 43F6  
                      l3061 444C                        l3037 437A                        l3029 4352  
                      l3045 4398                        l4015 6110                        l4007 6104  
                      l4023 5BF6                        l4103 5F94                        l4031 5CC2  
                      l3215 4C92                        l3207 4C66                        l3151 4A62  
                      l3143 4A34                        l3135 4A0C                        l3119 49A6  
                      l3127 49CE                        l3311 479A                        l3303 472E  
                      l3231 44E6                        l3071 44A2                        l3063 445C  
                      l3055 4402                        l3047 43B6                        l3039 4382  
                      l4111 5FF2                        l4017 6112                        l4009 610A  
                      l4025 5BFA                        l4105 5F9E                        l4033 5CD2  
                      l3401 586C                        l3217 4C98                        l3209 4C7E  
                      l3161 4AA8                        l3153 4A72                        l3145 4A34  
                      l3137 4A10                        l3129 49DE                        l3313 47A8  
                      l3305 4764                        l3241 451E                        l3233 44E8  
                      l3073 44A4                        l3065 446C                        l3057 4410  
                      l3049 43CC                        l4041 5F0E                        l4113 5FFA  
                      l5001 304A                        l4051 60C8                        l4019 5BC4  
                      l4107 5FA6                        l4035 5CDC                        l4027 5CA4  
                      l4123 5C36                        l3411 5946                        l3083 5F3A  
                      l3219 4C9A                        l3171 4AF6                        l3163 4ABC  
                      l3155 4A82                        l3091 4916                        l3323 4830  
                      l3331 4878                        l3315 47BA                        l3307 4772  
                      l3251 454A                        l3243 452E                        l3235 44F8  
                      l3227 44CC                        l3075 44AA                        l3067 448C  
                      l3059 444A                        l4043 5F30                        l4115 6002  
                      l4131 5D1A                        l5011 30B6                        l5003 3064  
                      l4061 60D6                        l4053 60CA                        l4109 5FAC  
                      l4141 5190                        l4029 5CB4                        l4125 5C74  
                      l3421 597A                        l3413 594A                        l3405 592E  
                      l3085 5F46                        l3181 4B3E                        l3173 4B06  
                      l3165 4ACA                        l3157 4A92                        l3149 4A48  
                      l3093 4922                        l3341 48DA                        l3333 4892  
                      l3325 483C                        l3317 47D8                        l3309 4790  
                      l3261 45A0                        l3253 455A                        l3245 4534  
                      l3237 4508                        l3229 44D8                        l3077 44B8  
                      l3069 449C                        l3501 5516                        l4037 5EF6  
                      l4117 600A                        l4133 5D1E                        l5101 3558  
                      l5013 30EA                        l5021 3148                        l5005 3066  
                      l4071 60E0                        l4063 60D8                        l4055 60CE  
                      l4047 60BC                        l4151 520E                        l4143 519E  
                      l3431 59B4                        l3423 5982                        l3415 5958  
                      l3407 5930                        l3087 5F54                        l3183 4B4C  
                      l3175 4B18                        l3167 4AD6                        l3159 4A98  
                      l3095 4930                        l3351 4904                        l3343 48EA  
                      l3335 48A6                        l3327 484A                        l3319 4806  
                      l3271 45DE                        l3263 45B0                        l3255 456A  
                      l3247 453A                        l3239 4518                        l3079 44BA  
                      l3511 5546                        l3503 5524                        l4039 5EFE  
                      l4119 601A                        l4135 5D3A                        l5111 35B6  
                      l5103 356E                        l5031 31D8                        l5023 3156  
                      l5015 3104                        l5007 3078                        l4065 60DA  
                      l4057 60D2                        l4049 60C6                        l4081 603C  
                      l4073 6028                        l4161 5262                        l4153 5216  
                      l4145 51E4                        l3361 57B4                        l3425 5990  
                      l3433 59BA                        l3417 5960                        l3409 593E  
                      l3089 5F58                        l3193 4BD4                        l3177 4B2E  
                      l3185 4B5E                        l3169 4AF4                        l3097 4932  
                      l3441 5A88                        l3345 48F8                        l3337 48C0  
                      l3329 4874                        l3281 4638                        l3273 45F8  
                      l3257 457A                        l3249 4548                        l3521 5570  
                      l3513 5550                        l3601 50E4                        l4137 5D40  
                      l4129 5D0E                        l5121 35FE                        l5113 35D0  
                      l5105 3588                        l5041 325A                        l5025 318A  
                      l5017 3122                        l5033 31E8                        l5009 308E  
                      l4067 60DC                        l4059 60D4                        l4091 6050  
                      l4083 6040                        l4075 6034                        l4171 52D8  
                      l4163 529E                        l4155 5222                        l4147 51FA  
                      l4139 5180                        l3371 57DE                        l3363 57B6  
                      l3435 59CA                        l3427 59A6                        l3419 5972  
                      l3531 5B32                        l3195 4BE0                        l3187 4B7C  
                      l3179 4B34                        l3099 4942                        l3451 5B28  
                      l3443 5AB6                        l3347 48FA                        l3339 48D0  
                      l3291 4686                        l3283 4646                        l3275 4604  
                      l3267 45C4                        l3259 4580                        l3355 5EB0  
                      l3523 5580                        l3603 5120                        l5123 3618  
                      l5107 359C                        l5051 32A2                        l5043 3274  
                      l5035 31F6                        l5027 31A4                        l5019 3138  
                      l4069 60DE                        l4093 6056                        l4085 6042  
                      l4077 6036                        l4181 5320                        l4173 52DC  
                      l4165 52AA                        l4157 5254                        l3381 580C  
                      l3373 57E6                        l3365 57C4                        l3437 59D2  
                      l3429 59AE                        l3541 5B82                        l3533 5B40  
                      l3197 4BEE                        l3189 4BAA                        l3453 5B2E  
                      l3445 5AC6                        l3461 55F0                        l3349 4900  
                      l3293 46A4                        l3285 4656                        l3277 4620  
                      l3269 45D4                        l2901 4062                        l3357 5EC0  
                      l3525 5590                        l3509 553C                        l3605 5134  
                      l3621 5DAA                        l3613 5D70                        l3701 36AC  
                      l5109 35A0                        l5117 35E4                        l5061 3314  
                      l5053 32BC                        l5037 3240                        l5029 31C2  
                      l4095 6120                        l4087 6044                        l4079 603A  
                      l4175 5300                        l4167 52B8                        l4159 5256  
                      l3391 5846                        l3383 5814                        l3375 57EA  
                      l3367 57CC                        l3543 5B86                        l3535 5B50  
                      l3199 4C18                        l3447 5AF4                        l3471 565C  
                      l3463 561E                        l3295 46B4                        l3287 4666  
                      l3279 462C                        l2911 4092                        l2903 4064  
                      l3527 55A0                        l3519 5564                        l3551 56B6  
                      l3607 515C                        l3615 5D84                        l3623 5DAE  
                      l3711 36FC                        l3703 36B8                        l5119 35E8  
                      l5071 3380                        l5063 332E                        l5039 3244  
                      l5047 3288                        l5055 32D0                        l3633 5E34  
                      l3625 5E20                        l4089 604A                        l4097 5F7C  
                      l4177 5310                        l4169 52D6                        l3393 5848  
                      l3385 5822                        l3377 57F2                        l3369 57D0  
                      l3545 5BB2                        l3537 5B5E                        l3641 5332  
                      l3449 5B04                        l3473 56AC                        l3465 562E  
                      l3457 55B2                        l3297 46D4                        l3289 4676  
                      l3481 5FD0                        l2921 40BA                        l2913 4094  
                      l2905 406A                        l3553 56D6                        l3609 516C  
                      l3617 5D94                        l3801 3B26                        l3721 372C  
                      l3713 3700                        l3705 36C0                        l5073 33B4  
                      l5081 3412                        l5065 3330                        l5057 3302  
                      l5049 328C                        l3635 5E38                        l3627 5E2C  
                      l4099 5F7C                        l4179 531E                        l3395 584E  
                      l3387 5828                        l3379 5804                        l3547 605E  
                      l3539 5B72                        l3651 5398                        l3643 5356  
                      l3475 56B2                        l3467 563C                        l3459 55E0  
                      l3299 46E4                        l3483 5FE0                        l2931 40F2  
                      l2923 40CA                        l2915 409A                        l2907 407A  
                      l3555 5714                        l3563 5754                        l3619 5D98  
                      l3811 3BE4                        l3803 3B5A                        l3731 3784  
                      l3715 3706                        l3707 36C4                        l5091 34A2  
                      l5083 3420                        l5075 33CE                        l5067 3342  
                      l5059 330E                        l3637 5E4E                        l3389 583E  
                      l3397 5854                        l3549 606C                        l3661 53C6  
                      l3653 53A4                        l3645 5372                        l3469 564E  
                      l2941 411E                        l2933 4104                        l2925 40DA  
                      l2917 40A8                        l2909 4080                        l3493 54D6  
                      l3565 5766                        l3557 573C                        l3581 5DEC  
                      l3573 5E6A                        l3901 3FF8                        l3821 3C80  
                      l3813 3BFA                        l3805 3B60                        l3733 378A  
                      l3717 370E                        l3709 36EA                        l3725 3748  
                      l5085 3454                        l5077 33EC                        l5093 34B2  
                      l5069 3358                        l4701 22FA                        ?_pad 000F  
                      l3639 5E52                        l3399 5864                        l3671 543A  
                      l3663 53F8                        l3655 53AC                        l3647 5382  
                      l3479 5FBA                        l2951 4132                        l2943 4122  
                      l2935 4112                        l2927 40DC                        l2919 40AA  
                      l3495 5500                        l3487 54AC                        l3559 5748  
                      l3591 4FF6                        l3575 5E72                        l3823 3CD6  
                      l3831 3D28                        l3815 3C2C                        l3807 3B7E  
                      l3751 3810                        l3735 3792                        l3727 376E  
                      l3743 37AA                        l3719 3722                        l3911 58AE  
                      l5095 34C0                        l5087 346E                        l5079 3402  
                      l4711 235E                        l4703 2310                        l3921 60EC  
                      l2881 5A06                        l3681 548E                        l3673 544C  
                      l3665 53FE                        l3657 53B8                        l3649 5388  
                      l2961 4146                        l2953 4136                        l2945 4126  
                      l2937 4116                        l2929 40E2                        l3497 5502  
                      l3489 54C2                        l3569 57AA                        l3593 5004  
                      l3585 4F6C                        l3577 5DCA                        l3841 3D58  
                      l3833 3D38                        l3825 3CDC                        l3817 3C3C  
                      l3809 3BB2                        l3761 3906                        l3753 3844  
                      l3745 37C4                        l3729 3780                        l3913 58CE  
                      l3905 5876                        l5097 350A                        l5089 348C  
                      l4801 2746                        l4721 23BE                        l4713 2390  
                      l4705 232A                        l3923 60EE                        l2883 5A22  
                      l2875 59DC                        l3675 5466                        l3667 5404  
                      l3659 53C0                        l2971 419A                        l2963 414A  
                      l2955 413A                        l2947 412A                        l2939 411A  
                      l2891 4022                        l3499 5512                        l3587 4F8C  
                      l3579 5DD8                        l3851 3E2A                        l3843 3DD0  
                      l3835 3D40                        l3827 3D10                        l3819 3C4C  
                      l3771 39BC                        l3763 393A                        l3755 3882  
                      l3691 3656                        l3915 58F0                        l3907 587E  
                      l3931 4CA6                        l5099 3554                        l4803 277A  
                      l4811 27CE                        l4731 245C                        l4723 23D0  
                      l4715 239C                        l4707 2340                        l3925 60F0  
                      l2885 5A54                        l2877 59EC                        l3677 5476  
                      l3669 5420                        l2981 41DE                        l2973 41AA  
                      l2965 414E                        l2957 413E                        l2949 412E  
                      l2893 4030                        l3597 5074                        l3589 4FE2  
                      l3861 3E50                        l3853 3E2E                        l3845 3DF0  
                      l3837 3D44                        l3829 3D24                        l3781 39EC  
                      l3773 39CC                        l3765 3942                        l3757 38B4  
                      l3749 380A                        l3693 367A                        l3685 3630  
                      l3909 58A6                        l3917 58F8                        l3941 4CFC  
                      l3933 4CCE                        l4901 2BE4                        l4821 2854  
                      l4813 27DC                        l4805 278A                        l4741 24E2  
                      l4733 247A                        l4725 23E6                        l4717 23A2  
                      l4709 235A                        l4661 20D0                        l3927 60F2  
                      l3919 60E6                        l2879 59FC                        l3679 547C  
                      l2983 41E0                        l2975 41C0                        l2959 4142  
                      l2967 4152                        l2895 4032                        l3599 50B0  
                      l3871 3E84                        l3863 3E56                        l3855 3E34  
                      l3847 3E0C                        l3839 3D4C                        l3783 39FE  
                      l3791 3A3E                        l3775 39D8                        l3759 38F2  
                      l3695 3684                        l3687 3644                        l3951 4D5A  
                      l3943 4D0C                        l3935 4CD6                        l4903 2BE8  
                      l4911 2C38                        l4831 28CC                        l4815 2810  
                      l4807 27A8                        l4823 2864                        l4751 254E  
                      l4743 24FC                        l4735 2490                        l4727 240E  
                      l4719 23BC                        l4671 218A                        l4663 20E0  
                      l4655 20C0                        l3929 60F4                        l2993 4230  
                      l2985 41EA                        l2977 41CC                        l2969 417E  
                      l2897 4042                        l2889 4016                        l3873 3E8A  
                      l3857 3E3C                        l3849 3E1A                        l3865 3E5C  
                      l3881 3F22                        l3793 3A46                        l3785 3A0C  
                      l3777 39E0                        l3769 3982                        l3697 368C  
                      l3689 3652                        l3961 4DCE                        l3953 4D64  
                      l3945 4D16                        l3937 4CE4                        l4921 2C8E  
                      l4913 2C3C                        l4905 2BF4                        l4841 292A  
                      l4833 28E2                        l4825 2872                        l4817 2820  
                      l4809 27BE                        l4761 25D8                        l4753 2598  
                      l4745 251A                        l4729 2442                        l4737 24A0  
                      l4681 2224                        l4673 219C                        l4665 20F2  
                      l4657 20C4                        l2995 4240                        l2987 420C  
                      l2979 41D0                        l2899 4052                        l3891 3FA2  
                      l3883 3F40                        l3875 3EE2                        l3867 3E6E  
                      l3859 3E4C                        l3795 3A56                        l3787 3A24  
                      l3779 39E8                        l3699 369C                        l3971 4E0C  
                      l3955 4D86                        l3947 4D3E                        l3939 4CE8  
                      l4931 2D10                        l4923 2CBA                        l4915 2C52  
                      l4907 2C0A                        l4851 2988                        l4843 2944  
                      l4835 28FC                        l4827 28BC                        l4819 283E  
                      l4771 2630                        l4755 259C                        l4763 25EC  
                      l4747 2530                        l4739 24AE                        l4691 22AC  
                      l4683 2256                        l4675 21CE                        l4667 210C  
                      l4659 20C8                        l2997 424E                        l2989 421C  
                      l3893 3FB0                        l3885 3F5C                        l3877 3F16  
                      l3869 3E80                        l3797 3A6A                        l3789 3A36  
                      l3981 4E90                        l3965 4DE2                        l3957 4DA8  
                      l3949 4D46                        l4941 2D68                        l4925 2CD8  
                      l4917 2C6C                        l4909 2C24                        l4861 29EC  
                      l4853 299E                        l4845 2954                        l4829 28C0  
                      l4837 2910                        l4781 2694                        l4773 2634  
                      l4765 25F0                        l4757 25A8                        l4749 2540  
                      l4693 22B8                        l4685 2268                        l4677 21E0  
                      l4669 2158                        l2999 425C                        l3895 3FC8  
                      l3887 3F64                        l3879 3F1E                        l3799 3ACE  
                      l3975 4E1A                        l3967 4DEC                        l3959 4DC4  
                      l4951 2DD4                        l4943 2D82                        l4927 2CEE  
                      l4919 2C7C                        l4871 2A2C                        l4863 29F8  
                      l4855 29B8                        l4847 2958                        l4839 2914  
                      l4791 26DA                        l4783 26AA                        l4775 264A  
                      l4767 2606                        l4759 25BE                        l4935 2D24  
                      l4695 22C6                        l4687 2286                        l4679 2212  
                      l3897 3FD8                        l3889 3F72                        l3985 4EC2  
                      l3977 4E38                        l3969 4E06                        l4953 2E08  
                      l4961 2E66                        l4945 2D84                        l4937 2D56  
                      l4929 2D04                        l4881 2ACE                        l4873 2A42  
                      l4865 29FE                        l4857 29CE                        l4849 296E  
                      l4793 26F4                        l4785 26C4                        l4777 2664  
                      l4769 2620                        l4697 22CA                        l4689 229C  
                      l3899 3FF0                        l3995 4F18                        l3987 4ED8  
                      l3979 4E5E                        l4971 2EF6                        l4963 2E74  
                      l4955 2E22                        l4947 2D96                        l4939 2D62  
                      l4891 2B48                        l4883 2AE4                        l4875 2A6A  
                      l4867 2A18                        l4859 29E8                        l4795 26F6  
                      l4787 26C8                        l4779 267A                        l4699 22E0  
                      l3989 4EE6                        l3997 4F36                        l4981 2F78  
                      l4965 2EA8                        l4957 2E40                        l4973 2F06  
                      l4949 2DAC                        l4893 2B66                        l4877 2A9E  
                      l4885 2AF4                        l4869 2A1A                        l4797 2708  
                      l4789 26D4                        l4991 2FC0                        l4983 2F92  
                      l4975 2F14                        l4967 2EC2                        l4959 2E56  
                      l4895 2B7C                        l4887 2B02                        l4879 2AB0  
                      l4799 271E                        l4993 2FDA                        l4977 2F5E  
                      l4969 2EE0                        l4889 2B36                        l4897 2B8C  
                      l4979 2F62                        l4987 2FA6                        l4995 2FEE  
                      l4899 2B9A                        l4997 3020                        l4989 2FAA  
                      l4999 3044                        STR_1 20AE                        STR_2 2001  
                      STR_3 2063                        STR_4 2054                        STR_5 2045  
                      STR_6 208C                        STR_7 20A9                        STR_8 20AE  
                      STR_9 208C                        u3000 4ACA                        u3001 4AC6  
                      u3010 4AF4                        u3011 4AF0                        u3100 4BEE  
                      u3020 4B18                        u3101 4BEA                        u3021 4B14  
                      u3110 4C36                        u3030 4B2E                        _LATB 3FBB  
                      u3111 4C32                        u3031 4B2A                        u3120 4C66  
                      u3040 4B4C                        u3200 45A0                        u4000 36EA  
                      u3121 4C62                        u3041 4B48                        u3201 459C  
                      u4001 36E6                        u3130 4C92                        u3050 4B6C  
                      u3210 45B0                        u4010 36FC                        u3131 4C8E  
                      u3051 4B68                        u3211 45AC                        u4011 36F8  
                      u2500 5A54                        u3060 4B7C                        u3300 4892  
                      u3220 474E                        u3140 44E6                        u4100 39CC  
                      u4020 376E                        u2501 5A50                        u3061 4B78  
                      u3301 488E                        u3141 44E2                        u4101 39C8  
                      u4021 376A                        u3070 4BAA                        u3310 48C0  
                      u3230 47A8                        u3150 44F8                        u2510 4030  
                      u4110 39FE                        u4030 3780                        u3071 4BA6  
                      u3311 48BC                        u3231 47A4                        u3151 44F4  
                      u2511 402C                        u4111 39FA                        u4031 377C  
                      u3400 5958                        u3080 4BC0                        u3320 48F8  
                      u3240 47C8                        u3160 4508                        u2600 417E  
                      u2520 4042                        u4200 3DD0                        u4120 3A0C  
                      u4040 37F6                        u5000 240E                        u3401 5954  
                      u3081 4BBC                        u3321 48F4                        u3241 47C4  
                      u3225 4744                        u3161 4504                        u2601 417A  
                      u2521 403E                        u4201 3DCC                        u4121 3A08  
                      u4041 37F2                        u5001 240A                        u3330 57C4  
                      u3410 5972                        u3090 4BD4                        u3250 47D8  
                      u3170 4548                        u2610 4196                        u2530 4052  
                      u4210 3E0C                        u4130 3A36                        u4050 3882  
                      u5010 24AE                        u3331 57C0                        u3411 596E  
                      u3091 4BD0                        u3251 47D4                        u3171 4544  
                      u2611 4190                        u2531 404E                        u4211 3E08  
                      u4131 3A32                        u4051 387E                        u5011 24AA  
                      u3340 57DE                        u3420 5990                        u3500 563C  
                      u3260 4806                        u3180 455A                        u2700 427A  
                      u2620 4198                        u2540 4092                        u4220 3E1A  
                      u4140 3B7E                        u4060 38B4                        u4300 5924  
                      u5100 2B9A                        u5020 254E                        u3341 57DA  
                      u3421 598C                        u3501 5638                        u3261 4802  
                      u3181 4556                        u2701 4276                        u2541 408E  
                      u4221 3E16                        u4141 3B7A                        u4061 38B0  
                      u4301 5920                        u5101 2B96                        u5021 254A  
                      u3350 5804                        u3430 59A6                        u2470 59EC  
                      u3510 565C                        u3270 481C                        u3190 456A  
                      u2710 42B2                        u2630 41C0                        u2550 40A8  
                      u4230 3E6E                        u4150 3BE4                        u4070 38F2  
                      u4310 4CCE                        u5110 2BE4                        u5030 2598  
                      u3351 5800                        u3431 59A2                        u2471 59E8  
                      u3511 5658                        u3271 4818                        u3191 4566  
                      u2711 42AE                        u2631 41BC                        u2551 40A4  
                      u4231 3E6A                        u4151 3BE0                        u4071 38EE  
                      u4311 4CCA                        u5111 2BE0                        u5031 2594  
                      u4400 5CC2                        u3360 5822                        u3440 59CA  
                      u2480 59FC                        u3520 56AC                        u3280 4830  
                      u2800 43CC                        u2720 42F8                        u2640 41DE  
                      u2560 40BA                        u3600 5590                        u4240 3F40  
                      u4160 3C2C                        u4080 397E                        u4320 4D0C  
                      u5200 3156                        u5120 2C8E                        u5040 2746  
                      u4401 5CBE                        u3361 581E                        u3441 59C6  
                      u2481 59F8                        u3521 56A8                        u3281 482C  
                      u2801 43C8                        u2721 42F4                        u2641 41DA  
                      u2561 40B6                        u3601 558C                        u4241 3F3C  
                      u4161 3C28                        u4081 397A                        u4321 4D08  
                      u5201 3152                        u5121 2C8A                        u5041 2742  
                      u4410 5CFC                        u3370 583E                        u2490 5A22  
                      u3610 5B40                        u3450 5AB6                        u3290 484A  
                      u3530 5FD0                        u2810 43E2                        u2730 432E  
                      u2650 41FE                        u2570 40CA                        u4250 3F5C  
                      u4170 3C3C                        u4090 39B4                        u4330 4D3E  
                      u5210 31F6                        u5130 2D56                        u5050 27DC  
                      u4411 5CF8                        u3371 583A                        u2491 5A1E  
                      u3611 5B3C                        u3451 5AB2                        u3291 4846  
                      u3531 5FCC                        u2811 43DE                        u2731 432A  
                      u2651 41FA                        u2571 40C6                        u4251 3F58  
                      u4171 3C38                        u4091 39B0                        u4331 4D3A  
                      u5211 31F2                        u5131 2D52                        u5051 27D8  
                      u4500 5250                        u3380 5864                        u2900 5F78  
                      u3620 5B5E                        u3460 5AF4                        u2820 43F6  
                      u2740 433E                        u2660 420C                        u2580 4104  
                      u3540 54C2                        u4260 3FC2                        u4180 3CD6  
                      u4340 4D86                        u4420 5F30                        u5220 3240  
                      u5140 2DD4                        u5060 2872                        u4501 524C  
                      u3381 5860                        u2901 5F74                        u3621 5B5A  
                      u3461 5AF0                        u2821 43F2                        u2741 433A  
                      u2661 4208                        u2581 4100                        u3541 54BE  
                      u4261 3FBC                        u4181 3CD2                        u4341 4D82  
                      u4421 5F2C                        u5221 323C                        u5141 2DD0  
                      u5061 286E                        u4430 5F8C                        u4510 529A  
                      u3390 593E                        u3630 5BA4                        u2910 4930  
                      u3470 5B28                        u2830 4410                        u2750 436A  
                      u2670 421C                        u2590 4112                        u3550 54F6  
                      u3710 57A0                        u4270 3FC4                        u4190 3D24  
                      u4350 4DA8                        u5230 3302                        u5150 2E74  
                      u5070 28BC                        u4431 5F88                        u4511 5296  
                      u3391 593A                        u3631 5BA0                        u2911 492C  
                      u3471 5B24                        u2831 440C                        u2751 4366  
                      u2671 4218                        u2591 410E                        u3711 579A  
                      u4191 3D20                        u4351 4DA4                        u5231 32FE  
                      u5151 2E70                        u5071 28B8                        u4520 52B8  
                      u4440 5C94                        u3640 5BB2                        u2920 4942  
                      u3480 55E0                        u2840 444A                        u2760 437A  
                      u2680 424E                        u3560 5524                        u3720 57A2  
                      u3800 5094                        u4280 3FD8                        u4360 4E5A  
                      u5240 3380                        u5160 2F14                        u5080 2A6A  
                      u4521 52B4                        u3641 5BAE                        u2921 493E  
                      u3481 55DC                        u2841 4446                        u2761 4376  
                      u2681 424A                        u3561 5520                        u3705 5778  
                      u4281 3FD4                        u4361 4E56                        u5241 337C  
                      u5161 2F10                        u5081 2A66                        u4370 5BF2  
                      u4530 52C8                        u3650 606C                        u2930 4952  
                      u3490 561E                        u2850 445C                        u2770 4396  
                      u2690 425C                        u3570 5538                        u3810 50B0  
                      u3730 5EAE                        u4290 58A6                        u4450 5D36  
                      u5250 3420                        u5170 2F5E                        u5090 2B02  
                      u4531 52C4                        u3651 6068                        u2931 494E  
                      u3491 561A                        u2851 4458                        u2771 4392  
                      u2691 4258                        u3571 5534                        u3555 54EC  
                      u3811 50AC                        u3731 5EAA                        u4291 58A2  
                      u4451 5D32                        u5251 341C                        u5171 2F5A  
                      u5091 2AFE                        u5307 231C                        u4380 5C24  
                      u4540 52D6                        u3900 5356                        u2940 4994  
                      u2860 446C                        u2780 43A6                        u3580 5560  
                      u3660 56F6                        u3820 5104                        u3740 5DD8  
                      u4460 5D6E                        u5260 34C0                        u5180 3020  
                      u4541 52D2                        u4445 5C8A                        u3901 5352  
                      u2941 4990                        u2861 4468                        u2781 43A2  
                      u3581 555C                        u3805 508A                        u3741 5DD4  
                      u4461 5D6A                        u5261 34BC                        u5181 301C  
                      u5317 234C                        u4390 5C34                        u4550 5310  
                      u4470 5190                        u3910 5382                        u2950 49A6  
                      u2870 448C                        u2790 43B6                        u3590 5580  
                      u3670 5714                        u3830 5120                        u3750 4FB4  
                      u5270 350A                        u5190 30B6                        u4391 5C30  
                      u4551 530C                        u4471 518C                        u3911 537E  
                      u2951 49A2                        u2871 4488                        u2791 43B2  
                      u3591 557C                        u3671 5710                        u3831 511C  
                      u5271 3506                        u5191 30B2                        u5407 26B6  
                      u5327 23AE                        u4560 531E                        u4480 519E  
                      u3920 5398                        u2960 49B6                        u2880 449C  
                      u3680 573C                        u3840 515C                        u3760 4FE2  
                      u5280 3554                        u4377 5BE4                        u4561 531A  
                      u4481 519A                        u3921 5394                        u2961 49B2  
                      u2881 4498                        u3681 5738                        u3665 56EC  
                      u3841 5158                        u3825 50FA                        u3761 4FDE  
                      u5281 3550                        u5417 26E6                        u5337 23C6  
                      u4490 51FA                        u3930 543A                        u2970 49F4  
                      u2890 44B8                        u3690 5766                        u3770 5004  
                      u3850 5DC8                        u4387 5C16                        u4491 51F6  
                      u3931 5436                        u2971 49F0                        u2891 44B4  
                      u3691 5762                        u3771 5000                        u3755 4FAA  
                      u3851 5DC4                        u5507 2A0A                        u5427 26FE  
                      u5347 244E                        u3860 5E4E                        u3940 544C  
                      u2980 4A34                        u3861 5E4A                        u3941 5448  
                      u2981 4A30                        u5517 2A22                        u5437 2782  
                      u5357 24EE                        u3870 5E68                        u3950 5466  
                      u2990 4AA8                        u3790 5070                        u3871 5E64  
                      u3951 5462                        u2991 4AA4                        u3791 506C  
                      u5607 2EB4                        u5527 2AA6                        u5447 2818  
                      u5367 25CA                        u3960 5476                        u3880 5342  
                      u3961 5472                        u3881 533C                        u3785 5018  
                      u5617 2F84                        u5537 2B3E                        u5457 28EE  
                      u5377 2612                        u5297 22EC                        u3890 5344  
                      u3786 5022                        u3970 3652                        u4930 20F2  
                      u3787 5032                        u3971 364E                        u5707 3338  
                      u5627 2FCC                        u5547 2C16                        u5467 2936  
                      u5387 2656                        u4931 20EE                        u3980 369C  
                      u4940 218A                        u3981 3698                        u5717 33C0  
                      u5637 3056                        u5557 2C5E                        u5477 297A  
                      u5397 2686                        u4941 2186                        u3990 36AC  
                      u4950 21CE                        u3991 36A8                        u5727 3460  
                      u5647 306E                        u5567 2CC6                        u5487 29AA  
                      u4951 21CA                        u4960 2212                        u5737 357A  
                      u5657 30F6                        u5577 2D74                        u5497 29DA  
                      u4961 220E                        u4970 2256                        u5747 35C2  
                      u5667 3196                        u5587 2D8C                        u4971 2252  
                      u4980 22C6                        u5757 360A                        u5677 3266  
                      u5597 2E14                        u4981 22C2                        u4990 2390  
                      u5687 32AE                        u4991 238C                        u5697 3320  
                      abs@a 0019                        _data 00AC                        _dbuf 0100  
                      _labs 5DCA                        _main 20C0                        _dtoa 5332  
                      _rand 5C36                        _seed 00B6                        _prec 00A6  
                      pad@i 0015                        pad@p 0012                        fsr1h 3FE2  
                      fsr2h 3FDA                        indf1 3FE7                        indf2 3FDF  
                      fsr1l 3FE1                        fsr2l 3FD9            __end_of_ADC_Init 60E4  
             ___fpclassifyf 56B6                        prodh 3FF4                        prodl 3FF3  
                      start FFFC             __end_of_MSdelay 5E6A             ___fldiv@new_exp 0012  
                _Difficulty 009C               _LCD_String_xy 5F7A                ___param_bank 0000  
                     ??_abs 001B                       ??_pad 0014            __end_of_LCD_Char 6102  
          __end_of_LCD_Init 605E               ___fltol@sign1 0009                       ?_labs 0001  
           __end_of___fladd 44CC                       ?_main 0001                       ?_dtoa 001D  
                     _ADCLK 3EFF                       _ADPCH 3EF1             __end_of___fldiv 4CA6  
                     ?_rand 000D             __end_of___awdiv 5876             __end_of___flneg 5FF2  
                     STR_10 20AE                       STR_11 208C                       STR_20 208C  
                     STR_12 2099                       STR_21 20AE                       STR_13 2072  
                     STR_22 208C                       STR_30 20AE                       STR_14 2024  
                     STR_23 2099                       STR_31 208C                       STR_15 2035  
                     STR_24 2072                       STR_40 20BC                       STR_32 20AE  
                     STR_16 2013                       STR_25 2024                       STR_41 208C  
                     STR_33 208C                       STR_17 208C                       STR_34 2099  
                     STR_50 20A9                       STR_42 20A9                       STR_18 20A9  
                     STR_26 2035                       STR_35 2072                       STR_27 2013  
                     STR_51 20AE                       STR_43 20AE                       STR_19 20AE  
                     STR_60 208C                       STR_52 208C                       STR_44 208C  
                     STR_28 208C                       STR_36 207F             __end_of___awmod 59DC  
                     STR_29 20A9                       STR_61 20AE                       STR_53 20AE  
                     STR_45 20AE                       STR_37 20BB                       STR_62 208C  
                     STR_54 208C                       STR_46 208C                       STR_38 20A3  
                     STR_63 2099                       STR_55 2099                       STR_47 2099  
                     STR_39 207F                       STR_56 2072                       STR_48 2072  
                     STR_64 2099                       STR_65 2072                       STR_57 208C  
                     STR_49 208C                       STR_58 20A9                       STR_66 20B3  
                     STR_59 20AE                       STR_69 20B7             __end_of___flmul 4916  
           __end_of___flsub 5EF6             __end_of___fltol 55B2             ___awdiv@divisor 0003  
           ___awdiv@counter 0005                vfpfcnvrt@fmt 003D                       _PORTD 3FCD  
                     _TRISB 3FC3                       _TRISD 3FC5                       _TRISE 3FC6  
       ___lmul@multiplicand 0005                       _flags 005E         read_prec_or_width@c 0005  
       read_prec_or_width@n 0006                       _fputc 59DC                       _fputs 5F3A  
                     labs@a 0001                       pad@fp 000F                       _width 00A4  
                     _putch 6128                       dtoa@d 001E                       dtoa@i 0027  
                     dtoa@p 0024                       dtoa@s 0026                       dtoa@w 0022  
                     tablat 3FF5                       status 3FD8             __end_of_sprintf 6028  
            ?___fpclassifyf 0001              ?_LCD_String_xy 000A             __initialization 6092  
              __end_of_labs 5E20                __end_of_main 3630                __end_of_dtoa 54AC  
              __end_of_rand 5CA4                      ??_labs 0005                      ??_main 0092  
                    ??_dtoa 0020                      ??_rand 000F           __end_of_LCD_Clear 6128  
             __activetblptr 0003  __end_of_read_prec_or_width 592E                      _ADACQH 3EF4  
                    _ADACQL 3EF3                      ?_fputc 0001                      ?_fputs 0009  
                    _ADRESH 3EF0                      _ADRESL 3EEF                      _ADPREH 3EF7  
                    _ADPREL 3EF6            ___awdiv@dividend 0001                      ?_putch 0001  
                    _ANSELB 3A50                      _ANSELD 3A70                      _ANSELE 3A80  
          LCD_String_xy@msg 000B            LCD_String_xy@pos 000A            LCD_String_xy@row 000D  
                 ??_MSdelay 0003            __end_of___xxtofl 5332                vfprintf@cfmt 0049  
                    ___flge 55B2                      ___fleq 5A88                      ___lmul 5CA4  
                 ??___fladd 0009                   ??___fldiv 0009                   ??___awdiv 0005  
                 ??___flneg 0005                   ??___awmod 0017                   ??___flmul 0017  
                 ??___flsub 0030                   ??___fltol 0005                      _efgtoa 3630  
                    _count1 0056                      _count2 005C                      _floorf 4F6C  
                    _memcpy 5D70        read_prec_or_width@ap 0002                      clear_0 6098  
                    clear_1 60A4                      clear_2 60B0            ___awdiv@quotient 0007  
           ___awmod@divisor 0015                      isa$std 0001             ___awmod@counter 0017  
                    pad@buf 0010                      _strcat 5D0E                      dtoa@fp 001D  
                    _strcpy 5E6A                      fputc@c 0001                      fputs@c 000C  
                    fputs@i 000D                      fputs@s 0009             ___fpclassifyf@e 0009  
                 ?_ADC_Init 0001             ___fpclassifyf@u 000B             ___fpclassifyf@x 0001  
              __mediumconst 2000                      tblptrh 3FF7                      tblptrl 3FF6  
                    tblptru 3FF8                      putch@c 0001            __end_of_vfprintf 5F3A  
                 ??_sprintf 004A                  ___flge@ff1 0028                  ___flge@ff2 002C  
           ??___fpclassifyf 0005                ___xxtofl@arg 000B                ___xxtofl@exp 000A  
              ___xxtofl@val 0001                  ___fleq@ff1 000F                  ___fleq@ff2 0013  
                 ?_LCD_Char 0001                  __accesstop 0060     __end_of__initialization 60B6  
                 ?_LCD_Init 0001             ??_LCD_String_xy 000D                  ___flneg@f1 0001  
             ___rparam_used 0001                  ___fltol@f1 0001              __pcstackCOMRAM 0001  
             __end_of_fputc 5A88               __end_of_fputs 5F7A               __end_of_putch 612A  
              ??_LCD_String 000A                  ??_ADC_Init 0001                     ??_fputc 0004  
                   ??_fputs 000C                     ??_putch 0001                  __pbssBANK0 0094  
                __pbssBANK1 0100                  ??_LCD_Char 0007                  ??_LCD_Init 0008  
        __end_of_LCD_String 5C36                  _efgtoa$976 0066                     ?___flge 0028  
                   ?___fleq 000F                     ?___lmul 0001                     ?_efgtoa 0034  
                   ?_floorf 001A                     ?_memcpy 0001              ___lmul@product 0009  
       _elapsed_time_counts 00AA                     ?_strcat 0001                     ?_strcpy 0001  
                 ?___xxtofl 0001                     _MSdelay 5E20               LCD_String@msg 0008  
                   __Hparam 0000                     __Lparam 0000                     ___fladd 4016  
                   ___fldiv 4916                     ___awdiv 57B4                     ___flneg 5FBA  
                   ___awmod 592E                     ___flmul 44CC                     ___flsub 5EB0  
                   ___fltol 54AC                   ?_vfprintf 0046                __psmallconst 2000  
                   __pcinit 6092                     __ramtop 2000                     _digital 00A8  
                   __ptext0 20C0                     __ptext1 5D0E                     __ptext2 5FF2  
                   __ptext3 5EF6                     __ptext4 4CA6                     __ptext5 5876  
                   __ptext6 3630                     __ptext7 5E6A                     __ptext8 5D70  
                   __ptext9 5DCA       read_prec_or_width@fmt 0001                  ??___xxtofl 0005  
          ___awmod@dividend 0013                     efgtoa@c 0039                     efgtoa@d 006B  
                   efgtoa@e 006F                     efgtoa@f 0035                     efgtoa@g 0084  
                   efgtoa@h 0079                     efgtoa@i 0077                     efgtoa@l 007D  
                   efgtoa@m 006D                     efgtoa@n 0082                     efgtoa@p 0062  
                   efgtoa@t 0064                     efgtoa@u 0088                     efgtoa@w 0071  
                 _LCD_Clear 6120                     _sprintf 5FF2                     _voltage 00A0  
      end_of_initialization 60B6                     floorf@e 0028                     floorf@m 0024  
                   floorf@u 002A                     floorf@x 001A                     memcpy@d 0007  
                   memcpy@n 0005                     memcpy@s 0009                     fputc@fp 0003  
            LCD_Command@cmd 0007                     fputs@fp 000B          _read_prec_or_width 5876  
         __end_of_vfpfcnvrt 4F6C                  efgtoa@mode 0069                  efgtoa@sign 0081  
                   postdec2 3FDD         ?_read_prec_or_width 0001                     postinc0 3FEE  
                   postinc1 3FE6                     postinc2 3FDE            vfpfcnvrt@convarg 0040  
                ??_vfprintf 0049                     strcat@i 0003                     strcpy@d 0005  
                 _PORTDbits 3FCD                   _PORTEbits 3FCE                 ___fladd@grs 0010  
             ___xxtofl@sign 0009                   _TRISAbits 3FC2                  ?_LCD_Clear 0001  
      ??_read_prec_or_width 0003                 ___fldiv@grs 0014                 ___fldiv@rem 000D  
               ___flmul@grs 001C               ??_LCD_Command 0007              __end_of___flge 56B6  
            __end_of___fleq 5B32              __end_of___lmul 5D0E                 vfpfcnvrt@ap 003E  
               vfpfcnvrt@cp 0045                 vfpfcnvrt@fp 003C              __end_of_efgtoa 4016  
            __end_of_floorf 517E              __end_of_memcpy 5DCA                  floorf@F521 0094  
            __end_of_strcat 5D70              __end_of_strcpy 5EB0         start_initialization 6092  
               __end_of_abs 6092                 __end_of_pad 5BC4       __end_of___fpclassifyf 57B4  
     __end_of_LCD_String_xy 5FBA                 vfprintf@fmt 0047                    ??___flge 0030  
                  ??___fleq 0017                    ??___lmul 0009                    ??_efgtoa 003A  
                  ??_floorf 001E                    ??_memcpy 0007                    ??_strcat 0003  
                  ??_strcpy 0004                   ___fladd@a 0005                   ___fladd@b 0001  
                 ___fldiv@a 0005                   ___fldiv@b 0001         __end_of_LCD_Command 6120  
                 ___flmul@a 0013                   ___flmul@b 000F                 __pbssCOMRAM 0056  
                 ___flsub@a 002C                   ___flsub@b 0028               __pcstackBANK0 0060  
               ??_LCD_Clear 0008                    ?_MSdelay 0001                    ?___fladd 0001  
                  ?___fldiv 0001                    ?___awdiv 0001                    ?___flneg 0001  
                  ?___awmod 0013                    ?___flmul 000F                    ?___flsub 0028  
                  ?___fltol 0001                 __smallconst 2000                    _ADC_Init 60BC  
     LCD_String_xy@location 000E                    ?_sprintf 008C                    MSdelay@i 0003  
                  MSdelay@j 0005                    _LCD_Char 60E4                    _LCD_Init 6028  
                  _LATDbits 3FBD                 _LCD_Command 6102                   _vfpfcnvrt 4CA6  
                _ADCON0bits 3EF8                  vfpfcnvrt@c 0044           ___lmul@multiplier 0001  
                  __Hrparam 0000                   memcpy@tmp 000B                  vfprintf@ap 0048  
                  __Lrparam 0000                  vfprintf@fp 0046                  ?_vfpfcnvrt 003C  
                _ANSELAbits 3A40          ___fpclassifyf@F465 0098                  sprintf@fmt 008D  
                  ___xxtofl 517E                  strcat@dest 0001                    _dtoa$945 0020  
                  __ptext10 4F6C                    __ptext11 56B6                    __ptext20 5332  
                  __ptext12 54AC                    __ptext21 5B32                    __ptext13 5EB0  
                  __ptext30 517E                    __ptext22 5F3A                    __ptext14 4016  
                  __ptext31 5F7A                    __ptext23 59DC                    __ptext15 5FBA  
                  __ptext32 5BC4                    __ptext24 6128                    __ptext16 44CC  
                  __ptext33 60E4                    __ptext25 605E                    __ptext17 55B2  
                  __ptext34 6028                    __ptext26 592E                    __ptext18 5A88  
                  __ptext35 6120                    __ptext27 57B4                    __ptext19 4916  
                  __ptext36 6102                    __ptext28 5C36                    __ptext37 5E20  
                  __ptext29 5CA4                    __ptext38 60BC                  strcpy@dest 0001  
                MSdelay@val 0001                    efgtoa@fp 0034                    efgtoa@ne 0060  
                  efgtoa@pp 0068                    efgtoa@ou 0073                    isa$xinst 0000  
                  _vfprintf 5EF6                  _LCD_String 5BC4                    memcpy@d1 0001  
                  memcpy@s1 0003                   sprintf@ap 004A                   strcat@src 0002  
                 strcpy@src 0003                 efgtoa@nmode 006A                 ??_vfpfcnvrt 003F  
                  sprintf@f 004B                    sprintf@s 008C               ___fladd@signs 000D  
              ___fladd@aexp 000E                ___fladd@bexp 000F  
