

Microchip MPLAB XC8 Assembler V3.00 build 20241204225717 
                                                                                               Thu May 08 01:05:42 2025

Microchip MPLAB XC8 C Compiler v3.00 (Free license) build 20241204225717 Og1 
     1                           	processor	18F47K42
     2                           	fnconf	rparam,??,?,0
     3                           	pagewidth 120
     4                           	opt	flic
     5                           	psect	smallconst,global,reloc=2,class=SMALLCONST,space=0,delta=1,noexec
     6                           	psect	cinit,global,reloc=2,class=CODE,space=0,delta=1
     7                           	psect	bssCOMRAM,global,class=COMRAM,space=1,delta=1,lowdata,noexec
     8                           	psect	bssBANK0,global,class=BANK0,space=1,delta=1,lowdata,noexec
     9                           	psect	bssBANK1,global,class=BANK1,space=1,delta=1,lowdata,noexec
    10                           	psect	cstackBANK0,global,class=BANK0,space=1,delta=1,lowdata,noexec
    11                           	psect	cstackCOMRAM,global,class=COMRAM,space=1,delta=1,lowdata,noexec
    12                           	psect	text0,global,reloc=2,class=CODE,space=0,delta=1
    13                           	psect	text1,global,reloc=2,class=CODE,space=0,delta=1,group=3
    14                           	psect	text2,global,reloc=2,class=CODE,space=0,delta=1,group=3
    15                           	psect	text3,global,reloc=2,class=CODE,space=0,delta=1,group=1
    16                           	psect	text4,global,reloc=2,class=CODE,space=0,delta=1,group=1
    17                           	psect	text5,global,reloc=2,class=CODE,space=0,delta=1,group=1
    18                           	psect	text6,global,reloc=2,class=CODE,space=0,delta=1,group=1
    19                           	psect	text7,global,reloc=2,class=CODE,space=0,delta=1,group=3
    20                           	psect	text8,global,reloc=2,class=CODE,space=0,delta=1,group=3
    21                           	psect	text9,global,reloc=2,class=CODE,space=0,delta=1,group=3
    22                           	psect	text10,global,reloc=2,class=CODE,space=0,delta=1,group=3
    23                           	psect	text11,global,reloc=2,class=CODE,space=0,delta=1,group=3
    24                           	psect	text12,global,reloc=2,class=CODE,space=0,delta=1,group=2
    25                           	psect	text13,global,reloc=2,class=CODE,space=0,delta=1,group=2
    26                           	psect	text14,global,reloc=2,class=CODE,space=0,delta=1,group=2
    27                           	psect	text15,global,reloc=2,class=CODE,space=0,delta=1,group=2
    28                           	psect	text16,global,reloc=2,class=CODE,space=0,delta=1,group=2
    29                           	psect	text17,global,reloc=2,class=CODE,space=0,delta=1,group=2
    30                           	psect	text18,global,reloc=2,class=CODE,space=0,delta=1,group=2
    31                           	psect	text19,global,reloc=2,class=CODE,space=0,delta=1,group=2
    32                           	psect	text20,global,reloc=2,class=CODE,space=0,delta=1,group=1
    33                           	psect	text21,global,reloc=2,class=CODE,space=0,delta=1,group=1
    34                           	psect	text22,global,reloc=2,class=CODE,space=0,delta=1,group=3
    35                           	psect	text23,global,reloc=2,class=CODE,space=0,delta=1,group=3
    36                           	psect	text24,global,reloc=2,class=CODE,space=0,delta=1,group=3
    37                           	psect	text25,global,reloc=2,class=CODE,space=0,delta=1,group=3
    38                           	psect	text26,global,reloc=2,class=CODE,space=0,delta=1,group=2
    39                           	psect	text27,global,reloc=2,class=CODE,space=0,delta=1,group=2
    40                           	psect	text28,global,reloc=2,class=CODE,space=0,delta=1,group=3
    41                           	psect	text29,global,reloc=2,class=CODE,space=0,delta=1,group=2
    42                           	psect	text30,global,reloc=2,class=CODE,space=0,delta=1,group=2
    43                           	psect	text31,global,reloc=2,class=CODE,space=0,delta=1
    44                           	psect	text32,global,reloc=2,class=CODE,space=0,delta=1
    45                           	psect	text33,global,reloc=2,class=CODE,space=0,delta=1
    46                           	psect	text34,global,reloc=2,class=CODE,space=0,delta=1
    47                           	psect	text35,global,reloc=2,class=CODE,space=0,delta=1
    48                           	psect	text36,global,reloc=2,class=CODE,space=0,delta=1
    49                           	psect	text37,global,reloc=2,class=CODE,space=0,delta=1
    50                           	psect	text38,global,reloc=2,class=CODE,space=0,delta=1
    51                           	psect	intsave_regs,global,class=BIGRAM,space=1,delta=1,noexec
    52                           	psect	rparam,global,class=COMRAM,space=1,delta=1,noexec
    53                           	psect	config,global,abs,ovrld,class=CONFIG,space=4,delta=1,noexec
    54   000000                     
    55                           ; Generated 12/10/2023 GMT
    56                           ; 
    57                           ; Copyright © 2023, Microchip Technology Inc. and its subsidiaries ("Microchip")
    58                           ; All rights reserved.
    59                           ; 
    60                           ; This software is developed by Microchip Technology Inc. and its subsidiaries ("Microch
      +                          ip").
    61                           ; 
    62                           ; Redistribution and use in source and binary forms, with or without modification, are
    63                           ; permitted provided that the following conditions are met:
    64                           ; 
    65                           ;     1. Redistributions of source code must retain the above copyright notice, this lis
      +                          t of
    66                           ;        conditions and the following disclaimer.
    67                           ; 
    68                           ;     2. Redistributions in binary form must reproduce the above copyright notice, this 
      +                          list
    69                           ;        of conditions and the following disclaimer in the documentation and/or other
    70                           ;        materials provided with the distribution. Publication is not required when
    71                           ;        this file is used in an embedded application.
    72                           ; 
    73                           ;     3. Microchip's name may not be used to endorse or promote products derived from th
      +                          is
    74                           ;        software without specific prior written permission.
    75                           ; 
    76                           ; THIS SOFTWARE IS PROVIDED BY MICROCHIP "AS IS" AND ANY EXPRESS OR IMPLIED WARRANTIES,
    77                           ; INCLUDING, BUT NOT LIMITED TO, THE IMPLIED WARRANTIES OF MERCHANTABILITY AND FITNESS F
      +                          OR
    78                           ; PURPOSE ARE DISCLAIMED.  IN NO EVENT SHALL MICROCHIP BE LIABLE FOR ANY DIRECT, INDIREC
      +                          T,
    79                           ; INCIDENTAL, SPECIAL, EXEMPLARY, OR CONSEQUENTIAL DAMAGES (INCLUDING BUT NOT LIMITED TO
    80                           ; PROCUREMENT OF SUBSTITUTE GOODS OR SERVICES; LOSS OF USE, DATA OR PROFITS; OR BUSINESS
    81                           ; INTERRUPTION) HOWSOEVER CAUSED AND ON ANY THEORY OF LIABILITY, WHETHER IN CONTRACT, ST
      +                          RICT
    82                           ; LIABILITY, OR TORT (INCLUDING NEGLIGENCE OR OTHERWISE) ARISING IN ANY WAY OUT OF THE U
      +                          SE OF
    83                           ; THIS SOFTWARE, EVEN IF ADVISED OF THE POSSIBILITY OF SUCH DAMAGE.
    84                           ; 
    85                           ; 
    86                           ; Code-generator required, PIC18F47K42 Definitions
    87                           ; 
    88                           ; SFR Addresses
    89   003FE0                     bsr             equ	16352
    90   003FE9                     fsr0            equ	16361
    91   003FEA                     fsr0h           equ	16362
    92   003FE9                     fsr0l           equ	16361
    93   003FE1                     fsr1            equ	16353
    94   003FE2                     fsr1h           equ	16354
    95   003FE1                     fsr1l           equ	16353
    96   003FD9                     fsr2            equ	16345
    97   003FDA                     fsr2h           equ	16346
    98   003FD9                     fsr2l           equ	16345
    99   003FEF                     indf0           equ	16367
   100   003FE7                     indf1           equ	16359
   101   003FDF                     indf2           equ	16351
   102   003FD2                     intcon          equ	16338
   103   0039E5                     nvmcon          equ	14821
   104   003FF9                     pcl             equ	16377
   105   003FFA                     pclath          equ	16378
   106   003FFB                     pclatu          equ	16379
   107   003FEB                     plusw0          equ	16363
   108   003FE3                     plusw1          equ	16355
   109   003FDB                     plusw2          equ	16347
   110   003FED                     postdec0        equ	16365
   111   003FE5                     postdec1        equ	16357
   112   003FDD                     postdec2        equ	16349
   113   003FEE                     postinc0        equ	16366
   114   003FE6                     postinc1        equ	16358
   115   003FDE                     postinc2        equ	16350
   116   003FEC                     preinc0         equ	16364
   117   003FE4                     preinc1         equ	16356
   118   003FDC                     preinc2         equ	16348
   119   003FF3                     prod            equ	16371
   120   003FF4                     prodh           equ	16372
   121   003FF3                     prodl           equ	16371
   122   003FD8                     status          equ	16344
   123   003FF5                     tablat          equ	16373
   124   003FF6                     tblptr          equ	16374
   125   003FF7                     tblptrh         equ	16375
   126   003FF6                     tblptrl         equ	16374
   127   003FF8                     tblptru         equ	16376
   128   003FFD                     tosl            equ	16381
   129   003FE8                     wreg            equ	16360
   130   003880                     STATUS_CSHAD    equ	14464	;# 
   131   003881                     WREG_CSHAD      equ	14465	;# 
   132   003882                     BSR_CSHAD       equ	14466	;# 
   133   003883                     SHADCON         equ	14467	;# 
   134   003884                     STATUS_SHAD     equ	14468	;# 
   135   003885                     WREG_SHAD       equ	14469	;# 
   136   003886                     BSR_SHAD        equ	14470	;# 
   137   003887                     PCLATH_SHAD     equ	14471	;# 
   138   003888                     PCLATU_SHAD     equ	14472	;# 
   139   003889                     FSR0SH          equ	14473	;# 
   140   003889                     FSR0L_SHAD      equ	14473	;# 
   141   00388A                     FSR0H_SHAD      equ	14474	;# 
   142   00388B                     FSR1SH          equ	14475	;# 
   143   00388B                     FSR1L_SHAD      equ	14475	;# 
   144   00388C                     FSR1H_SHAD      equ	14476	;# 
   145   00388D                     FSR2SH          equ	14477	;# 
   146   00388D                     FSR2L_SHAD      equ	14477	;# 
   147   00388E                     FSR2H_SHAD      equ	14478	;# 
   148   00388F                     PRODSH          equ	14479	;# 
   149   00388F                     PRODL_SHAD      equ	14479	;# 
   150   003890                     PRODH_SHAD      equ	14480	;# 
   151   00389D                     IVTADL          equ	14493	;# 
   152   00389E                     IVTADH          equ	14494	;# 
   153   00389F                     IVTADU          equ	14495	;# 
   154   00395B                     WDTCON0         equ	14683	;# 
   155   00395C                     WDTCON1         equ	14684	;# 
   156   00395D                     WDTPSL          equ	14685	;# 
   157   00395E                     WDTPSH          equ	14686	;# 
   158   00395F                     WDTTMR          equ	14687	;# 
   159   003960                     CRCDATA         equ	14688	;# 
   160   003960                     CRCDATL         equ	14688	;# 
   161   003961                     CRCDATH         equ	14689	;# 
   162   003962                     CRCACC          equ	14690	;# 
   163   003962                     CRCACCL         equ	14690	;# 
   164   003963                     CRCACCH         equ	14691	;# 
   165   003964                     CRCSHFT         equ	14692	;# 
   166   003964                     CRCSHIFTL       equ	14692	;# 
   167   003965                     CRCSHIFTH       equ	14693	;# 
   168   003966                     CRCXOR          equ	14694	;# 
   169   003966                     CRCXORL         equ	14694	;# 
   170   003967                     CRCXORH         equ	14695	;# 
   171   003968                     CRCCON0         equ	14696	;# 
   172   003969                     CRCCON1         equ	14697	;# 
   173   003976                     SCANLADR        equ	14710	;# 
   174   003976                     SCANLADRL       equ	14710	;# 
   175   003977                     SCANLADRH       equ	14711	;# 
   176   003978                     SCANLADRU       equ	14712	;# 
   177   003979                     SCANHADR        equ	14713	;# 
   178   003979                     SCANHADRL       equ	14713	;# 
   179   00397A                     SCANHADRH       equ	14714	;# 
   180   00397B                     SCANHADRU       equ	14715	;# 
   181   00397C                     SCANCON0        equ	14716	;# 
   182   00397D                     SCANTRIG        equ	14717	;# 
   183   003980                     IPR0            equ	14720	;# 
   184   003981                     IPR1            equ	14721	;# 
   185   003982                     IPR2            equ	14722	;# 
   186   003983                     IPR3            equ	14723	;# 
   187   003984                     IPR4            equ	14724	;# 
   188   003985                     IPR5            equ	14725	;# 
   189   003986                     IPR6            equ	14726	;# 
   190   003987                     IPR7            equ	14727	;# 
   191   003988                     IPR8            equ	14728	;# 
   192   003989                     IPR9            equ	14729	;# 
   193   00398A                     IPR10           equ	14730	;# 
   194   003990                     PIE0            equ	14736	;# 
   195   003991                     PIE1            equ	14737	;# 
   196   003992                     PIE2            equ	14738	;# 
   197   003993                     PIE3            equ	14739	;# 
   198   003994                     PIE4            equ	14740	;# 
   199   003995                     PIE5            equ	14741	;# 
   200   003996                     PIE6            equ	14742	;# 
   201   003997                     PIE7            equ	14743	;# 
   202   003998                     PIE8            equ	14744	;# 
   203   003999                     PIE9            equ	14745	;# 
   204   00399A                     PIE10           equ	14746	;# 
   205   0039A0                     PIR0            equ	14752	;# 
   206   0039A1                     PIR1            equ	14753	;# 
   207   0039A2                     PIR2            equ	14754	;# 
   208   0039A3                     PIR3            equ	14755	;# 
   209   0039A4                     PIR4            equ	14756	;# 
   210   0039A5                     PIR5            equ	14757	;# 
   211   0039A6                     PIR6            equ	14758	;# 
   212   0039A7                     PIR7            equ	14759	;# 
   213   0039A8                     PIR8            equ	14760	;# 
   214   0039A9                     PIR9            equ	14761	;# 
   215   0039AA                     PIR10           equ	14762	;# 
   216   0039C0                     PMD0            equ	14784	;# 
   217   0039C1                     PMD1            equ	14785	;# 
   218   0039C2                     PMD2            equ	14786	;# 
   219   0039C3                     PMD3            equ	14787	;# 
   220   0039C4                     PMD4            equ	14788	;# 
   221   0039C5                     PMD5            equ	14789	;# 
   222   0039C6                     PMD6            equ	14790	;# 
   223   0039C7                     PMD7            equ	14791	;# 
   224   0039D0                     BORCON          equ	14800	;# 
   225   0039D1                     VREGCON         equ	14801	;# 
   226   0039D8                     CPUDOZE         equ	14808	;# 
   227   0039D9                     OSCCON1         equ	14809	;# 
   228   0039DA                     OSCCON2         equ	14810	;# 
   229   0039DB                     OSCCON3         equ	14811	;# 
   230   0039DC                     OSCSTAT         equ	14812	;# 
   231   0039DC                     OSCSTAT1        equ	14812	;# 
   232   0039DD                     OSCEN           equ	14813	;# 
   233   0039DE                     OSCTUNE         equ	14814	;# 
   234   0039DF                     OSCFRQ          equ	14815	;# 
   235   0039E0                     NVMADRL         equ	14816	;# 
   236   0039E1                     NVMADRH         equ	14817	;# 
   237   0039E3                     NVMDAT          equ	14819	;# 
   238   0039E5                     NVMCON1         equ	14821	;# 
   239   0039E6                     NVMCON2         equ	14822	;# 
   240   0039EF                     PRLOCK          equ	14831	;# 
   241   0039F1                     ISRPR           equ	14833	;# 
   242   0039F2                     MAINPR          equ	14834	;# 
   243   0039F3                     DMA1PR          equ	14835	;# 
   244   0039F4                     DMA2PR          equ	14836	;# 
   245   0039F7                     SCANPR          equ	14839	;# 
   246   003A00                     RA0PPS          equ	14848	;# 
   247   003A01                     RA1PPS          equ	14849	;# 
   248   003A02                     RA2PPS          equ	14850	;# 
   249   003A03                     RA3PPS          equ	14851	;# 
   250   003A04                     RA4PPS          equ	14852	;# 
   251   003A05                     RA5PPS          equ	14853	;# 
   252   003A06                     RA6PPS          equ	14854	;# 
   253   003A07                     RA7PPS          equ	14855	;# 
   254   003A08                     RB0PPS          equ	14856	;# 
   255   003A09                     RB1PPS          equ	14857	;# 
   256   003A0A                     RB2PPS          equ	14858	;# 
   257   003A0B                     RB3PPS          equ	14859	;# 
   258   003A0C                     RB4PPS          equ	14860	;# 
   259   003A0D                     RB5PPS          equ	14861	;# 
   260   003A0E                     RB6PPS          equ	14862	;# 
   261   003A0F                     RB7PPS          equ	14863	;# 
   262   003A10                     RC0PPS          equ	14864	;# 
   263   003A11                     RC1PPS          equ	14865	;# 
   264   003A12                     RC2PPS          equ	14866	;# 
   265   003A13                     RC3PPS          equ	14867	;# 
   266   003A14                     RC4PPS          equ	14868	;# 
   267   003A15                     RC5PPS          equ	14869	;# 
   268   003A16                     RC6PPS          equ	14870	;# 
   269   003A17                     RC7PPS          equ	14871	;# 
   270   003A18                     RD0PPS          equ	14872	;# 
   271   003A19                     RD1PPS          equ	14873	;# 
   272   003A1A                     RD2PPS          equ	14874	;# 
   273   003A1B                     RD3PPS          equ	14875	;# 
   274   003A1C                     RD4PPS          equ	14876	;# 
   275   003A1D                     RD5PPS          equ	14877	;# 
   276   003A1E                     RD6PPS          equ	14878	;# 
   277   003A1F                     RD7PPS          equ	14879	;# 
   278   003A20                     RE0PPS          equ	14880	;# 
   279   003A21                     RE1PPS          equ	14881	;# 
   280   003A22                     RE2PPS          equ	14882	;# 
   281   003A40                     ANSELA          equ	14912	;# 
   282   003A41                     WPUA            equ	14913	;# 
   283   003A42                     ODCONA          equ	14914	;# 
   284   003A43                     SLRCONA         equ	14915	;# 
   285   003A44                     INLVLA          equ	14916	;# 
   286   003A45                     IOCAP           equ	14917	;# 
   287   003A46                     IOCAN           equ	14918	;# 
   288   003A47                     IOCAF           equ	14919	;# 
   289   003A50                     ANSELB          equ	14928	;# 
   290   003A51                     WPUB            equ	14929	;# 
   291   003A52                     ODCONB          equ	14930	;# 
   292   003A53                     SLRCONB         equ	14931	;# 
   293   003A54                     INLVLB          equ	14932	;# 
   294   003A55                     IOCBP           equ	14933	;# 
   295   003A56                     IOCBN           equ	14934	;# 
   296   003A57                     IOCBF           equ	14935	;# 
   297   003A5A                     RB1I2C          equ	14938	;# 
   298   003A5B                     RB2I2C          equ	14939	;# 
   299   003A60                     ANSELC          equ	14944	;# 
   300   003A61                     WPUC            equ	14945	;# 
   301   003A62                     ODCONC          equ	14946	;# 
   302   003A63                     SLRCONC         equ	14947	;# 
   303   003A64                     INLVLC          equ	14948	;# 
   304   003A65                     IOCCP           equ	14949	;# 
   305   003A66                     IOCCN           equ	14950	;# 
   306   003A67                     IOCCF           equ	14951	;# 
   307   003A6A                     RC3I2C          equ	14954	;# 
   308   003A6B                     RC4I2C          equ	14955	;# 
   309   003A70                     ANSELD          equ	14960	;# 
   310   003A71                     WPUD            equ	14961	;# 
   311   003A72                     ODCOND          equ	14962	;# 
   312   003A73                     SLRCOND         equ	14963	;# 
   313   003A74                     INLVLD          equ	14964	;# 
   314   003A7A                     RD0I2C          equ	14970	;# 
   315   003A7B                     RD1I2C          equ	14971	;# 
   316   003A80                     ANSELE          equ	14976	;# 
   317   003A81                     WPUE            equ	14977	;# 
   318   003A82                     ODCONE          equ	14978	;# 
   319   003A83                     SLRCONE         equ	14979	;# 
   320   003A84                     INLVLE          equ	14980	;# 
   321   003A85                     IOCEP           equ	14981	;# 
   322   003A86                     IOCEN           equ	14982	;# 
   323   003A87                     IOCEF           equ	14983	;# 
   324   003ABF                     PPSLOCK         equ	15039	;# 
   325   003AC0                     INT0PPS         equ	15040	;# 
   326   003AC1                     INT1PPS         equ	15041	;# 
   327   003AC2                     INT2PPS         equ	15042	;# 
   328   003AC3                     T0CKIPPS        equ	15043	;# 
   329   003AC4                     T1CKIPPS        equ	15044	;# 
   330   003AC5                     T1GPPS          equ	15045	;# 
   331   003AC6                     T3CKIPPS        equ	15046	;# 
   332   003AC7                     T3GPPS          equ	15047	;# 
   333   003AC8                     T5CKIPPS        equ	15048	;# 
   334   003AC9                     T5GPPS          equ	15049	;# 
   335   003ACA                     T2INPPS         equ	15050	;# 
   336   003ACB                     T4INPPS         equ	15051	;# 
   337   003ACC                     T6INPPS         equ	15052	;# 
   338   003ACD                     CCP1PPS         equ	15053	;# 
   339   003ACE                     CCP2PPS         equ	15054	;# 
   340   003ACF                     CCP3PPS         equ	15055	;# 
   341   003AD0                     CCP4PPS         equ	15056	;# 
   342   003AD1                     SMT1WINPPS      equ	15057	;# 
   343   003AD2                     SMT1SIGPPS      equ	15058	;# 
   344   003AD3                     CWG1INPPS       equ	15059	;# 
   345   003AD4                     CWG2INPPS       equ	15060	;# 
   346   003AD5                     CWG3INPPS       equ	15061	;# 
   347   003AD6                     MD1CARLPPS      equ	15062	;# 
   348   003AD7                     MD1CARHPPS      equ	15063	;# 
   349   003AD8                     MD1SRCPPS       equ	15064	;# 
   350   003AD9                     CLCIN0PPS       equ	15065	;# 
   351   003ADA                     CLCIN1PPS       equ	15066	;# 
   352   003ADB                     CLCIN2PPS       equ	15067	;# 
   353   003ADC                     CLCIN3PPS       equ	15068	;# 
   354   003ADD                     ADACTPPS        equ	15069	;# 
   355   003ADE                     SPI1SCKPPS      equ	15070	;# 
   356   003ADF                     SPI1SDIPPS      equ	15071	;# 
   357   003AE0                     SPI1SSPPS       equ	15072	;# 
   358   003AE1                     I2C1SCLPPS      equ	15073	;# 
   359   003AE2                     I2C1SDAPPS      equ	15074	;# 
   360   003AE3                     I2C2SCLPPS      equ	15075	;# 
   361   003AE4                     I2C2SDAPPS      equ	15076	;# 
   362   003AE5                     U1RXPPS         equ	15077	;# 
   363   003AE6                     U1CTSPPS        equ	15078	;# 
   364   003AE8                     U2RXPPS         equ	15080	;# 
   365   003AE9                     U2CTSPPS        equ	15081	;# 
   366   003BC9                     DMA2BUF         equ	15305	;# 
   367   003BCA                     DMA2DCNT        equ	15306	;# 
   368   003BCA                     DMA2DCNTL       equ	15306	;# 
   369   003BCB                     DMA2DCNTH       equ	15307	;# 
   370   003BCC                     DMA2DPTR        equ	15308	;# 
   371   003BCC                     DMA2DPTRL       equ	15308	;# 
   372   003BCD                     DMA2DPTRH       equ	15309	;# 
   373   003BCE                     DMA2DSZ         equ	15310	;# 
   374   003BCE                     DMA2DSZL        equ	15310	;# 
   375   003BCF                     DMA2DSZH        equ	15311	;# 
   376   003BD0                     DMA2DSA         equ	15312	;# 
   377   003BD0                     DMA2DSAL        equ	15312	;# 
   378   003BD1                     DMA2DSAH        equ	15313	;# 
   379   003BD2                     DMA2SCNT        equ	15314	;# 
   380   003BD2                     DMA2SCNTL       equ	15314	;# 
   381   003BD3                     DMA2SCNTH       equ	15315	;# 
   382   003BD4                     DMA2SPTR        equ	15316	;# 
   383   003BD4                     DMA2SPTRL       equ	15316	;# 
   384   003BD5                     DMA2SPTRH       equ	15317	;# 
   385   003BD6                     DMA2SPTRU       equ	15318	;# 
   386   003BD7                     DMA2SSZ         equ	15319	;# 
   387   003BD7                     DMA2SSZL        equ	15319	;# 
   388   003BD8                     DMA2SSZH        equ	15320	;# 
   389   003BD9                     DMA2SSA         equ	15321	;# 
   390   003BD9                     DMA2SSAL        equ	15321	;# 
   391   003BDA                     DMA2SSAH        equ	15322	;# 
   392   003BDB                     DMA2SSAU        equ	15323	;# 
   393   003BDC                     DMA2CON0        equ	15324	;# 
   394   003BDD                     DMA2CON1        equ	15325	;# 
   395   003BDE                     DMA2AIRQ        equ	15326	;# 
   396   003BDF                     DMA2SIRQ        equ	15327	;# 
   397   003BE9                     DMA1BUF         equ	15337	;# 
   398   003BEA                     DMA1DCNT        equ	15338	;# 
   399   003BEA                     DMA1DCNTL       equ	15338	;# 
   400   003BEB                     DMA1DCNTH       equ	15339	;# 
   401   003BEC                     DMA1DPTR        equ	15340	;# 
   402   003BEC                     DMA1DPTRL       equ	15340	;# 
   403   003BED                     DMA1DPTRH       equ	15341	;# 
   404   003BEE                     DMA1DSZ         equ	15342	;# 
   405   003BEE                     DMA1DSZL        equ	15342	;# 
   406   003BEF                     DMA1DSZH        equ	15343	;# 
   407   003BF0                     DMA1DSA         equ	15344	;# 
   408   003BF0                     DMA1DSAL        equ	15344	;# 
   409   003BF1                     DMA1DSAH        equ	15345	;# 
   410   003BF2                     DMA1SCNT        equ	15346	;# 
   411   003BF2                     DMA1SCNTL       equ	15346	;# 
   412   003BF3                     DMA1SCNTH       equ	15347	;# 
   413   003BF4                     DMA1SPTR        equ	15348	;# 
   414   003BF4                     DMA1SPTRL       equ	15348	;# 
   415   003BF5                     DMA1SPTRH       equ	15349	;# 
   416   003BF6                     DMA1SPTRU       equ	15350	;# 
   417   003BF7                     DMA1SSZ         equ	15351	;# 
   418   003BF7                     DMA1SSZL        equ	15351	;# 
   419   003BF8                     DMA1SSZH        equ	15352	;# 
   420   003BF9                     DMA1SSA         equ	15353	;# 
   421   003BF9                     DMA1SSAL        equ	15353	;# 
   422   003BFA                     DMA1SSAH        equ	15354	;# 
   423   003BFB                     DMA1SSAU        equ	15355	;# 
   424   003BFC                     DMA1CON0        equ	15356	;# 
   425   003BFD                     DMA1CON1        equ	15357	;# 
   426   003BFE                     DMA1AIRQ        equ	15358	;# 
   427   003BFF                     DMA1SIRQ        equ	15359	;# 
   428   003C56                     CLC4CON         equ	15446	;# 
   429   003C57                     CLC4POL         equ	15447	;# 
   430   003C58                     CLC4SEL0        equ	15448	;# 
   431   003C59                     CLC4SEL1        equ	15449	;# 
   432   003C5A                     CLC4SEL2        equ	15450	;# 
   433   003C5B                     CLC4SEL3        equ	15451	;# 
   434   003C5C                     CLC4GLS0        equ	15452	;# 
   435   003C5D                     CLC4GLS1        equ	15453	;# 
   436   003C5E                     CLC4GLS2        equ	15454	;# 
   437   003C5F                     CLC4GLS3        equ	15455	;# 
   438   003C60                     CLC3CON         equ	15456	;# 
   439   003C61                     CLC3POL         equ	15457	;# 
   440   003C62                     CLC3SEL0        equ	15458	;# 
   441   003C63                     CLC3SEL1        equ	15459	;# 
   442   003C64                     CLC3SEL2        equ	15460	;# 
   443   003C65                     CLC3SEL3        equ	15461	;# 
   444   003C66                     CLC3GLS0        equ	15462	;# 
   445   003C67                     CLC3GLS1        equ	15463	;# 
   446   003C68                     CLC3GLS2        equ	15464	;# 
   447   003C69                     CLC3GLS3        equ	15465	;# 
   448   003C6A                     CLC2CON         equ	15466	;# 
   449   003C6B                     CLC2POL         equ	15467	;# 
   450   003C6C                     CLC2SEL0        equ	15468	;# 
   451   003C6D                     CLC2SEL1        equ	15469	;# 
   452   003C6E                     CLC2SEL2        equ	15470	;# 
   453   003C6F                     CLC2SEL3        equ	15471	;# 
   454   003C70                     CLC2GLS0        equ	15472	;# 
   455   003C71                     CLC2GLS1        equ	15473	;# 
   456   003C72                     CLC2GLS2        equ	15474	;# 
   457   003C73                     CLC2GLS3        equ	15475	;# 
   458   003C74                     CLC1CON         equ	15476	;# 
   459   003C75                     CLC1POL         equ	15477	;# 
   460   003C76                     CLC1SEL0        equ	15478	;# 
   461   003C77                     CLC1SEL1        equ	15479	;# 
   462   003C78                     CLC1SEL2        equ	15480	;# 
   463   003C79                     CLC1SEL3        equ	15481	;# 
   464   003C7A                     CLC1GLS0        equ	15482	;# 
   465   003C7B                     CLC1GLS1        equ	15483	;# 
   466   003C7C                     CLC1GLS2        equ	15484	;# 
   467   003C7D                     CLC1GLS3        equ	15485	;# 
   468   003C7E                     CLCDATA0        equ	15486	;# 
   469   003CE5                     CLKRCON         equ	15589	;# 
   470   003CE6                     CLKRCLK         equ	15590	;# 
   471   003CFA                     MD1CON0         equ	15610	;# 
   472   003CFB                     MD1CON1         equ	15611	;# 
   473   003CFC                     MD1SRC          equ	15612	;# 
   474   003CFD                     MD1CARL         equ	15613	;# 
   475   003CFE                     MD1CARH         equ	15614	;# 
   476   003D10                     SPI1RXB         equ	15632	;# 
   477   003D11                     SPI1TXB         equ	15633	;# 
   478   003D12                     SPI1TCNT        equ	15634	;# 
   479   003D12                     SPI1TCNTL       equ	15634	;# 
   480   003D13                     SPI1TCNTH       equ	15635	;# 
   481   003D14                     SPI1CON0        equ	15636	;# 
   482   003D15                     SPI1CON1        equ	15637	;# 
   483   003D16                     SPI1CON2        equ	15638	;# 
   484   003D17                     SPI1STATUS      equ	15639	;# 
   485   003D18                     SPI1TWIDTH      equ	15640	;# 
   486   003D19                     SPI1BAUD        equ	15641	;# 
   487   003D1A                     SPI1INTF        equ	15642	;# 
   488   003D1B                     SPI1INTE        equ	15643	;# 
   489   003D1C                     SPI1CLK         equ	15644	;# 
   490   003D54                     I2C2RXB         equ	15700	;# 
   491   003D55                     I2C2TXB         equ	15701	;# 
   492   003D56                     I2C2CNT         equ	15702	;# 
   493   003D57                     I2C2ADB0        equ	15703	;# 
   494   003D58                     I2C2ADB1        equ	15704	;# 
   495   003D59                     I2C2ADR0        equ	15705	;# 
   496   003D5A                     I2C2ADR1        equ	15706	;# 
   497   003D5B                     I2C2ADR2        equ	15707	;# 
   498   003D5C                     I2C2ADR3        equ	15708	;# 
   499   003D5D                     I2C2CON0        equ	15709	;# 
   500   003D5E                     I2C2CON1        equ	15710	;# 
   501   003D5F                     I2C2CON2        equ	15711	;# 
   502   003D60                     I2C2ERR         equ	15712	;# 
   503   003D61                     I2C2STAT0       equ	15713	;# 
   504   003D62                     I2C2STAT1       equ	15714	;# 
   505   003D63                     I2C2PIR         equ	15715	;# 
   506   003D64                     I2C2PIE         equ	15716	;# 
   507   003D65                     I2C2CLK         equ	15717	;# 
   508   003D66                     I2C2BTO         equ	15718	;# 
   509   003D6A                     I2C1RXB         equ	15722	;# 
   510   003D6B                     I2C1TXB         equ	15723	;# 
   511   003D6C                     I2C1CNT         equ	15724	;# 
   512   003D6D                     I2C1ADB0        equ	15725	;# 
   513   003D6E                     I2C1ADB1        equ	15726	;# 
   514   003D6F                     I2C1ADR0        equ	15727	;# 
   515   003D70                     I2C1ADR1        equ	15728	;# 
   516   003D71                     I2C1ADR2        equ	15729	;# 
   517   003D72                     I2C1ADR3        equ	15730	;# 
   518   003D73                     I2C1CON0        equ	15731	;# 
   519   003D74                     I2C1CON1        equ	15732	;# 
   520   003D75                     I2C1CON2        equ	15733	;# 
   521   003D76                     I2C1ERR         equ	15734	;# 
   522   003D77                     I2C1STAT0       equ	15735	;# 
   523   003D78                     I2C1STAT1       equ	15736	;# 
   524   003D79                     I2C1PIR         equ	15737	;# 
   525   003D7A                     I2C1PIE         equ	15738	;# 
   526   003D7B                     I2C1CLK         equ	15739	;# 
   527   003D7C                     I2C1BTO         equ	15740	;# 
   528   003DD0                     U2RXB           equ	15824	;# 
   529   003DD0                     U2RXBL          equ	15824	;# 
   530   003DD2                     U2TXB           equ	15826	;# 
   531   003DD2                     U2TXBL          equ	15826	;# 
   532   003DD4                     U2P1            equ	15828	;# 
   533   003DD4                     U2P1L           equ	15828	;# 
   534   003DD6                     U2P2            equ	15830	;# 
   535   003DD6                     U2P2L           equ	15830	;# 
   536   003DD8                     U2P3            equ	15832	;# 
   537   003DD8                     U2P3L           equ	15832	;# 
   538   003DDA                     U2CON0          equ	15834	;# 
   539   003DDB                     U2CON1          equ	15835	;# 
   540   003DDC                     U2CON2          equ	15836	;# 
   541   003DDD                     U2BRG           equ	15837	;# 
   542   003DDD                     U2BRGL          equ	15837	;# 
   543   003DDE                     U2BRGH          equ	15838	;# 
   544   003DDF                     U2FIFO          equ	15839	;# 
   545   003DE0                     U2UIR           equ	15840	;# 
   546   003DE1                     U2ERRIR         equ	15841	;# 
   547   003DE2                     U2ERRIE         equ	15842	;# 
   548   003DE8                     U1RXB           equ	15848	;# 
   549   003DE8                     U1RXBL          equ	15848	;# 
   550   003DE9                     U1RXCHK         equ	15849	;# 
   551   003DEA                     U1TXB           equ	15850	;# 
   552   003DEA                     U1TXBL          equ	15850	;# 
   553   003DEB                     U1TXCHK         equ	15851	;# 
   554   003DEC                     U1P1            equ	15852	;# 
   555   003DEC                     U1P1L           equ	15852	;# 
   556   003DED                     U1P1H           equ	15853	;# 
   557   003DEE                     U1P2            equ	15854	;# 
   558   003DEE                     U1P2L           equ	15854	;# 
   559   003DEF                     U1P2H           equ	15855	;# 
   560   003DF0                     U1P3            equ	15856	;# 
   561   003DF0                     U1P3L           equ	15856	;# 
   562   003DF1                     U1P3H           equ	15857	;# 
   563   003DF2                     U1CON0          equ	15858	;# 
   564   003DF3                     U1CON1          equ	15859	;# 
   565   003DF4                     U1CON2          equ	15860	;# 
   566   003DF5                     U1BRG           equ	15861	;# 
   567   003DF5                     U1BRGL          equ	15861	;# 
   568   003DF6                     U1BRGH          equ	15862	;# 
   569   003DF7                     U1FIFO          equ	15863	;# 
   570   003DF8                     U1UIR           equ	15864	;# 
   571   003DF9                     U1ERRIR         equ	15865	;# 
   572   003DFA                     U1ERRIE         equ	15866	;# 
   573   003E9C                     DAC1CON1        equ	16028	;# 
   574   003E9E                     DAC1CON0        equ	16030	;# 
   575   003EB8                     CM2CON0         equ	16056	;# 
   576   003EB9                     CM2CON1         equ	16057	;# 
   577   003EBA                     CM2NCH          equ	16058	;# 
   578   003EBB                     CM2PCH          equ	16059	;# 
   579   003EBC                     CM1CON0         equ	16060	;# 
   580   003EBD                     CM1CON1         equ	16061	;# 
   581   003EBE                     CM1NCH          equ	16062	;# 
   582   003EBF                     CM1PCH          equ	16063	;# 
   583   003EC0                     CMOUT           equ	16064	;# 
   584   003EC1                     FVRCON          equ	16065	;# 
   585   003EC3                     ZCDCON          equ	16067	;# 
   586   003EC9                     HLVDCON0        equ	16073	;# 
   587   003ECA                     HLVDCON1        equ	16074	;# 
   588   003ED7                     ADCP            equ	16087	;# 
   589   003EDE                     ADLTH           equ	16094	;# 
   590   003EDE                     ADLTHL          equ	16094	;# 
   591   003EDF                     ADLTHH          equ	16095	;# 
   592   003EE0                     ADUTH           equ	16096	;# 
   593   003EE0                     ADUTHL          equ	16096	;# 
   594   003EE1                     ADUTHH          equ	16097	;# 
   595   003EE2                     ADERR           equ	16098	;# 
   596   003EE2                     ADERRL          equ	16098	;# 
   597   003EE3                     ADERRH          equ	16099	;# 
   598   003EE4                     ADSTPT          equ	16100	;# 
   599   003EE4                     ADSTPTL         equ	16100	;# 
   600   003EE5                     ADSTPTH         equ	16101	;# 
   601   003EE6                     ADFLTR          equ	16102	;# 
   602   003EE6                     ADFLTRL         equ	16102	;# 
   603   003EE7                     ADFLTRH         equ	16103	;# 
   604   003EE8                     ADACC           equ	16104	;# 
   605   003EE8                     ADACCL          equ	16104	;# 
   606   003EE9                     ADACCH          equ	16105	;# 
   607   003EEA                     ADACCU          equ	16106	;# 
   608   003EEB                     ADCNT           equ	16107	;# 
   609   003EEC                     ADRPT           equ	16108	;# 
   610   003EED                     ADPREV          equ	16109	;# 
   611   003EED                     ADPREVL         equ	16109	;# 
   612   003EEE                     ADPREVH         equ	16110	;# 
   613   003EEF                     ADRES           equ	16111	;# 
   614   003EEF                     ADRESL          equ	16111	;# 
   615   003EF0                     ADRESH          equ	16112	;# 
   616   003EF1                     ADPCH           equ	16113	;# 
   617   003EF3                     ADACQ           equ	16115	;# 
   618   003EF3                     ADACQL          equ	16115	;# 
   619   003EF4                     ADACQH          equ	16116	;# 
   620   003EF5                     ADCAP           equ	16117	;# 
   621   003EF6                     ADPRE           equ	16118	;# 
   622   003EF6                     ADPREL          equ	16118	;# 
   623   003EF7                     ADPREH          equ	16119	;# 
   624   003EF8                     ADCON0          equ	16120	;# 
   625   003EF9                     ADCON1          equ	16121	;# 
   626   003EFA                     ADCON2          equ	16122	;# 
   627   003EFB                     ADCON3          equ	16123	;# 
   628   003EFC                     ADSTAT          equ	16124	;# 
   629   003EFD                     ADREF           equ	16125	;# 
   630   003EFE                     ADACT           equ	16126	;# 
   631   003EFF                     ADCLK           equ	16127	;# 
   632   003F12                     SMT1TMR         equ	16146	;# 
   633   003F12                     SMT1TMRL        equ	16146	;# 
   634   003F13                     SMT1TMRH        equ	16147	;# 
   635   003F14                     SMT1TMRU        equ	16148	;# 
   636   003F15                     SMT1CPR         equ	16149	;# 
   637   003F15                     SMT1CPRL        equ	16149	;# 
   638   003F16                     SMT1CPRH        equ	16150	;# 
   639   003F17                     SMT1CPRU        equ	16151	;# 
   640   003F18                     SMT1CPW         equ	16152	;# 
   641   003F18                     SMT1CPWL        equ	16152	;# 
   642   003F19                     SMT1CPWH        equ	16153	;# 
   643   003F1A                     SMT1CPWU        equ	16154	;# 
   644   003F1B                     SMT1PR          equ	16155	;# 
   645   003F1B                     SMT1PRL         equ	16155	;# 
   646   003F1C                     SMT1PRH         equ	16156	;# 
   647   003F1D                     SMT1PRU         equ	16157	;# 
   648   003F1E                     SMT1CON0        equ	16158	;# 
   649   003F1F                     SMT1CON1        equ	16159	;# 
   650   003F20                     SMT1STAT        equ	16160	;# 
   651   003F21                     SMT1CLK         equ	16161	;# 
   652   003F22                     SMT1SIG         equ	16162	;# 
   653   003F23                     SMT1WIN         equ	16163	;# 
   654   003F38                     NCO1ACC         equ	16184	;# 
   655   003F38                     NCO1ACCL        equ	16184	;# 
   656   003F39                     NCO1ACCH        equ	16185	;# 
   657   003F3A                     NCO1ACCU        equ	16186	;# 
   658   003F3B                     NCO1INC         equ	16187	;# 
   659   003F3B                     NCO1INCL        equ	16187	;# 
   660   003F3C                     NCO1INCH        equ	16188	;# 
   661   003F3D                     NCO1INCU        equ	16189	;# 
   662   003F3E                     NCO1CON         equ	16190	;# 
   663   003F3F                     NCO1CLK         equ	16191	;# 
   664   003F40                     CWG3CLK         equ	16192	;# 
   665   003F40                     CWG3CLKCON      equ	16192	;# 
   666   003F41                     CWG3ISM         equ	16193	;# 
   667   003F41                     CWG3DAT         equ	16193	;# 
   668   003F42                     CWG3DBR         equ	16194	;# 
   669   003F43                     CWG3DBF         equ	16195	;# 
   670   003F44                     CWG3CON0        equ	16196	;# 
   671   003F45                     CWG3CON1        equ	16197	;# 
   672   003F46                     CWG3AS0         equ	16198	;# 
   673   003F47                     CWG3AS1         equ	16199	;# 
   674   003F48                     CWG3STR         equ	16200	;# 
   675   003F49                     CWG2CLK         equ	16201	;# 
   676   003F49                     CWG2CLKCON      equ	16201	;# 
   677   003F4A                     CWG2ISM         equ	16202	;# 
   678   003F4A                     CWG2DAT         equ	16202	;# 
   679   003F4B                     CWG2DBR         equ	16203	;# 
   680   003F4C                     CWG2DBF         equ	16204	;# 
   681   003F4D                     CWG2CON0        equ	16205	;# 
   682   003F4E                     CWG2CON1        equ	16206	;# 
   683   003F4F                     CWG2AS0         equ	16207	;# 
   684   003F50                     CWG2AS1         equ	16208	;# 
   685   003F51                     CWG2STR         equ	16209	;# 
   686   003F52                     CWG1CLK         equ	16210	;# 
   687   003F52                     CWG1CLKCON      equ	16210	;# 
   688   003F53                     CWG1ISM         equ	16211	;# 
   689   003F53                     CWG1DAT         equ	16211	;# 
   690   003F54                     CWG1DBR         equ	16212	;# 
   691   003F55                     CWG1DBF         equ	16213	;# 
   692   003F56                     CWG1CON0        equ	16214	;# 
   693   003F57                     CWG1CON1        equ	16215	;# 
   694   003F58                     CWG1AS0         equ	16216	;# 
   695   003F59                     CWG1AS1         equ	16217	;# 
   696   003F5A                     CWG1STR         equ	16218	;# 
   697   003F5E                     CCPTMRS0        equ	16222	;# 
   698   003F5F                     CCPTMRS1        equ	16223	;# 
   699   003F60                     PWM8DC          equ	16224	;# 
   700   003F60                     PWM8DCL         equ	16224	;# 
   701   003F61                     PWM8DCH         equ	16225	;# 
   702   003F62                     PWM8CON         equ	16226	;# 
   703   003F64                     PWM7DC          equ	16228	;# 
   704   003F64                     PWM7DCL         equ	16228	;# 
   705   003F65                     PWM7DCH         equ	16229	;# 
   706   003F66                     PWM7CON         equ	16230	;# 
   707   003F68                     PWM6DC          equ	16232	;# 
   708   003F68                     PWM6DCL         equ	16232	;# 
   709   003F69                     PWM6DCH         equ	16233	;# 
   710   003F6A                     PWM6CON         equ	16234	;# 
   711   003F6C                     PWM5DC          equ	16236	;# 
   712   003F6C                     PWM5DCL         equ	16236	;# 
   713   003F6D                     PWM5DCH         equ	16237	;# 
   714   003F6E                     PWM5CON         equ	16238	;# 
   715   003F70                     CCPR4           equ	16240	;# 
   716   003F70                     CCPR4L          equ	16240	;# 
   717   003F71                     CCPR4H          equ	16241	;# 
   718   003F72                     CCP4CON         equ	16242	;# 
   719   003F73                     CCP4CAP         equ	16243	;# 
   720   003F74                     CCPR3           equ	16244	;# 
   721   003F74                     CCPR3L          equ	16244	;# 
   722   003F75                     CCPR3H          equ	16245	;# 
   723   003F76                     CCP3CON         equ	16246	;# 
   724   003F77                     CCP3CAP         equ	16247	;# 
   725   003F78                     CCPR2           equ	16248	;# 
   726   003F78                     CCPR2L          equ	16248	;# 
   727   003F79                     CCPR2H          equ	16249	;# 
   728   003F7A                     CCP2CON         equ	16250	;# 
   729   003F7B                     CCP2CAP         equ	16251	;# 
   730   003F7C                     CCPR1           equ	16252	;# 
   731   003F7C                     CCPR1L          equ	16252	;# 
   732   003F7D                     CCPR1H          equ	16253	;# 
   733   003F7E                     CCP1CON         equ	16254	;# 
   734   003F7F                     CCP1CAP         equ	16255	;# 
   735   003F92                     T6TMR           equ	16274	;# 
   736   003F92                     TMR6            equ	16274	;# 
   737   003F93                     T6PR            equ	16275	;# 
   738   003F93                     PR6             equ	16275	;# 
   739   003F94                     T6CON           equ	16276	;# 
   740   003F95                     T6HLT           equ	16277	;# 
   741   003F96                     T6CLKCON        equ	16278	;# 
   742   003F96                     T6CLK           equ	16278	;# 
   743   003F97                     T6RST           equ	16279	;# 
   744   003F98                     TMR5            equ	16280	;# 
   745   003F98                     TMR5L           equ	16280	;# 
   746   003F99                     TMR5H           equ	16281	;# 
   747   003F9A                     T5CON           equ	16282	;# 
   748   003F9A                     TMR5CON         equ	16282	;# 
   749   003F9B                     T5GCON          equ	16283	;# 
   750   003F9B                     TMR5GCON        equ	16283	;# 
   751   003F9C                     T5GATE          equ	16284	;# 
   752   003F9C                     TMR5GATE        equ	16284	;# 
   753   003F9D                     T5CLK           equ	16285	;# 
   754   003F9D                     TMR5CLK         equ	16285	;# 
   755   003F9D                     PR5             equ	16285	;# 
   756   003F9E                     T4TMR           equ	16286	;# 
   757   003F9E                     TMR4            equ	16286	;# 
   758   003F9F                     T4PR            equ	16287	;# 
   759   003F9F                     PR4             equ	16287	;# 
   760   003FA0                     T4CON           equ	16288	;# 
   761   003FA1                     T4HLT           equ	16289	;# 
   762   003FA2                     T4CLKCON        equ	16290	;# 
   763   003FA2                     T4CLK           equ	16290	;# 
   764   003FA3                     T4RST           equ	16291	;# 
   765   003FA4                     TMR3            equ	16292	;# 
   766   003FA4                     TMR3L           equ	16292	;# 
   767   003FA5                     TMR3H           equ	16293	;# 
   768   003FA6                     T3CON           equ	16294	;# 
   769   003FA6                     TMR3CON         equ	16294	;# 
   770   003FA7                     T3GCON          equ	16295	;# 
   771   003FA7                     TMR3GCON        equ	16295	;# 
   772   003FA8                     T3GATE          equ	16296	;# 
   773   003FA8                     TMR3GATE        equ	16296	;# 
   774   003FA9                     T3CLK           equ	16297	;# 
   775   003FA9                     TMR3CLK         equ	16297	;# 
   776   003FA9                     PR3             equ	16297	;# 
   777   003FAA                     T2TMR           equ	16298	;# 
   778   003FAA                     TMR2            equ	16298	;# 
   779   003FAB                     T2PR            equ	16299	;# 
   780   003FAB                     PR2             equ	16299	;# 
   781   003FAC                     T2CON           equ	16300	;# 
   782   003FAD                     T2HLT           equ	16301	;# 
   783   003FAE                     T2CLKCON        equ	16302	;# 
   784   003FAE                     T2CLK           equ	16302	;# 
   785   003FAF                     T2RST           equ	16303	;# 
   786   003FB0                     TMR1            equ	16304	;# 
   787   003FB0                     TMR1L           equ	16304	;# 
   788   003FB1                     TMR1H           equ	16305	;# 
   789   003FB2                     T1CON           equ	16306	;# 
   790   003FB2                     TMR1CON         equ	16306	;# 
   791   003FB3                     T1GCON          equ	16307	;# 
   792   003FB3                     TMR1GCON        equ	16307	;# 
   793   003FB4                     T1GATE          equ	16308	;# 
   794   003FB4                     TMR1GATE        equ	16308	;# 
   795   003FB5                     T1CLK           equ	16309	;# 
   796   003FB5                     TMR1CLK         equ	16309	;# 
   797   003FB5                     PR1             equ	16309	;# 
   798   003FB6                     TMR0L           equ	16310	;# 
   799   003FB6                     TMR0            equ	16310	;# 
   800   003FB7                     TMR0H           equ	16311	;# 
   801   003FB7                     PR0             equ	16311	;# 
   802   003FB8                     T0CON0          equ	16312	;# 
   803   003FB9                     T0CON1          equ	16313	;# 
   804   003FBA                     LATA            equ	16314	;# 
   805   003FBB                     LATB            equ	16315	;# 
   806   003FBC                     LATC            equ	16316	;# 
   807   003FBD                     LATD            equ	16317	;# 
   808   003FBE                     LATE            equ	16318	;# 
   809   003FC2                     TRISA           equ	16322	;# 
   810   003FC3                     TRISB           equ	16323	;# 
   811   003FC4                     TRISC           equ	16324	;# 
   812   003FC5                     TRISD           equ	16325	;# 
   813   003FC6                     TRISE           equ	16326	;# 
   814   003FCA                     PORTA           equ	16330	;# 
   815   003FCB                     PORTB           equ	16331	;# 
   816   003FCC                     PORTC           equ	16332	;# 
   817   003FCD                     PORTD           equ	16333	;# 
   818   003FCE                     PORTE           equ	16334	;# 
   819   003FD2                     INTCON0         equ	16338	;# 
   820   003FD3                     INTCON1         equ	16339	;# 
   821   003FD4                     IVTLOCK         equ	16340	;# 
   822   003FD5                     IVTBASE         equ	16341	;# 
   823   003FD5                     IVTBASEL        equ	16341	;# 
   824   003FD6                     IVTBASEH        equ	16342	;# 
   825   003FD7                     IVTBASEU        equ	16343	;# 
   826   003FD8                     STATUS          equ	16344	;# 
   827   003FD9                     FSR2            equ	16345	;# 
   828   003FD9                     FSR2L           equ	16345	;# 
   829   003FDA                     FSR2H           equ	16346	;# 
   830   003FDB                     PLUSW2          equ	16347	;# 
   831   003FDC                     PREINC2         equ	16348	;# 
   832   003FDD                     POSTDEC2        equ	16349	;# 
   833   003FDE                     POSTINC2        equ	16350	;# 
   834   003FDF                     INDF2           equ	16351	;# 
   835   003FE0                     BSR             equ	16352	;# 
   836   003FE1                     FSR1            equ	16353	;# 
   837   003FE1                     FSR1L           equ	16353	;# 
   838   003FE2                     FSR1H           equ	16354	;# 
   839   003FE3                     PLUSW1          equ	16355	;# 
   840   003FE4                     PREINC1         equ	16356	;# 
   841   003FE5                     POSTDEC1        equ	16357	;# 
   842   003FE6                     POSTINC1        equ	16358	;# 
   843   003FE7                     INDF1           equ	16359	;# 
   844   003FE8                     WREG            equ	16360	;# 
   845   003FE9                     FSR0            equ	16361	;# 
   846   003FE9                     FSR0L           equ	16361	;# 
   847   003FEA                     FSR0H           equ	16362	;# 
   848   003FEB                     PLUSW0          equ	16363	;# 
   849   003FEC                     PREINC0         equ	16364	;# 
   850   003FED                     POSTDEC0        equ	16365	;# 
   851   003FEE                     POSTINC0        equ	16366	;# 
   852   003FEF                     INDF0           equ	16367	;# 
   853   003FF0                     PCON0           equ	16368	;# 
   854   003FF1                     PCON1           equ	16369	;# 
   855   003FF3                     PROD            equ	16371	;# 
   856   003FF3                     PRODL           equ	16371	;# 
   857   003FF4                     PRODH           equ	16372	;# 
   858   003FF5                     TABLAT          equ	16373	;# 
   859   003FF6                     TBLPTR          equ	16374	;# 
   860   003FF6                     TBLPTRL         equ	16374	;# 
   861   003FF7                     TBLPTRH         equ	16375	;# 
   862   003FF8                     TBLPTRU         equ	16376	;# 
   863   003FF9                     PCLAT           equ	16377	;# 
   864   003FF9                     PCL             equ	16377	;# 
   865   003FFA                     PCLATH          equ	16378	;# 
   866   003FFB                     PCLATU          equ	16379	;# 
   867   003FFC                     STKPTR          equ	16380	;# 
   868   003FFD                     TOS             equ	16381	;# 
   869   003FFD                     TOSL            equ	16381	;# 
   870   003FFE                     TOSH            equ	16382	;# 
   871   003FFF                     TOSU            equ	16383	;# 
   872   003A80                     _ANSELE         set	14976
   873   003A50                     _ANSELB         set	14928
   874   003A70                     _ANSELD         set	14960
   875   003A40                     _ANSELAbits     set	14912
   876   003EF4                     _ADACQH         set	16116
   877   003EF3                     _ADACQL         set	16115
   878   003EF7                     _ADPREH         set	16119
   879   003EF6                     _ADPREL         set	16118
   880   003EEF                     _ADRESL         set	16111
   881   003EF0                     _ADRESH         set	16112
   882   003EFF                     _ADCLK          set	16127
   883   003EF1                     _ADPCH          set	16113
   884   003EF8                     _ADCON0bits     set	16120
   885   003FCE                     _PORTEbits      set	16334
   886   003FCD                     _PORTD          set	16333
   887   003FCD                     _PORTDbits      set	16333
   888   003FBD                     _LATDbits       set	16317
   889   003FBB                     _LATB           set	16315
   890   003FC6                     _TRISE          set	16326
   891   003FC5                     _TRISD          set	16325
   892   003FC3                     _TRISB          set	16323
   893   003FC2                     _TRISAbits      set	16322
   894                           
   895                           	psect	smallconst
   896   002000                     __psmallconst:
   897                           	callstack 0
   898   002000  00                 	db	0
   899   002001                     STR_2:
   900                           
   901                           ; BSR set to: 62
   902   002001  44                 	db	68	;'D'
   903   002002  69                 	db	105	;'i'
   904   002003  66                 	db	102	;'f'
   905   002004  66                 	db	102	;'f'
   906   002005  69                 	db	105	;'i'
   907   002006  63                 	db	99	;'c'
   908   002007  75                 	db	117	;'u'
   909   002008  6C                 	db	108	;'l'
   910   002009  74                 	db	116	;'t'
   911   00200A  79                 	db	121	;'y'
   912   00200B  20                 	db	32
   913   00200C  4C                 	db	76	;'L'
   914   00200D  65                 	db	101	;'e'
   915   00200E  76                 	db	118	;'v'
   916   00200F  65                 	db	101	;'e'
   917   002010  6C                 	db	108	;'l'
   918   002011  3A                 	db	58	;':'
   919   002012  00                 	db	0
   920   002013                     STR_16:
   921                           
   922                           ; BSR set to: 62
   923   002013  4E                 	db	78	;'N'
   924   002014  65                 	db	101	;'e'
   925   002015  78                 	db	120	;'x'
   926   002016  74                 	db	116	;'t'
   927   002017  20                 	db	32
   928   002018  53                 	db	83	;'S'
   929   002019  74                 	db	116	;'t'
   930   00201A  61                 	db	97	;'a'
   931   00201B  67                 	db	103	;'g'
   932   00201C  65                 	db	101	;'e'
   933   00201D  20                 	db	32
   934   00201E  69                 	db	105	;'i'
   935   00201F  6E                 	db	110	;'n'
   936   002020  20                 	db	32
   937   002021  31                 	db	49	;'1'
   938   002022  3A                 	db	58	;':'
   939   002023  00                 	db	0
   940   002024                     STR_14:
   941                           
   942                           ; BSR set to: 62
   943   002024  4E                 	db	78	;'N'
   944   002025  65                 	db	101	;'e'
   945   002026  78                 	db	120	;'x'
   946   002027  74                 	db	116	;'t'
   947   002028  20                 	db	32
   948   002029  53                 	db	83	;'S'
   949   00202A  74                 	db	116	;'t'
   950   00202B  61                 	db	97	;'a'
   951   00202C  67                 	db	103	;'g'
   952   00202D  65                 	db	101	;'e'
   953   00202E  20                 	db	32
   954   00202F  69                 	db	105	;'i'
   955   002030  6E                 	db	110	;'n'
   956   002031  20                 	db	32
   957   002032  33                 	db	51	;'3'
   958   002033  3A                 	db	58	;':'
   959   002034  00                 	db	0
   960   002035                     STR_15:
   961                           
   962                           ; BSR set to: 62
   963   002035  4E                 	db	78	;'N'
   964   002036  65                 	db	101	;'e'
   965   002037  78                 	db	120	;'x'
   966   002038  74                 	db	116	;'t'
   967   002039  20                 	db	32
   968   00203A  53                 	db	83	;'S'
   969   00203B  74                 	db	116	;'t'
   970   00203C  61                 	db	97	;'a'
   971   00203D  67                 	db	103	;'g'
   972   00203E  65                 	db	101	;'e'
   973   00203F  20                 	db	32
   974   002040  69                 	db	105	;'i'
   975   002041  6E                 	db	110	;'n'
   976   002042  20                 	db	32
   977   002043  32                 	db	50	;'2'
   978   002044  00                 	db	0
   979   002045                     STR_5:
   980                           
   981                           ; BSR set to: 62
   982   002045  53                 	db	83	;'S'
   983   002046  74                 	db	116	;'t'
   984   002047  61                 	db	97	;'a'
   985   002048  72                 	db	114	;'r'
   986   002049  74                 	db	116	;'t'
   987   00204A  69                 	db	105	;'i'
   988   00204B  6E                 	db	110	;'n'
   989   00204C  67                 	db	103	;'g'
   990   00204D  20                 	db	32
   991   00204E  69                 	db	105	;'i'
   992   00204F  6E                 	db	110	;'n'
   993   002050  20                 	db	32
   994   002051  31                 	db	49	;'1'
   995   002052  3A                 	db	58	;':'
   996   002053  00                 	db	0
   997   002054                     STR_4:
   998                           
   999                           ; BSR set to: 62
  1000   002054  53                 	db	83	;'S'
  1001   002055  74                 	db	116	;'t'
  1002   002056  61                 	db	97	;'a'
  1003   002057  72                 	db	114	;'r'
  1004   002058  74                 	db	116	;'t'
  1005   002059  69                 	db	105	;'i'
  1006   00205A  6E                 	db	110	;'n'
  1007   00205B  67                 	db	103	;'g'
  1008   00205C  20                 	db	32
  1009   00205D  69                 	db	105	;'i'
  1010   00205E  6E                 	db	110	;'n'
  1011   00205F  20                 	db	32
  1012   002060  32                 	db	50	;'2'
  1013   002061  3A                 	db	58	;':'
  1014   002062  00                 	db	0
  1015   002063                     STR_3:
  1016                           
  1017                           ; BSR set to: 62
  1018   002063  53                 	db	83	;'S'
  1019   002064  74                 	db	116	;'t'
  1020   002065  61                 	db	97	;'a'
  1021   002066  72                 	db	114	;'r'
  1022   002067  74                 	db	116	;'t'
  1023   002068  69                 	db	105	;'i'
  1024   002069  6E                 	db	110	;'n'
  1025   00206A  67                 	db	103	;'g'
  1026   00206B  20                 	db	32
  1027   00206C  69                 	db	105	;'i'
  1028   00206D  6E                 	db	110	;'n'
  1029   00206E  20                 	db	32
  1030   00206F  33                 	db	51	;'3'
  1031   002070  3A                 	db	58	;':'
  1032   002071  00                 	db	0
  1033   002072                     STR_13:
  1034                           
  1035                           ; BSR set to: 62
  1036   002072  59                 	db	89	;'Y'
  1037   002073  4F                 	db	79	;'O'
  1038   002074  55                 	db	85	;'U'
  1039   002075  20                 	db	32
  1040   002076  4C                 	db	76	;'L'
  1041   002077  4F                 	db	79	;'O'
  1042   002078  53                 	db	83	;'S'
  1043   002079  45                 	db	69	;'E'
  1044   00207A  20                 	db	32
  1045   00207B  3A                 	db	58	;':'
  1046   00207C  28                 	db	40
  1047   00207D  20                 	db	32
  1048   00207E  00                 	db	0
  1049   00207F                     STR_36:
  1050                           
  1051                           ; BSR set to: 62
  1052   00207F  46                 	db	70	;'F'
  1053   002080  69                 	db	105	;'i'
  1054   002081  6E                 	db	110	;'n'
  1055   002082  61                 	db	97	;'a'
  1056   002083  6C                 	db	108	;'l'
  1057   002084  20                 	db	32
  1058   002085  53                 	db	83	;'S'
  1059   002086  63                 	db	99	;'c'
  1060   002087  6F                 	db	111	;'o'
  1061   002088  72                 	db	114	;'r'
  1062   002089  65                 	db	101	;'e'
  1063   00208A  3A                 	db	58	;':'
  1064   00208B  00                 	db	0
  1065   00208C                     STR_6:
  1066                           
  1067                           ; BSR set to: 62
  1068   00208C  45                 	db	69	;'E'
  1069   00208D  6E                 	db	110	;'n'
  1070   00208E  74                 	db	116	;'t'
  1071   00208F  65                 	db	101	;'e'
  1072   002090  72                 	db	114	;'r'
  1073   002091  20                 	db	32
  1074   002092  47                 	db	71	;'G'
  1075   002093  75                 	db	117	;'u'
  1076   002094  65                 	db	101	;'e'
  1077   002095  73                 	db	115	;'s'
  1078   002096  73                 	db	115	;'s'
  1079   002097  3A                 	db	58	;':'
  1080   002098  00                 	db	0
  1081   002099                     STR_12:
  1082                           
  1083                           ; BSR set to: 62
  1084   002099  59                 	db	89	;'Y'
  1085   00209A  4F                 	db	79	;'O'
  1086   00209B  55                 	db	85	;'U'
  1087   00209C  20                 	db	32
  1088   00209D  57                 	db	87	;'W'
  1089   00209E  49                 	db	73	;'I'
  1090   00209F  4E                 	db	78	;'N'
  1091   0020A0  21                 	db	33
  1092   0020A1  21                 	db	33
  1093   0020A2  00                 	db	0
  1094   0020A3                     STR_38:
  1095                           
  1096                           ; BSR set to: 62
  1097   0020A3  25                 	db	37
  1098   0020A4  31                 	db	49	;'1'
  1099   0020A5  2E                 	db	46
  1100   0020A6  30                 	db	48	;'0'
  1101   0020A7  64                 	db	100	;'d'
  1102   0020A8  00                 	db	0
  1103   0020A9                     STR_7:
  1104                           
  1105                           ; BSR set to: 62
  1106   0020A9  30                 	db	48	;'0'
  1107   0020AA  2E                 	db	46
  1108   0020AB  30                 	db	48	;'0'
  1109   0020AC  30                 	db	48	;'0'
  1110   0020AD  00                 	db	0
  1111   0020AE                     STR_1:
  1112                           
  1113                           ; BSR set to: 62
  1114   0020AE  25                 	db	37
  1115   0020AF  2E                 	db	46
  1116   0020B0  32                 	db	50	;'2'
  1117   0020B1  66                 	db	102	;'f'
  1118   0020B2  00                 	db	0
  1119   0020B3                     STR_146:
  1120                           
  1121                           ; BSR set to: 62
  1122   0020B3  69                 	db	105	;'i'
  1123   0020B4  6E                 	db	110	;'n'
  1124   0020B5  66                 	db	102	;'f'
  1125   0020B6  00                 	db	0
  1126   0020B7                     STR_149:
  1127                           
  1128                           ; BSR set to: 62
  1129   0020B7  6E                 	db	110	;'n'
  1130   0020B8  61                 	db	97	;'a'
  1131   0020B9  6E                 	db	110	;'n'
  1132   0020BA  00                 	db	0
  1133   0020BB                     STR_37:
  1134                           
  1135                           ; BSR set to: 62
  1136   0020BB  30                 	db	48	;'0'
  1137   0020BC  2F                 	db	47
  1138   0020BD  33                 	db	51	;'3'
  1139   0020BE  00                 	db	0
  1140   0020B7                     STR_150         equ	STR_149
  1141   0020B7                     STR_151         equ	STR_149
  1142   0020B3                     STR_147         equ	STR_146
  1143   0020B3                     STR_148         equ	STR_146
  1144   0020AE                     STR_8           equ	STR_1
  1145   0020AE                     STR_10          equ	STR_1
  1146   0020AE                     STR_19          equ	STR_1
  1147   0020AE                     STR_21          equ	STR_1
  1148   0020AE                     STR_30          equ	STR_1
  1149   0020AE                     STR_32          equ	STR_1
  1150   0020AE                     STR_43          equ	STR_1
  1151   0020AE                     STR_45          equ	STR_1
  1152   0020AE                     STR_54          equ	STR_1
  1153   0020AE                     STR_56          equ	STR_1
  1154   0020AE                     STR_65          equ	STR_1
  1155   0020AE                     STR_67          equ	STR_1
  1156   0020AE                     STR_78          equ	STR_1
  1157   0020AE                     STR_80          equ	STR_1
  1158   0020AE                     STR_89          equ	STR_1
  1159   0020AE                     STR_91          equ	STR_1
  1160   0020AE                     STR_100         equ	STR_1
  1161   0020AE                     STR_102         equ	STR_1
  1162   0020AE                     STR_113         equ	STR_1
  1163   0020AE                     STR_115         equ	STR_1
  1164   0020AE                     STR_124         equ	STR_1
  1165   0020AE                     STR_126         equ	STR_1
  1166   0020AE                     STR_135         equ	STR_1
  1167   0020AE                     STR_137         equ	STR_1
  1168   0020A3                     STR_73          equ	STR_38
  1169   0020A3                     STR_108         equ	STR_38
  1170   0020A3                     STR_143         equ	STR_38
  1171   00208C                     STR_9           equ	STR_6
  1172   00208C                     STR_11          equ	STR_6
  1173   00208C                     STR_17          equ	STR_6
  1174   00208C                     STR_20          equ	STR_6
  1175   00208C                     STR_22          equ	STR_6
  1176   00208C                     STR_28          equ	STR_6
  1177   00208C                     STR_31          equ	STR_6
  1178   00208C                     STR_33          equ	STR_6
  1179   00208C                     STR_41          equ	STR_6
  1180   00208C                     STR_44          equ	STR_6
  1181   00208C                     STR_46          equ	STR_6
  1182   00208C                     STR_52          equ	STR_6
  1183   00208C                     STR_55          equ	STR_6
  1184   00208C                     STR_57          equ	STR_6
  1185   00208C                     STR_63          equ	STR_6
  1186   00208C                     STR_66          equ	STR_6
  1187   00208C                     STR_68          equ	STR_6
  1188   00208C                     STR_76          equ	STR_6
  1189   00208C                     STR_79          equ	STR_6
  1190   00208C                     STR_81          equ	STR_6
  1191   00208C                     STR_87          equ	STR_6
  1192   00208C                     STR_90          equ	STR_6
  1193   00208C                     STR_92          equ	STR_6
  1194   00208C                     STR_98          equ	STR_6
  1195   00208C                     STR_101         equ	STR_6
  1196   00208C                     STR_103         equ	STR_6
  1197   00208C                     STR_111         equ	STR_6
  1198   00208C                     STR_114         equ	STR_6
  1199   00208C                     STR_116         equ	STR_6
  1200   00208C                     STR_122         equ	STR_6
  1201   00208C                     STR_125         equ	STR_6
  1202   00208C                     STR_127         equ	STR_6
  1203   00208C                     STR_133         equ	STR_6
  1204   00208C                     STR_136         equ	STR_6
  1205   00208C                     STR_138         equ	STR_6
  1206   00207F                     STR_39          equ	STR_36
  1207   00207F                     STR_71          equ	STR_36
  1208   00207F                     STR_74          equ	STR_36
  1209   00207F                     STR_106         equ	STR_36
  1210   00207F                     STR_109         equ	STR_36
  1211   00207F                     STR_141         equ	STR_36
  1212   00207F                     STR_144         equ	STR_36
  1213   002024                     STR_25          equ	STR_14
  1214   002024                     STR_49          equ	STR_14
  1215   002024                     STR_60          equ	STR_14
  1216   002024                     STR_84          equ	STR_14
  1217   002024                     STR_95          equ	STR_14
  1218   002024                     STR_119         equ	STR_14
  1219   002024                     STR_130         equ	STR_14
  1220   002013                     STR_27          equ	STR_16
  1221   002013                     STR_51          equ	STR_16
  1222   002013                     STR_62          equ	STR_16
  1223   002013                     STR_86          equ	STR_16
  1224   002013                     STR_97          equ	STR_16
  1225   002013                     STR_121         equ	STR_16
  1226   002013                     STR_132         equ	STR_16
  1227   0020BB                     STR_72          equ	STR_37
  1228   0020BB                     STR_107         equ	STR_37
  1229   0020BB                     STR_142         equ	STR_37
  1230   0020BC                     STR_40          equ	STR_37+1
  1231   0020BC                     STR_75          equ	STR_37+1
  1232   0020BC                     STR_110         equ	STR_37+1
  1233   0020BC                     STR_145         equ	STR_37+1
  1234   002035                     STR_26          equ	STR_15
  1235   002035                     STR_50          equ	STR_15
  1236   002035                     STR_61          equ	STR_15
  1237   002035                     STR_85          equ	STR_15
  1238   002035                     STR_96          equ	STR_15
  1239   002035                     STR_120         equ	STR_15
  1240   002035                     STR_131         equ	STR_15
  1241   0020A9                     STR_18          equ	STR_7
  1242   0020A9                     STR_29          equ	STR_7
  1243   0020A9                     STR_42          equ	STR_7
  1244   0020A9                     STR_53          equ	STR_7
  1245   0020A9                     STR_64          equ	STR_7
  1246   0020A9                     STR_77          equ	STR_7
  1247   0020A9                     STR_88          equ	STR_7
  1248   0020A9                     STR_99          equ	STR_7
  1249   0020A9                     STR_112         equ	STR_7
  1250   0020A9                     STR_123         equ	STR_7
  1251   0020A9                     STR_134         equ	STR_7
  1252   002099                     STR_23          equ	STR_12
  1253   002099                     STR_34          equ	STR_12
  1254   002099                     STR_47          equ	STR_12
  1255   002099                     STR_58          equ	STR_12
  1256   002099                     STR_69          equ	STR_12
  1257   002099                     STR_82          equ	STR_12
  1258   002099                     STR_93          equ	STR_12
  1259   002099                     STR_104         equ	STR_12
  1260   002099                     STR_117         equ	STR_12
  1261   002099                     STR_128         equ	STR_12
  1262   002099                     STR_139         equ	STR_12
  1263   002072                     STR_24          equ	STR_13
  1264   002072                     STR_35          equ	STR_13
  1265   002072                     STR_48          equ	STR_13
  1266   002072                     STR_59          equ	STR_13
  1267   002072                     STR_70          equ	STR_13
  1268   002072                     STR_83          equ	STR_13
  1269   002072                     STR_94          equ	STR_13
  1270   002072                     STR_105         equ	STR_13
  1271   002072                     STR_118         equ	STR_13
  1272   002072                     STR_129         equ	STR_13
  1273   002072                     STR_140         equ	STR_13
  1274   0020BF  00                 	db	0	; dummy byte at the end
  1275   002000                     __smallconst    set	__psmallconst
  1276   002000                     __mediumconst   set	__psmallconst
  1277   000003                     __activetblptr  equ	3
  1278                           
  1279                           ; #config settings
  1280                           
  1281                           	psect	cinit
  1282   00750C                     __pcinit:
  1283                           	callstack 0
  1284   00750C                     start_initialization:
  1285                           	callstack 0
  1286   00750C                     __initialization:
  1287                           	callstack 0
  1288                           
  1289                           ; Clear objects allocated to BANK1 (80 bytes)
  1290   00750C  EE00  F100         	lfsr	0,__pbssBANK1
  1291   007510  0E50               	movlw	80
  1292   007512                     clear_0:
  1293   007512  6AEE               	clrf	postinc0,c
  1294   007514  06E8               	decf	wreg,f,c
  1295   007516  E1FD               	bnz	clear_0
  1296                           
  1297                           ; Clear objects allocated to BANK0 (38 bytes)
  1298   007518  EE00  F094         	lfsr	0,__pbssBANK0
  1299   00751C  0E26               	movlw	38
  1300   00751E                     clear_1:
  1301   00751E  6AEE               	clrf	postinc0,c
  1302   007520  06E8               	decf	wreg,f,c
  1303   007522  E1FD               	bnz	clear_1
  1304                           
  1305                           ; Clear objects allocated to COMRAM (9 bytes)
  1306   007524  EE00  F056         	lfsr	0,__pbssCOMRAM
  1307   007528  0E09               	movlw	9
  1308   00752A                     clear_2:
  1309   00752A  6AEE               	clrf	postinc0,c
  1310   00752C  06E8               	decf	wreg,f,c
  1311   00752E  E1FD               	bnz	clear_2
  1312   007530                     end_of_initialization:
  1313                           	callstack 0
  1314   007530                     __end_of__initialization:
  1315                           	callstack 0
  1316   007530  0100               	movlb	0
  1317   007532  EF60  F010         	goto	_main	;jump to C main() function
  1318                           
  1319                           	psect	bssCOMRAM
  1320   000056                     __pbssCOMRAM:
  1321                           	callstack 0
  1322   000056                     _count1:
  1323                           	callstack 0
  1324   000056                     	ds	4
  1325   00005A                     _num:
  1326                           	callstack 0
  1327   00005A                     	ds	2
  1328   00005C                     _count2:
  1329                           	callstack 0
  1330   00005C                     	ds	2
  1331   00005E                     _flags:
  1332                           	callstack 0
  1333   00005E                     	ds	1
  1334                           
  1335                           	psect	bssBANK0
  1336   000094                     __pbssBANK0:
  1337                           	callstack 0
  1338   000094                     floorf@F521:
  1339                           	callstack 0
  1340   000094                     	ds	4
  1341   000098                     ___fpclassifyf@F465:
  1342                           	callstack 0
  1343   000098                     	ds	4
  1344   00009C                     _Difficulty:
  1345                           	callstack 0
  1346   00009C                     	ds	4
  1347   0000A0                     _voltage:
  1348                           	callstack 0
  1349   0000A0                     	ds	4
  1350   0000A4                     _width:
  1351                           	callstack 0
  1352   0000A4                     	ds	2
  1353   0000A6                     _prec:
  1354                           	callstack 0
  1355   0000A6                     	ds	2
  1356   0000A8                     _digital:
  1357                           	callstack 0
  1358   0000A8                     	ds	2
  1359   0000AA                     _elapsed_time_counts:
  1360                           	callstack 0
  1361   0000AA                     	ds	2
  1362   0000AC                     _data:
  1363                           	callstack 0
  1364   0000AC                     	ds	10
  1365   0000B6                     _seed:
  1366                           	callstack 0
  1367   0000B6                     	ds	4
  1368                           
  1369                           	psect	bssBANK1
  1370   000100                     __pbssBANK1:
  1371                           	callstack 0
  1372   000100                     _dbuf:
  1373                           	callstack 0
  1374   000100                     	ds	80
  1375                           
  1376                           	psect	cstackBANK0
  1377   000060                     __pcstackBANK0:
  1378                           	callstack 0
  1379   000060                     efgtoa@ne:
  1380                           	callstack 0
  1381                           
  1382                           ; 2 bytes @ 0x0
  1383   000060                     	ds	2
  1384   000062                     efgtoa@p:
  1385                           	callstack 0
  1386                           
  1387                           ; 2 bytes @ 0x2
  1388   000062                     	ds	2
  1389   000064                     efgtoa@t:
  1390                           	callstack 0
  1391                           
  1392                           ; 2 bytes @ 0x4
  1393   000064                     	ds	2
  1394   000066                     _efgtoa$1056:
  1395                           	callstack 0
  1396                           
  1397                           ; 2 bytes @ 0x6
  1398   000066                     	ds	2
  1399   000068                     efgtoa@pp:
  1400                           	callstack 0
  1401                           
  1402                           ; 1 bytes @ 0x8
  1403   000068                     	ds	1
  1404   000069                     efgtoa@mode:
  1405                           	callstack 0
  1406                           
  1407                           ; 1 bytes @ 0x9
  1408   000069                     	ds	1
  1409   00006A                     efgtoa@nmode:
  1410                           	callstack 0
  1411                           
  1412                           ; 1 bytes @ 0xA
  1413   00006A                     	ds	1
  1414   00006B                     efgtoa@d:
  1415                           	callstack 0
  1416                           
  1417                           ; 2 bytes @ 0xB
  1418   00006B                     	ds	2
  1419   00006D                     efgtoa@m:
  1420                           	callstack 0
  1421                           
  1422                           ; 2 bytes @ 0xD
  1423   00006D                     	ds	2
  1424   00006F                     efgtoa@e:
  1425                           	callstack 0
  1426                           
  1427                           ; 2 bytes @ 0xF
  1428   00006F                     	ds	2
  1429   000071                     efgtoa@w:
  1430                           	callstack 0
  1431                           
  1432                           ; 2 bytes @ 0x11
  1433   000071                     	ds	2
  1434   000073                     efgtoa@ou:
  1435                           	callstack 0
  1436                           
  1437                           ; 4 bytes @ 0x13
  1438   000073                     	ds	4
  1439   000077                     efgtoa@i:
  1440                           	callstack 0
  1441                           
  1442                           ; 2 bytes @ 0x17
  1443   000077                     	ds	2
  1444   000079                     efgtoa@h:
  1445                           	callstack 0
  1446                           
  1447                           ; 4 bytes @ 0x19
  1448   000079                     	ds	4
  1449   00007D                     efgtoa@l:
  1450                           	callstack 0
  1451                           
  1452                           ; 4 bytes @ 0x1D
  1453   00007D                     	ds	4
  1454   000081                     efgtoa@sign:
  1455                           	callstack 0
  1456                           
  1457                           ; 1 bytes @ 0x21
  1458   000081                     	ds	1
  1459   000082                     efgtoa@n:
  1460                           	callstack 0
  1461                           
  1462                           ; 2 bytes @ 0x22
  1463   000082                     	ds	2
  1464   000084                     efgtoa@g:
  1465                           	callstack 0
  1466                           
  1467                           ; 4 bytes @ 0x24
  1468   000084                     	ds	4
  1469   000088                     efgtoa@u:
  1470                           	callstack 0
  1471                           
  1472                           ; 4 bytes @ 0x28
  1473   000088                     	ds	4
  1474   00008C                     ?_sprintf:
  1475                           	callstack 0
  1476   00008C                     sprintf@s:
  1477                           	callstack 0
  1478                           
  1479                           ; 1 bytes @ 0x2C
  1480   00008C                     	ds	1
  1481   00008D                     sprintf@fmt:
  1482                           	callstack 0
  1483                           
  1484                           ; 1 bytes @ 0x2D
  1485   00008D                     	ds	5
  1486   000092                     ??_main:
  1487                           
  1488                           ; 1 bytes @ 0x32
  1489   000092                     	ds	2
  1490                           
  1491                           	psect	cstackCOMRAM
  1492   000001                     __pcstackCOMRAM:
  1493                           	callstack 0
  1494   000001                     ?___fpclassifyf:
  1495                           	callstack 0
  1496   000001                     ?___awdiv:
  1497                           	callstack 0
  1498   000001                     ?___awmod:
  1499                           	callstack 0
  1500   000001                     ?_read_prec_or_width:
  1501                           	callstack 0
  1502   000001                     ?___fladd:
  1503                           	callstack 0
  1504   000001                     ?___fldiv:
  1505                           	callstack 0
  1506   000001                     ?_labs:
  1507                           	callstack 0
  1508   000001                     ?___lmul:
  1509                           	callstack 0
  1510   000001                     ?___flneg:
  1511                           	callstack 0
  1512   000001                     ?___fltol:
  1513                           	callstack 0
  1514   000001                     ?___xxtofl:
  1515                           	callstack 0
  1516   000001                     read_prec_or_width@fmt:
  1517                           	callstack 0
  1518   000001                     strcat@dest:
  1519                           	callstack 0
  1520   000001                     MSdelay@val:
  1521                           	callstack 0
  1522   000001                     ___awdiv@dividend:
  1523                           	callstack 0
  1524   000001                     ___awmod@dividend:
  1525                           	callstack 0
  1526   000001                     memcpy@d1:
  1527                           	callstack 0
  1528   000001                     fputc@c:
  1529                           	callstack 0
  1530   000001                     strcpy@dest:
  1531                           	callstack 0
  1532   000001                     ___lmul@multiplier:
  1533                           	callstack 0
  1534   000001                     ___flneg@f1:
  1535                           	callstack 0
  1536   000001                     ___fltol@f1:
  1537                           	callstack 0
  1538   000001                     ___fladd@b:
  1539                           	callstack 0
  1540   000001                     ___fldiv@b:
  1541                           	callstack 0
  1542   000001                     ___xxtofl@val:
  1543                           	callstack 0
  1544   000001                     ___fpclassifyf@x:
  1545                           	callstack 0
  1546   000001                     labs@a:
  1547                           	callstack 0
  1548   000001                     
  1549                           ; 1 bytes @ 0x0
  1550   000001                     	ds	1
  1551   000002                     read_prec_or_width@ap:
  1552                           	callstack 0
  1553   000002                     strcat@src:
  1554                           	callstack 0
  1555                           
  1556                           ; 1 bytes @ 0x1
  1557   000002                     	ds	1
  1558   000003                     fputc@fp:
  1559                           	callstack 0
  1560   000003                     strcpy@src:
  1561                           	callstack 0
  1562   000003                     MSdelay@i:
  1563                           	callstack 0
  1564   000003                     ___awdiv@divisor:
  1565                           	callstack 0
  1566   000003                     ___awmod@divisor:
  1567                           	callstack 0
  1568   000003                     memcpy@s1:
  1569                           	callstack 0
  1570   000003                     strcat@i:
  1571                           	callstack 0
  1572   000003                     ??_read_prec_or_width:
  1573                           
  1574                           ; 1 bytes @ 0x2
  1575   000003                     	ds	1
  1576   000004                     ??_fputc:
  1577   000004                     ??_strcpy:
  1578                           
  1579                           ; 1 bytes @ 0x3
  1580   000004                     	ds	1
  1581   000005                     ___awdiv@counter:
  1582                           	callstack 0
  1583   000005                     ___awmod@counter:
  1584                           	callstack 0
  1585   000005                     read_prec_or_width@c:
  1586                           	callstack 0
  1587   000005                     MSdelay@j:
  1588                           	callstack 0
  1589   000005                     memcpy@n:
  1590                           	callstack 0
  1591   000005                     strcpy@d:
  1592                           	callstack 0
  1593   000005                     ___lmul@multiplicand:
  1594                           	callstack 0
  1595   000005                     ___fladd@a:
  1596                           	callstack 0
  1597   000005                     ___fldiv@a:
  1598                           	callstack 0
  1599   000005                     ??___fpclassifyf:
  1600   000005                     ??_labs:
  1601   000005                     ??___fltol:
  1602   000005                     ??___xxtofl:
  1603                           
  1604                           ; 1 bytes @ 0x4
  1605   000005                     	ds	1
  1606   000006                     ___awdiv@sign:
  1607                           	callstack 0
  1608   000006                     ___awmod@sign:
  1609                           	callstack 0
  1610   000006                     read_prec_or_width@n:
  1611                           	callstack 0
  1612                           
  1613                           ; 2 bytes @ 0x5
  1614   000006                     	ds	1
  1615   000007                     ?_abs:
  1616                           	callstack 0
  1617   000007                     LCD_Command@cmd:
  1618                           	callstack 0
  1619   000007                     LCD_Char@dat:
  1620                           	callstack 0
  1621   000007                     ___awdiv@quotient:
  1622                           	callstack 0
  1623   000007                     abs@a:
  1624                           	callstack 0
  1625   000007                     memcpy@d:
  1626                           	callstack 0
  1627   000007                     
  1628                           ; 1 bytes @ 0x6
  1629   000007                     	ds	1
  1630   000008                     LCD_String@msg:
  1631                           	callstack 0
  1632   000008                     
  1633                           ; 1 bytes @ 0x7
  1634   000008                     	ds	1
  1635   000009                     ___fltol@sign1:
  1636                           	callstack 0
  1637   000009                     ___xxtofl@sign:
  1638                           	callstack 0
  1639   000009                     ___fpclassifyf@e:
  1640                           	callstack 0
  1641   000009                     memcpy@s:
  1642                           	callstack 0
  1643   000009                     fputs@s:
  1644                           	callstack 0
  1645   000009                     ___lmul@product:
  1646                           	callstack 0
  1647   000009                     ??___fladd:
  1648   000009                     ??___fldiv:
  1649   000009                     ??_abs:
  1650   000009                     
  1651                           ; 1 bytes @ 0x8
  1652   000009                     	ds	1
  1653   00000A                     LCD_String_xy@pos:
  1654                           	callstack 0
  1655   00000A                     ___fltol@exp1:
  1656                           	callstack 0
  1657   00000A                     ___xxtofl@exp:
  1658                           	callstack 0
  1659   00000A                     
  1660                           ; 1 bytes @ 0x9
  1661   00000A                     	ds	1
  1662   00000B                     memcpy@tmp:
  1663                           	callstack 0
  1664   00000B                     fputs@fp:
  1665                           	callstack 0
  1666   00000B                     LCD_String_xy@msg:
  1667                           	callstack 0
  1668   00000B                     ___xxtofl@arg:
  1669                           	callstack 0
  1670   00000B                     ___fpclassifyf@u:
  1671                           	callstack 0
  1672                           
  1673                           ; 4 bytes @ 0xA
  1674   00000B                     	ds	1
  1675   00000C                     fputs@c:
  1676                           	callstack 0
  1677   00000C                     
  1678                           ; 1 bytes @ 0xB
  1679   00000C                     	ds	1
  1680   00000D                     ?_rand:
  1681                           	callstack 0
  1682   00000D                     LCD_String_xy@row:
  1683                           	callstack 0
  1684   00000D                     ___fladd@signs:
  1685                           	callstack 0
  1686   00000D                     fputs@i:
  1687                           	callstack 0
  1688   00000D                     ___fldiv@rem:
  1689                           	callstack 0
  1690   00000D                     
  1691                           ; 1 bytes @ 0xC
  1692   00000D                     	ds	1
  1693   00000E                     LCD_String_xy@location:
  1694                           	callstack 0
  1695   00000E                     ___fladd@aexp:
  1696                           	callstack 0
  1697                           
  1698                           ; 1 bytes @ 0xD
  1699   00000E                     	ds	1
  1700   00000F                     ?___flmul:
  1701                           	callstack 0
  1702   00000F                     ___fladd@bexp:
  1703                           	callstack 0
  1704   00000F                     pad@fp:
  1705                           	callstack 0
  1706   00000F                     ___fleq@ff1:
  1707                           	callstack 0
  1708   00000F                     ___flmul@b:
  1709                           	callstack 0
  1710   00000F                     ??_rand:
  1711                           
  1712                           ; 1 bytes @ 0xE
  1713   00000F                     	ds	1
  1714   000010                     ___fladd@grs:
  1715                           	callstack 0
  1716   000010                     pad@buf:
  1717                           	callstack 0
  1718                           
  1719                           ; 2 bytes @ 0xF
  1720   000010                     	ds	1
  1721   000011                     ___fldiv@sign:
  1722                           	callstack 0
  1723                           
  1724                           ; 1 bytes @ 0x10
  1725   000011                     	ds	1
  1726   000012                     ___fldiv@new_exp:
  1727                           	callstack 0
  1728   000012                     pad@p:
  1729                           	callstack 0
  1730                           
  1731                           ; 2 bytes @ 0x11
  1732   000012                     	ds	1
  1733   000013                     ___fleq@ff2:
  1734                           	callstack 0
  1735   000013                     ___flmul@a:
  1736                           	callstack 0
  1737                           
  1738                           ; 4 bytes @ 0x12
  1739   000013                     	ds	1
  1740   000014                     ___fldiv@grs:
  1741                           	callstack 0
  1742   000014                     ??_pad:
  1743                           
  1744                           ; 1 bytes @ 0x13
  1745   000014                     	ds	1
  1746   000015                     pad@i:
  1747                           	callstack 0
  1748                           
  1749                           ; 2 bytes @ 0x14
  1750   000015                     	ds	2
  1751   000017                     dtoa@fp:
  1752                           	callstack 0
  1753   000017                     ??___flmul:
  1754   000017                     ??___fleq:
  1755                           
  1756                           ; 1 bytes @ 0x16
  1757   000017                     	ds	1
  1758   000018                     ___fldiv@bexp:
  1759                           	callstack 0
  1760   000018                     dtoa@d:
  1761                           	callstack 0
  1762                           
  1763                           ; 2 bytes @ 0x17
  1764   000018                     	ds	1
  1765   000019                     ___fldiv@aexp:
  1766                           	callstack 0
  1767                           
  1768                           ; 1 bytes @ 0x18
  1769   000019                     	ds	1
  1770   00001A                     ?_floorf:
  1771                           	callstack 0
  1772   00001A                     _dtoa$1025:
  1773                           	callstack 0
  1774   00001A                     floorf@x:
  1775                           	callstack 0
  1776   00001A                     
  1777                           ; 1 bytes @ 0x19
  1778   00001A                     	ds	1
  1779   00001B                     ___flmul@sign:
  1780                           	callstack 0
  1781                           
  1782                           ; 1 bytes @ 0x1A
  1783   00001B                     	ds	1
  1784   00001C                     dtoa@w:
  1785                           	callstack 0
  1786   00001C                     ___flmul@grs:
  1787                           	callstack 0
  1788                           
  1789                           ; 4 bytes @ 0x1B
  1790   00001C                     	ds	2
  1791   00001E                     dtoa@p:
  1792                           	callstack 0
  1793   00001E                     ??_floorf:
  1794                           
  1795                           ; 1 bytes @ 0x1D
  1796   00001E                     	ds	2
  1797   000020                     ___flmul@aexp:
  1798                           	callstack 0
  1799   000020                     dtoa@s:
  1800                           	callstack 0
  1801                           
  1802                           ; 1 bytes @ 0x1F
  1803   000020                     	ds	1
  1804   000021                     ___flmul@bexp:
  1805                           	callstack 0
  1806   000021                     dtoa@i:
  1807                           	callstack 0
  1808                           
  1809                           ; 2 bytes @ 0x20
  1810   000021                     	ds	1
  1811   000022                     ___flmul@prod:
  1812                           	callstack 0
  1813                           
  1814                           ; 4 bytes @ 0x21
  1815   000022                     	ds	2
  1816   000024                     floorf@m:
  1817                           	callstack 0
  1818                           
  1819                           ; 4 bytes @ 0x23
  1820   000024                     	ds	2
  1821   000026                     ___flmul@temp:
  1822                           	callstack 0
  1823                           
  1824                           ; 2 bytes @ 0x25
  1825   000026                     	ds	2
  1826   000028                     ?___flsub:
  1827                           	callstack 0
  1828   000028                     floorf@e:
  1829                           	callstack 0
  1830   000028                     ___flge@ff1:
  1831                           	callstack 0
  1832   000028                     ___flsub@b:
  1833                           	callstack 0
  1834                           
  1835                           ; 4 bytes @ 0x27
  1836   000028                     	ds	2
  1837   00002A                     floorf@u:
  1838                           	callstack 0
  1839                           
  1840                           ; 4 bytes @ 0x29
  1841   00002A                     	ds	2
  1842   00002C                     ___flge@ff2:
  1843                           	callstack 0
  1844   00002C                     ___flsub@a:
  1845                           	callstack 0
  1846                           
  1847                           ; 4 bytes @ 0x2B
  1848   00002C                     	ds	4
  1849   000030                     ??___flge:
  1850                           
  1851                           ; 1 bytes @ 0x2F
  1852   000030                     	ds	4
  1853   000034                     efgtoa@fp:
  1854                           	callstack 0
  1855                           
  1856                           ; 1 bytes @ 0x33
  1857   000034                     	ds	1
  1858   000035                     efgtoa@f:
  1859                           	callstack 0
  1860                           
  1861                           ; 4 bytes @ 0x34
  1862   000035                     	ds	4
  1863   000039                     efgtoa@c:
  1864                           	callstack 0
  1865                           
  1866                           ; 1 bytes @ 0x38
  1867   000039                     	ds	1
  1868   00003A                     ??_efgtoa:
  1869                           
  1870                           ; 1 bytes @ 0x39
  1871   00003A                     	ds	2
  1872   00003C                     vfpfcnvrt@fp:
  1873                           	callstack 0
  1874                           
  1875                           ; 1 bytes @ 0x3B
  1876   00003C                     	ds	1
  1877   00003D                     vfpfcnvrt@fmt:
  1878                           	callstack 0
  1879                           
  1880                           ; 1 bytes @ 0x3C
  1881   00003D                     	ds	1
  1882   00003E                     vfpfcnvrt@ap:
  1883                           	callstack 0
  1884                           
  1885                           ; 1 bytes @ 0x3D
  1886   00003E                     	ds	1
  1887   00003F                     ??_vfpfcnvrt:
  1888                           
  1889                           ; 1 bytes @ 0x3E
  1890   00003F                     	ds	1
  1891   000040                     vfpfcnvrt@convarg:
  1892                           	callstack 0
  1893                           
  1894                           ; 4 bytes @ 0x3F
  1895   000040                     	ds	4
  1896   000044                     vfpfcnvrt@c:
  1897                           	callstack 0
  1898                           
  1899                           ; 1 bytes @ 0x43
  1900   000044                     	ds	1
  1901   000045                     vfpfcnvrt@cp:
  1902                           	callstack 0
  1903                           
  1904                           ; 1 bytes @ 0x44
  1905   000045                     	ds	1
  1906   000046                     ?_vfprintf:
  1907                           	callstack 0
  1908   000046                     vfprintf@fp:
  1909                           	callstack 0
  1910                           
  1911                           ; 1 bytes @ 0x45
  1912   000046                     	ds	1
  1913   000047                     vfprintf@fmt:
  1914                           	callstack 0
  1915                           
  1916                           ; 1 bytes @ 0x46
  1917   000047                     	ds	1
  1918   000048                     vfprintf@ap:
  1919                           	callstack 0
  1920                           
  1921                           ; 1 bytes @ 0x47
  1922   000048                     	ds	1
  1923   000049                     vfprintf@cfmt:
  1924                           	callstack 0
  1925   000049                     
  1926                           ; 1 bytes @ 0x48
  1927   000049                     	ds	1
  1928   00004A                     sprintf@ap:
  1929                           	callstack 0
  1930   00004A                     
  1931                           ; 1 bytes @ 0x49
  1932   00004A                     	ds	1
  1933   00004B                     sprintf@f:
  1934                           	callstack 0
  1935                           
  1936                           ; 11 bytes @ 0x4A
  1937   00004B                     	ds	11
  1938                           
  1939 ;;
  1940 ;;Main: autosize = 0, tempsize = 2, incstack = 0, save=0
  1941 ;;
  1942 ;; *************** function _main *****************
  1943 ;; Defined at:
  1944 ;;		line 27 in file "310FinalP.c"
  1945 ;; Parameters:    Size  Location     Type
  1946 ;;		None
  1947 ;; Auto vars:     Size  Location     Type
  1948 ;;		None
  1949 ;; Return value:  Size  Location     Type
  1950 ;;                  1    wreg      void 
  1951 ;; Registers used:
  1952 ;;		wreg, fsr1l, fsr1h, fsr2l, fsr2h, status,2, status,0, tblptrl, tblptrh, tblptru, prodl, prodh, cstack
  1953 ;; Tracked objects:
  1954 ;;		On entry : 0/0
  1955 ;;		On exit  : 0/0
  1956 ;;		Unchanged: 0/0
  1957 ;; Data sizes:     COMRAM   BANK0   BANK1   BANK2   BANK3   BANK4   BANK5   BANK6   BANK7   BANK8   BANK9  BANK10  BANK1
      +1  BANK12  BANK13  BANK14  BANK15  BANK16  BANK17  BANK18  BANK19  BANK20  BANK21  BANK22  BANK23  BANK24  BANK25  BANK2
      +6  BANK27  BANK28  BANK29  BANK30  BANK31
  1958 ;;      Params:         0       0       0       0       0       0       0       0       0       0       0       0       
      +0       0       0       0       0       0       0       0       0       0       0       0       0       0       0       
      +0       0       0       0       0       0
  1959 ;;      Locals:         0       0       0       0       0       0       0       0       0       0       0       0       
      +0       0       0       0       0       0       0       0       0       0       0       0       0       0       0       
      +0       0       0       0       0       0
  1960 ;;      Temps:          0       2       0       0       0       0       0       0       0       0       0       0       
      +0       0       0       0       0       0       0       0       0       0       0       0       0       0       0       
      +0       0       0       0       0       0
  1961 ;;      Totals:         0       2       0       0       0       0       0       0       0       0       0       0       
      +0       0       0       0       0       0       0       0       0       0       0       0       0       0       0       
      +0       0       0       0       0       0
  1962 ;;Total ram usage:        2 bytes
  1963 ;; Hardware stack levels required when called: 8
  1964 ;; This function calls:
  1965 ;;		_ADC_Init
  1966 ;;		_LCD_Clear
  1967 ;;		_LCD_Init
  1968 ;;		_LCD_String_xy
  1969 ;;		_MSdelay
  1970 ;;		___fladd
  1971 ;;		___fleq
  1972 ;;		___flge
  1973 ;;		___flmul
  1974 ;;		___flsub
  1975 ;;		___xxtofl
  1976 ;;		_rand
  1977 ;;		_sprintf
  1978 ;;		_strcat
  1979 ;; This function is called by:
  1980 ;;		Startup code after reset
  1981 ;; This function uses a non-reentrant model
  1982 ;;
  1983                           
  1984                           	psect	text0
  1985   0020C0                     __ptext0:
  1986                           	callstack 0
  1987   0020C0                     _main:
  1988                           	callstack 23
  1989   0020C0                     l117:
  1990   0020C0  EC51  F03A         	call	_LCD_Init	;wreg free
  1991   0020C4  EC9B  F03A         	call	_ADC_Init	;wreg free
  1992   0020C8  0E00               	movlw	0
  1993   0020CA  6E5D               	movwf	(_count2+1)^0,c
  1994   0020CC  0E00               	movlw	0
  1995   0020CE  6E5C               	movwf	_count2^0,c
  1996   0020D0  0E00               	movlw	0
  1997   0020D2  6E56               	movwf	_count1^0,c
  1998   0020D4  0E00               	movlw	0
  1999   0020D6  6E57               	movwf	(_count1+1)^0,c
  2000   0020D8  0E00               	movlw	0
  2001   0020DA  6E58               	movwf	(_count1+2)^0,c
  2002   0020DC  0E00               	movlw	0
  2003   0020DE  6E59               	movwf	(_count1+3)^0,c
  2004   0020E0                     l5671:
  2005   0020E0  013E               	movlb	62	; () banked
  2006   0020E2  81F8               	bsf	248,0,b	;volatile
  2007   0020E4                     l119:
  2008                           
  2009                           ; BSR set to: 62
  2010   0020E4  B1F8               	btfsc	248,0,b	;volatile
  2011   0020E6  EF77  F010         	goto	u5451
  2012   0020EA  EF79  F010         	goto	u5450
  2013   0020EE                     u5451:
  2014   0020EE  EF72  F010         	goto	l119
  2015   0020F2                     u5450:
  2016   0020F2                     
  2017                           ; BSR set to: 62
  2018   0020F2  51EF               	movf	239,w,b	;volatile
  2019   0020F4  006F FBC0  F092    	movff	16112,??_main	;volatile
  2020   0020FA  0100               	movlb	0	; () banked
  2021   0020FC  6B93               	clrf	(??_main+1)& (0+255),b
  2022   0020FE  C092  F093         	movff	??_main,??_main+1
  2023   002102  6B92               	clrf	??_main& (0+255),b
  2024   002104  1192               	iorwf	??_main& (0+255),w,b
  2025   002106  6FA8               	movwf	_digital& (0+255),b
  2026   002108  5193               	movf	(??_main+1)& (0+255),w,b
  2027   00210A  6FA9               	movwf	(_digital+1)& (0+255),b
  2028   00210C                     
  2029                           ; BSR set to: 0
  2030   00210C  C0A8  F001         	movff	_digital,___xxtofl@val
  2031   002110  C0A9  F002         	movff	_digital+1,___xxtofl@val+1
  2032   002114  0E00               	movlw	0
  2033   002116  BE02               	btfsc	(___xxtofl@val+1)^0,7,c
  2034   002118  0EFF               	movlw	-1
  2035   00211A  6E03               	movwf	(___xxtofl@val+2)^0,c
  2036   00211C  6E04               	movwf	(___xxtofl@val+3)^0,c
  2037   00211E  0E01               	movlw	1
  2038   002120  ECFC  F032         	call	___xxtofl
  2039   002124  C001  F00F         	movff	?___xxtofl,___flmul@b
  2040   002128  C002  F010         	movff	?___xxtofl+1,___flmul@b+1
  2041   00212C  C003  F011         	movff	?___xxtofl+2,___flmul@b+2
  2042   002130  C004  F012         	movff	?___xxtofl+3,___flmul@b+3
  2043   002134  0E33               	movlw	51
  2044   002136  6E13               	movwf	___flmul@a^0,c
  2045   002138  0E33               	movlw	51
  2046   00213A  6E14               	movwf	(___flmul@a+1)^0,c
  2047   00213C  0E53               	movlw	83
  2048   00213E  6E15               	movwf	(___flmul@a+2)^0,c
  2049   002140  0E3A               	movlw	58
  2050   002142  6E16               	movwf	(___flmul@a+3)^0,c
  2051   002144  ECA3  F02C         	call	___flmul	;wreg free
  2052   002148  C00F  F0A0         	movff	?___flmul,_voltage
  2053   00214C  C010  F0A1         	movff	?___flmul+1,_voltage+1
  2054   002150  C011  F0A2         	movff	?___flmul+2,_voltage+2
  2055   002154  C012  F0A3         	movff	?___flmul+3,_voltage+3
  2056   002158  C0A0  F028         	movff	_voltage,___flge@ff1
  2057   00215C  C0A1  F029         	movff	_voltage+1,___flge@ff1+1
  2058   002160  C0A2  F02A         	movff	_voltage+2,___flge@ff1+2
  2059   002164  C0A3  F02B         	movff	_voltage+3,___flge@ff1+3
  2060   002168  0E00               	movlw	0
  2061   00216A  6E2C               	movwf	___flge@ff2^0,c
  2062   00216C  0E00               	movlw	0
  2063   00216E  6E2D               	movwf	(___flge@ff2+1)^0,c
  2064   002170  0E80               	movlw	128
  2065   002172  6E2E               	movwf	(___flge@ff2+2)^0,c
  2066   002174  0E3F               	movlw	63
  2067   002176  6E2F               	movwf	(___flge@ff2+3)^0,c
  2068   002178  EC16  F035         	call	___flge	;wreg free
  2069   00217C  B0D8               	btfsc	status,0,c
  2070   00217E  EFC3  F010         	goto	u5461
  2071   002182  EFC5  F010         	goto	u5460
  2072   002186                     u5461:
  2073   002186  EFCE  F010         	goto	l5681
  2074   00218A                     u5460:
  2075   00218A  0E00               	movlw	0
  2076   00218C  0100               	movlb	0	; () banked
  2077   00218E  6F9C               	movwf	_Difficulty& (0+255),b
  2078   002190  0E00               	movlw	0
  2079   002192  6F9D               	movwf	(_Difficulty+1)& (0+255),b
  2080   002194  0E80               	movlw	128
  2081   002196  6F9E               	movwf	(_Difficulty+2)& (0+255),b
  2082   002198  0E3F               	movlw	63
  2083   00219A  6F9F               	movwf	(_Difficulty+3)& (0+255),b
  2084   00219C                     l5681:
  2085   00219C  0E00               	movlw	0
  2086   00219E  6E28               	movwf	___flge@ff1^0,c
  2087   0021A0  0E00               	movlw	0
  2088   0021A2  6E29               	movwf	(___flge@ff1+1)^0,c
  2089   0021A4  0E80               	movlw	128
  2090   0021A6  6E2A               	movwf	(___flge@ff1+2)^0,c
  2091   0021A8  0E3F               	movlw	63
  2092   0021AA  6E2B               	movwf	(___flge@ff1+3)^0,c
  2093   0021AC  C0A0  F02C         	movff	_voltage,___flge@ff2
  2094   0021B0  C0A1  F02D         	movff	_voltage+1,___flge@ff2+1
  2095   0021B4  C0A2  F02E         	movff	_voltage+2,___flge@ff2+2
  2096   0021B8  C0A3  F02F         	movff	_voltage+3,___flge@ff2+3
  2097   0021BC  EC16  F035         	call	___flge	;wreg free
  2098   0021C0  B0D8               	btfsc	status,0,c
  2099   0021C2  EFE5  F010         	goto	u5471
  2100   0021C6  EFE7  F010         	goto	u5470
  2101   0021CA                     u5471:
  2102   0021CA  EFF0  F010         	goto	l5685
  2103   0021CE                     u5470:
  2104   0021CE  0E00               	movlw	0
  2105   0021D0  0100               	movlb	0	; () banked
  2106   0021D2  6F9C               	movwf	_Difficulty& (0+255),b
  2107   0021D4  0E00               	movlw	0
  2108   0021D6  6F9D               	movwf	(_Difficulty+1)& (0+255),b
  2109   0021D8  0E00               	movlw	0
  2110   0021DA  6F9E               	movwf	(_Difficulty+2)& (0+255),b
  2111   0021DC  0E40               	movlw	64
  2112   0021DE  6F9F               	movwf	(_Difficulty+3)& (0+255),b
  2113   0021E0                     l5685:
  2114   0021E0  0E00               	movlw	0
  2115   0021E2  6E28               	movwf	___flge@ff1^0,c
  2116   0021E4  0E00               	movlw	0
  2117   0021E6  6E29               	movwf	(___flge@ff1+1)^0,c
  2118   0021E8  0EC0               	movlw	192
  2119   0021EA  6E2A               	movwf	(___flge@ff1+2)^0,c
  2120   0021EC  0E3F               	movlw	63
  2121   0021EE  6E2B               	movwf	(___flge@ff1+3)^0,c
  2122   0021F0  C0A0  F02C         	movff	_voltage,___flge@ff2
  2123   0021F4  C0A1  F02D         	movff	_voltage+1,___flge@ff2+1
  2124   0021F8  C0A2  F02E         	movff	_voltage+2,___flge@ff2+2
  2125   0021FC  C0A3  F02F         	movff	_voltage+3,___flge@ff2+3
  2126   002200  EC16  F035         	call	___flge	;wreg free
  2127   002204  B0D8               	btfsc	status,0,c
  2128   002206  EF07  F011         	goto	u5481
  2129   00220A  EF09  F011         	goto	u5480
  2130   00220E                     u5481:
  2131   00220E  EF12  F011         	goto	l5689
  2132   002212                     u5480:
  2133   002212  0E00               	movlw	0
  2134   002214  0100               	movlb	0	; () banked
  2135   002216  6F9C               	movwf	_Difficulty& (0+255),b
  2136   002218  0E00               	movlw	0
  2137   00221A  6F9D               	movwf	(_Difficulty+1)& (0+255),b
  2138   00221C  0E40               	movlw	64
  2139   00221E  6F9E               	movwf	(_Difficulty+2)& (0+255),b
  2140   002220  0E40               	movlw	64
  2141   002222  6F9F               	movwf	(_Difficulty+3)& (0+255),b
  2142   002224                     l5689:
  2143   002224  0E00               	movlw	0
  2144   002226  6E28               	movwf	___flge@ff1^0,c
  2145   002228  0E00               	movlw	0
  2146   00222A  6E29               	movwf	(___flge@ff1+1)^0,c
  2147   00222C  0E00               	movlw	0
  2148   00222E  6E2A               	movwf	(___flge@ff1+2)^0,c
  2149   002230  0E40               	movlw	64
  2150   002232  6E2B               	movwf	(___flge@ff1+3)^0,c
  2151   002234  C0A0  F02C         	movff	_voltage,___flge@ff2
  2152   002238  C0A1  F02D         	movff	_voltage+1,___flge@ff2+1
  2153   00223C  C0A2  F02E         	movff	_voltage+2,___flge@ff2+2
  2154   002240  C0A3  F02F         	movff	_voltage+3,___flge@ff2+3
  2155   002244  EC16  F035         	call	___flge	;wreg free
  2156   002248  B0D8               	btfsc	status,0,c
  2157   00224A  EF29  F011         	goto	u5491
  2158   00224E  EF2B  F011         	goto	u5490
  2159   002252                     u5491:
  2160   002252  EF34  F011         	goto	l5693
  2161   002256                     u5490:
  2162   002256  0E00               	movlw	0
  2163   002258  0100               	movlb	0	; () banked
  2164   00225A  6F9C               	movwf	_Difficulty& (0+255),b
  2165   00225C  0E00               	movlw	0
  2166   00225E  6F9D               	movwf	(_Difficulty+1)& (0+255),b
  2167   002260  0E80               	movlw	128
  2168   002262  6F9E               	movwf	(_Difficulty+2)& (0+255),b
  2169   002264  0E40               	movlw	64
  2170   002266  6F9F               	movwf	(_Difficulty+3)& (0+255),b
  2171   002268                     l5693:
  2172   002268  0EAC               	movlw	low _data
  2173   00226A  0100               	movlb	0	; () banked
  2174   00226C  6F8C               	movwf	sprintf@s& (0+255),b
  2175   00226E  0EAE               	movlw	low STR_1
  2176   002270  6F8D               	movwf	sprintf@fmt& (0+255),b
  2177   002272  C09C  F08E         	movff	_Difficulty,?_sprintf+2
  2178   002276  C09D  F08F         	movff	_Difficulty+1,?_sprintf+3
  2179   00227A  C09E  F090         	movff	_Difficulty+2,?_sprintf+4
  2180   00227E  C09F  F091         	movff	_Difficulty+3,?_sprintf+5
  2181   002282  EC36  F03A         	call	_sprintf	;wreg free
  2182   002286  0E00               	movlw	0
  2183   002288  6E0A               	movwf	LCD_String_xy@pos^0,c
  2184   00228A  0E01               	movlw	low STR_2
  2185   00228C  6E0B               	movwf	LCD_String_xy@msg^0,c
  2186   00228E  500B               	movf	LCD_String_xy@msg^0,w,c
  2187   002290  A4D8               	btfss	status,2,c
  2188   002292  0E20               	movlw	high __smallconst
  2189   002294  6E0C               	movwf	(LCD_String_xy@msg+1)^0,c
  2190   002296  0E01               	movlw	1
  2191   002298  ECFA  F039         	call	_LCD_String_xy
  2192   00229C  0E04               	movlw	4
  2193   00229E  6E0A               	movwf	LCD_String_xy@pos^0,c
  2194   0022A0  0EAC               	movlw	low _data
  2195   0022A2  6E0B               	movwf	LCD_String_xy@msg^0,c
  2196   0022A4  6A0C               	clrf	(LCD_String_xy@msg+1)^0,c
  2197   0022A6  0E02               	movlw	2
  2198   0022A8  ECFA  F039         	call	_LCD_String_xy
  2199   0022AC  0E00               	movlw	0
  2200   0022AE  6E02               	movwf	(MSdelay@val+1)^0,c
  2201   0022B0  0E64               	movlw	100
  2202   0022B2  6E01               	movwf	MSdelay@val^0,c
  2203   0022B4  EC4D  F039         	call	_MSdelay	;wreg free
  2204   0022B8  BECD               	btfsc	205,7,c	;volatile
  2205   0022BA  EF61  F011         	goto	u5501
  2206   0022BE  EF63  F011         	goto	u5500
  2207   0022C2                     u5501:
  2208   0022C2  EF70  F010         	goto	l5671
  2209   0022C6                     u5500:
  2210   0022C6  ECCD  F03A         	call	_LCD_Clear	;wreg free
  2211   0022CA  0E00               	movlw	0
  2212   0022CC  6E0A               	movwf	LCD_String_xy@pos^0,c
  2213   0022CE  0E63               	movlw	low STR_3
  2214   0022D0  6E0B               	movwf	LCD_String_xy@msg^0,c
  2215   0022D2  500B               	movf	LCD_String_xy@msg^0,w,c
  2216   0022D4  A4D8               	btfss	status,2,c
  2217   0022D6  0E20               	movlw	high __smallconst
  2218   0022D8  6E0C               	movwf	(LCD_String_xy@msg+1)^0,c
  2219   0022DA  0E01               	movlw	1
  2220   0022DC  ECFA  F039         	call	_LCD_String_xy
  2221   0022E0  0E06               	movlw	6
  2222   0022E2  0100               	movlb	0	; () banked
  2223   0022E4  6F93               	movwf	(??_main+1)& (0+255),b
  2224   0022E6  0E13               	movlw	19
  2225   0022E8  6F92               	movwf	??_main& (0+255),b
  2226   0022EA  0EAD               	movlw	173
  2227   0022EC                     u6077:
  2228   0022EC  2EE8               	decfsz	wreg,f,c
  2229   0022EE  D7FE               	bra	u6077
  2230   0022F0  2F92               	decfsz	??_main& (0+255),f,b
  2231   0022F2  D7FC               	bra	u6077
  2232   0022F4  2F93               	decfsz	(??_main+1)& (0+255),f,b
  2233   0022F6  D7FA               	bra	u6077
  2234   0022F8  D000               	nop2	
  2235   0022FA  0E00               	movlw	0
  2236   0022FC  6E0A               	movwf	LCD_String_xy@pos^0,c
  2237   0022FE  0E54               	movlw	low STR_4
  2238   002300  6E0B               	movwf	LCD_String_xy@msg^0,c
  2239   002302  500B               	movf	LCD_String_xy@msg^0,w,c
  2240   002304  A4D8               	btfss	status,2,c
  2241   002306  0E20               	movlw	high __smallconst
  2242   002308  6E0C               	movwf	(LCD_String_xy@msg+1)^0,c
  2243   00230A  0E01               	movlw	1
  2244   00230C  ECFA  F039         	call	_LCD_String_xy
  2245   002310  0E06               	movlw	6
  2246   002312  0100               	movlb	0	; () banked
  2247   002314  6F93               	movwf	(??_main+1)& (0+255),b
  2248   002316  0E13               	movlw	19
  2249   002318  6F92               	movwf	??_main& (0+255),b
  2250   00231A  0EAD               	movlw	173
  2251   00231C                     u6087:
  2252   00231C  2EE8               	decfsz	wreg,f,c
  2253   00231E  D7FE               	bra	u6087
  2254   002320  2F92               	decfsz	??_main& (0+255),f,b
  2255   002322  D7FC               	bra	u6087
  2256   002324  2F93               	decfsz	(??_main+1)& (0+255),f,b
  2257   002326  D7FA               	bra	u6087
  2258   002328  D000               	nop2	
  2259   00232A  0E00               	movlw	0
  2260   00232C  6E0A               	movwf	LCD_String_xy@pos^0,c
  2261   00232E  0E45               	movlw	low STR_5
  2262   002330  6E0B               	movwf	LCD_String_xy@msg^0,c
  2263   002332  500B               	movf	LCD_String_xy@msg^0,w,c
  2264   002334  A4D8               	btfss	status,2,c
  2265   002336  0E20               	movlw	high __smallconst
  2266   002338  6E0C               	movwf	(LCD_String_xy@msg+1)^0,c
  2267   00233A  0E01               	movlw	1
  2268   00233C  ECFA  F039         	call	_LCD_String_xy
  2269   002340  0E06               	movlw	6
  2270   002342  0100               	movlb	0	; () banked
  2271   002344  6F93               	movwf	(??_main+1)& (0+255),b
  2272   002346  0E13               	movlw	19
  2273   002348  6F92               	movwf	??_main& (0+255),b
  2274   00234A  0EAD               	movlw	173
  2275   00234C                     u6097:
  2276   00234C  2EE8               	decfsz	wreg,f,c
  2277   00234E  D7FE               	bra	u6097
  2278   002350  2F92               	decfsz	??_main& (0+255),f,b
  2279   002352  D7FC               	bra	u6097
  2280   002354  2F93               	decfsz	(??_main+1)& (0+255),f,b
  2281   002356  D7FA               	bra	u6097
  2282   002358  D000               	nop2	
  2283   00235A  ECCD  F03A         	call	_LCD_Clear	;wreg free
  2284   00235E                     l5719:
  2285   00235E  C09C  F00F         	movff	_Difficulty,___fleq@ff1
  2286   002362  C09D  F010         	movff	_Difficulty+1,___fleq@ff1+1
  2287   002366  C09E  F011         	movff	_Difficulty+2,___fleq@ff1+2
  2288   00236A  C09F  F012         	movff	_Difficulty+3,___fleq@ff1+3
  2289   00236E  0E00               	movlw	0
  2290   002370  6E13               	movwf	___fleq@ff2^0,c
  2291   002372  0E00               	movlw	0
  2292   002374  6E14               	movwf	(___fleq@ff2+1)^0,c
  2293   002376  0E80               	movlw	128
  2294   002378  6E15               	movwf	(___fleq@ff2+2)^0,c
  2295   00237A  0E40               	movlw	64
  2296   00237C  6E16               	movwf	(___fleq@ff2+3)^0,c
  2297   00237E  EC81  F037         	call	___fleq	;wreg free
  2298   002382  A0D8               	btfss	status,0,c
  2299   002384  EFC6  F011         	goto	u5511
  2300   002388  EFC8  F011         	goto	u5510
  2301   00238C                     u5511:
  2302   00238C  EF9B  F016         	goto	l5943
  2303   002390                     u5510:
  2304   002390  EC58  F038         	call	_rand	;wreg free
  2305   002394  0E0F               	movlw	15
  2306   002396  140D               	andwf	?_rand^0,w,c
  2307   002398  6E5A               	movwf	_num^0,c
  2308   00239A  6A5B               	clrf	(_num+1)^0,c
  2309   00239C  0060  F16B  FFCD   	movff	_num,16333	;volatile
  2310   0023A2  0E02               	movlw	2
  2311   0023A4  0100               	movlb	0	; () banked
  2312   0023A6  6F93               	movwf	(??_main+1)& (0+255),b
  2313   0023A8  0E45               	movlw	69
  2314   0023AA  6F92               	movwf	??_main& (0+255),b
  2315   0023AC  0EA9               	movlw	169
  2316   0023AE                     u6107:
  2317   0023AE  2EE8               	decfsz	wreg,f,c
  2318   0023B0  D7FE               	bra	u6107
  2319   0023B2  2F92               	decfsz	??_main& (0+255),f,b
  2320   0023B4  D7FC               	bra	u6107
  2321   0023B6  2F93               	decfsz	(??_main+1)& (0+255),f,b
  2322   0023B8  D7FA               	bra	u6107
  2323   0023BA  D000               	nop2	
  2324   0023BC  6ACD               	clrf	205,c	;volatile
  2325   0023BE  0E82               	movlw	130
  2326   0023C0  0100               	movlb	0	; () banked
  2327   0023C2  6F92               	movwf	??_main& (0+255),b
  2328   0023C4  0EDD               	movlw	221
  2329   0023C6                     u6117:
  2330   0023C6  2EE8               	decfsz	wreg,f,c
  2331   0023C8  D7FE               	bra	u6117
  2332   0023CA  2F92               	decfsz	??_main& (0+255),f,b
  2333   0023CC  D7FC               	bra	u6117
  2334   0023CE  D000               	nop2	
  2335   0023D0  0E00               	movlw	0
  2336   0023D2  6E0A               	movwf	LCD_String_xy@pos^0,c
  2337   0023D4  0E8C               	movlw	low STR_6
  2338   0023D6  6E0B               	movwf	LCD_String_xy@msg^0,c
  2339   0023D8  500B               	movf	LCD_String_xy@msg^0,w,c
  2340   0023DA  A4D8               	btfss	status,2,c
  2341   0023DC  0E20               	movlw	high __smallconst
  2342   0023DE  6E0C               	movwf	(LCD_String_xy@msg+1)^0,c
  2343   0023E0  0E01               	movlw	1
  2344   0023E2  ECFA  F039         	call	_LCD_String_xy
  2345   0023E6  0E04               	movlw	4
  2346   0023E8  6E0A               	movwf	LCD_String_xy@pos^0,c
  2347   0023EA  0EA9               	movlw	low STR_7
  2348   0023EC  6E0B               	movwf	LCD_String_xy@msg^0,c
  2349   0023EE  500B               	movf	LCD_String_xy@msg^0,w,c
  2350   0023F0  A4D8               	btfss	status,2,c
  2351   0023F2  0E20               	movlw	high __smallconst
  2352   0023F4  6E0C               	movwf	(LCD_String_xy@msg+1)^0,c
  2353   0023F6  0E02               	movlw	2
  2354   0023F8  ECFA  F039         	call	_LCD_String_xy
  2355   0023FC  EFA0  F012         	goto	l5757
  2356   002400                     l130:
  2357   002400  B2CE               	btfsc	206,1,c	;volatile
  2358   002402  EF05  F012         	goto	u5521
  2359   002406  EF07  F012         	goto	u5520
  2360   00240A                     u5521:
  2361   00240A  EF50  F012         	goto	l5745
  2362   00240E                     u5520:
  2363   00240E  C056  F001         	movff	_count1,___fladd@b
  2364   002412  C057  F002         	movff	_count1+1,___fladd@b+1
  2365   002416  C058  F003         	movff	_count1+2,___fladd@b+2
  2366   00241A  C059  F004         	movff	_count1+3,___fladd@b+3
  2367   00241E  0E00               	movlw	0
  2368   002420  6E05               	movwf	___fladd@a^0,c
  2369   002422  0E00               	movlw	0
  2370   002424  6E06               	movwf	(___fladd@a+1)^0,c
  2371   002426  0E80               	movlw	128
  2372   002428  6E07               	movwf	(___fladd@a+2)^0,c
  2373   00242A  0E3F               	movlw	63
  2374   00242C  6E08               	movwf	(___fladd@a+3)^0,c
  2375   00242E  EC48  F02A         	call	___fladd	;wreg free
  2376   002432  C001  F056         	movff	?___fladd,_count1
  2377   002436  C002  F057         	movff	?___fladd+1,_count1+1
  2378   00243A  C003  F058         	movff	?___fladd+2,_count1+2
  2379   00243E  C004  F059         	movff	?___fladd+3,_count1+3
  2380   002442  0E02               	movlw	2
  2381   002444  0100               	movlb	0	; () banked
  2382   002446  6F93               	movwf	(??_main+1)& (0+255),b
  2383   002448  0E45               	movlw	69
  2384   00244A  6F92               	movwf	??_main& (0+255),b
  2385   00244C  0EA9               	movlw	169
  2386   00244E                     u6127:
  2387   00244E  2EE8               	decfsz	wreg,f,c
  2388   002450  D7FE               	bra	u6127
  2389   002452  2F92               	decfsz	??_main& (0+255),f,b
  2390   002454  D7FC               	bra	u6127
  2391   002456  2F93               	decfsz	(??_main+1)& (0+255),f,b
  2392   002458  D7FA               	bra	u6127
  2393   00245A  D000               	nop2	
  2394   00245C  0EAC               	movlw	low _data
  2395   00245E  0100               	movlb	0	; () banked
  2396   002460  6F8C               	movwf	sprintf@s& (0+255),b
  2397   002462  0EAE               	movlw	low STR_1
  2398   002464  6F8D               	movwf	sprintf@fmt& (0+255),b
  2399   002466  C056  F08E         	movff	_count1,?_sprintf+2
  2400   00246A  C057  F08F         	movff	_count1+1,?_sprintf+3
  2401   00246E  C058  F090         	movff	_count1+2,?_sprintf+4
  2402   002472  C059  F091         	movff	_count1+3,?_sprintf+5
  2403   002476  EC36  F03A         	call	_sprintf	;wreg free
  2404   00247A  0E00               	movlw	0
  2405   00247C  6E0A               	movwf	LCD_String_xy@pos^0,c
  2406   00247E  0E8C               	movlw	low STR_6
  2407   002480  6E0B               	movwf	LCD_String_xy@msg^0,c
  2408   002482  500B               	movf	LCD_String_xy@msg^0,w,c
  2409   002484  A4D8               	btfss	status,2,c
  2410   002486  0E20               	movlw	high __smallconst
  2411   002488  6E0C               	movwf	(LCD_String_xy@msg+1)^0,c
  2412   00248A  0E01               	movlw	1
  2413   00248C  ECFA  F039         	call	_LCD_String_xy
  2414   002490  0E04               	movlw	4
  2415   002492  6E0A               	movwf	LCD_String_xy@pos^0,c
  2416   002494  0EAC               	movlw	low _data
  2417   002496  6E0B               	movwf	LCD_String_xy@msg^0,c
  2418   002498  6A0C               	clrf	(LCD_String_xy@msg+1)^0,c
  2419   00249A  0E02               	movlw	2
  2420   00249C  ECFA  F039         	call	_LCD_String_xy
  2421   0024A0                     l5745:
  2422   0024A0  B0CE               	btfsc	206,0,c	;volatile
  2423   0024A2  EF55  F012         	goto	u5531
  2424   0024A6  EF57  F012         	goto	u5530
  2425   0024AA                     u5531:
  2426   0024AA  EFA0  F012         	goto	l5757
  2427   0024AE                     u5530:
  2428   0024AE  C056  F028         	movff	_count1,___flsub@b
  2429   0024B2  C057  F029         	movff	_count1+1,___flsub@b+1
  2430   0024B6  C058  F02A         	movff	_count1+2,___flsub@b+2
  2431   0024BA  C059  F02B         	movff	_count1+3,___flsub@b+3
  2432   0024BE  0E00               	movlw	0
  2433   0024C0  6E2C               	movwf	___flsub@a^0,c
  2434   0024C2  0E00               	movlw	0
  2435   0024C4  6E2D               	movwf	(___flsub@a+1)^0,c
  2436   0024C6  0E80               	movlw	128
  2437   0024C8  6E2E               	movwf	(___flsub@a+2)^0,c
  2438   0024CA  0E3F               	movlw	63
  2439   0024CC  6E2F               	movwf	(___flsub@a+3)^0,c
  2440   0024CE  EC95  F039         	call	___flsub	;wreg free
  2441   0024D2  C028  F056         	movff	?___flsub,_count1
  2442   0024D6  C029  F057         	movff	?___flsub+1,_count1+1
  2443   0024DA  C02A  F058         	movff	?___flsub+2,_count1+2
  2444   0024DE  C02B  F059         	movff	?___flsub+3,_count1+3
  2445   0024E2  0E02               	movlw	2
  2446   0024E4  0100               	movlb	0	; () banked
  2447   0024E6  6F93               	movwf	(??_main+1)& (0+255),b
  2448   0024E8  0E45               	movlw	69
  2449   0024EA  6F92               	movwf	??_main& (0+255),b
  2450   0024EC  0EA9               	movlw	169
  2451   0024EE                     u6137:
  2452   0024EE  2EE8               	decfsz	wreg,f,c
  2453   0024F0  D7FE               	bra	u6137
  2454   0024F2  2F92               	decfsz	??_main& (0+255),f,b
  2455   0024F4  D7FC               	bra	u6137
  2456   0024F6  2F93               	decfsz	(??_main+1)& (0+255),f,b
  2457   0024F8  D7FA               	bra	u6137
  2458   0024FA  D000               	nop2	
  2459   0024FC  0EAC               	movlw	low _data
  2460   0024FE  0100               	movlb	0	; () banked
  2461   002500  6F8C               	movwf	sprintf@s& (0+255),b
  2462   002502  0EAE               	movlw	low STR_1
  2463   002504  6F8D               	movwf	sprintf@fmt& (0+255),b
  2464   002506  C056  F08E         	movff	_count1,?_sprintf+2
  2465   00250A  C057  F08F         	movff	_count1+1,?_sprintf+3
  2466   00250E  C058  F090         	movff	_count1+2,?_sprintf+4
  2467   002512  C059  F091         	movff	_count1+3,?_sprintf+5
  2468   002516  EC36  F03A         	call	_sprintf	;wreg free
  2469   00251A  0E00               	movlw	0
  2470   00251C  6E0A               	movwf	LCD_String_xy@pos^0,c
  2471   00251E  0E8C               	movlw	low STR_6
  2472   002520  6E0B               	movwf	LCD_String_xy@msg^0,c
  2473   002522  500B               	movf	LCD_String_xy@msg^0,w,c
  2474   002524  A4D8               	btfss	status,2,c
  2475   002526  0E20               	movlw	high __smallconst
  2476   002528  6E0C               	movwf	(LCD_String_xy@msg+1)^0,c
  2477   00252A  0E01               	movlw	1
  2478   00252C  ECFA  F039         	call	_LCD_String_xy
  2479   002530  0E04               	movlw	4
  2480   002532  6E0A               	movwf	LCD_String_xy@pos^0,c
  2481   002534  0EAC               	movlw	low _data
  2482   002536  6E0B               	movwf	LCD_String_xy@msg^0,c
  2483   002538  6A0C               	clrf	(LCD_String_xy@msg+1)^0,c
  2484   00253A  0E02               	movlw	2
  2485   00253C  ECFA  F039         	call	_LCD_String_xy
  2486   002540                     l5757:
  2487   002540  BCCD               	btfsc	205,6,c	;volatile
  2488   002542  EFA5  F012         	goto	u5541
  2489   002546  EFA7  F012         	goto	u5540
  2490   00254A                     u5541:
  2491   00254A  EF00  F012         	goto	l130
  2492   00254E                     u5540:
  2493   00254E  C05A  F001         	movff	_num,___xxtofl@val
  2494   002552  C05B  F002         	movff	_num+1,___xxtofl@val+1
  2495   002556  0E00               	movlw	0
  2496   002558  BE02               	btfsc	(___xxtofl@val+1)^0,7,c
  2497   00255A  0EFF               	movlw	-1
  2498   00255C  6E03               	movwf	(___xxtofl@val+2)^0,c
  2499   00255E  6E04               	movwf	(___xxtofl@val+3)^0,c
  2500   002560  0E01               	movlw	1
  2501   002562  ECFC  F032         	call	___xxtofl
  2502   002566  C001  F00F         	movff	?___xxtofl,___fleq@ff1
  2503   00256A  C002  F010         	movff	?___xxtofl+1,___fleq@ff1+1
  2504   00256E  C003  F011         	movff	?___xxtofl+2,___fleq@ff1+2
  2505   002572  C004  F012         	movff	?___xxtofl+3,___fleq@ff1+3
  2506   002576  C056  F013         	movff	_count1,___fleq@ff2
  2507   00257A  C057  F014         	movff	_count1+1,___fleq@ff2+1
  2508   00257E  C058  F015         	movff	_count1+2,___fleq@ff2+2
  2509   002582  C059  F016         	movff	_count1+3,___fleq@ff2+3
  2510   002586  EC81  F037         	call	___fleq	;wreg free
  2511   00258A  A0D8               	btfss	status,0,c
  2512   00258C  EFCA  F012         	goto	u5551
  2513   002590  EFCC  F012         	goto	u5550
  2514   002594                     u5551:
  2515   002594  EFF6  F012         	goto	l5771
  2516   002598                     u5550:
  2517   002598  ECCD  F03A         	call	_LCD_Clear	;wreg free
  2518   00259C  0E01               	movlw	1
  2519   00259E  245C               	addwf	_count2^0,w,c
  2520   0025A0  6E5C               	movwf	_count2^0,c
  2521   0025A2  0E00               	movlw	0
  2522   0025A4  205D               	addwfc	(_count2+1)^0,w,c
  2523   0025A6  6E5D               	movwf	(_count2+1)^0,c
  2524   0025A8  0E00               	movlw	0
  2525   0025AA  6E0A               	movwf	LCD_String_xy@pos^0,c
  2526   0025AC  0E99               	movlw	low STR_12
  2527   0025AE  6E0B               	movwf	LCD_String_xy@msg^0,c
  2528   0025B0  500B               	movf	LCD_String_xy@msg^0,w,c
  2529   0025B2  A4D8               	btfss	status,2,c
  2530   0025B4  0E20               	movlw	high __smallconst
  2531   0025B6  6E0C               	movwf	(LCD_String_xy@msg+1)^0,c
  2532   0025B8  0E01               	movlw	1
  2533   0025BA  ECFA  F039         	call	_LCD_String_xy
  2534   0025BE  0E1A               	movlw	26
  2535   0025C0  0100               	movlb	0	; () banked
  2536   0025C2  6F93               	movwf	(??_main+1)& (0+255),b
  2537   0025C4  0E5E               	movlw	94
  2538   0025C6  6F92               	movwf	??_main& (0+255),b
  2539   0025C8  0E6E               	movlw	110
  2540   0025CA                     u6147:
  2541   0025CA  2EE8               	decfsz	wreg,f,c
  2542   0025CC  D7FE               	bra	u6147
  2543   0025CE  2F92               	decfsz	??_main& (0+255),f,b
  2544   0025D0  D7FC               	bra	u6147
  2545   0025D2  2F93               	decfsz	(??_main+1)& (0+255),f,b
  2546   0025D4  D7FA               	bra	u6147
  2547   0025D6  0000               	nop	
  2548   0025D8  0E00               	movlw	0
  2549   0025DA  6E56               	movwf	_count1^0,c
  2550   0025DC  0E00               	movlw	0
  2551   0025DE  6E57               	movwf	(_count1+1)^0,c
  2552   0025E0  0E00               	movlw	0
  2553   0025E2  6E58               	movwf	(_count1+2)^0,c
  2554   0025E4  0E00               	movlw	0
  2555   0025E6  6E59               	movwf	(_count1+3)^0,c
  2556   0025E8  EF18  F013         	goto	l5779
  2557   0025EC                     l5771:
  2558   0025EC  ECCD  F03A         	call	_LCD_Clear	;wreg free
  2559   0025F0  0E00               	movlw	0
  2560   0025F2  6E0A               	movwf	LCD_String_xy@pos^0,c
  2561   0025F4  0E72               	movlw	low STR_13
  2562   0025F6  6E0B               	movwf	LCD_String_xy@msg^0,c
  2563   0025F8  500B               	movf	LCD_String_xy@msg^0,w,c
  2564   0025FA  A4D8               	btfss	status,2,c
  2565   0025FC  0E20               	movlw	high __smallconst
  2566   0025FE  6E0C               	movwf	(LCD_String_xy@msg+1)^0,c
  2567   002600  0E01               	movlw	1
  2568   002602  ECFA  F039         	call	_LCD_String_xy
  2569   002606  0E1A               	movlw	26
  2570   002608  0100               	movlb	0	; () banked
  2571   00260A  6F93               	movwf	(??_main+1)& (0+255),b
  2572   00260C  0E5E               	movlw	94
  2573   00260E  6F92               	movwf	??_main& (0+255),b
  2574   002610  0E6E               	movlw	110
  2575   002612                     u6157:
  2576   002612  2EE8               	decfsz	wreg,f,c
  2577   002614  D7FE               	bra	u6157
  2578   002616  2F92               	decfsz	??_main& (0+255),f,b
  2579   002618  D7FC               	bra	u6157
  2580   00261A  2F93               	decfsz	(??_main+1)& (0+255),f,b
  2581   00261C  D7FA               	bra	u6157
  2582   00261E  0000               	nop	
  2583   002620  0E00               	movlw	0
  2584   002622  6E56               	movwf	_count1^0,c
  2585   002624  0E00               	movlw	0
  2586   002626  6E57               	movwf	(_count1+1)^0,c
  2587   002628  0E00               	movlw	0
  2588   00262A  6E58               	movwf	(_count1+2)^0,c
  2589   00262C  0E00               	movlw	0
  2590   00262E  6E59               	movwf	(_count1+3)^0,c
  2591   002630                     l5779:
  2592   002630  ECCD  F03A         	call	_LCD_Clear	;wreg free
  2593   002634  0E00               	movlw	0
  2594   002636  6E0A               	movwf	LCD_String_xy@pos^0,c
  2595   002638  0E24               	movlw	low STR_14
  2596   00263A  6E0B               	movwf	LCD_String_xy@msg^0,c
  2597   00263C  500B               	movf	LCD_String_xy@msg^0,w,c
  2598   00263E  A4D8               	btfss	status,2,c
  2599   002640  0E20               	movlw	high __smallconst
  2600   002642  6E0C               	movwf	(LCD_String_xy@msg+1)^0,c
  2601   002644  0E01               	movlw	1
  2602   002646  ECFA  F039         	call	_LCD_String_xy
  2603   00264A  0E06               	movlw	6
  2604   00264C  0100               	movlb	0	; () banked
  2605   00264E  6F93               	movwf	(??_main+1)& (0+255),b
  2606   002650  0E13               	movlw	19
  2607   002652  6F92               	movwf	??_main& (0+255),b
  2608   002654  0EAD               	movlw	173
  2609   002656                     u6167:
  2610   002656  2EE8               	decfsz	wreg,f,c
  2611   002658  D7FE               	bra	u6167
  2612   00265A  2F92               	decfsz	??_main& (0+255),f,b
  2613   00265C  D7FC               	bra	u6167
  2614   00265E  2F93               	decfsz	(??_main+1)& (0+255),f,b
  2615   002660  D7FA               	bra	u6167
  2616   002662  D000               	nop2	
  2617   002664  0E00               	movlw	0
  2618   002666  6E0A               	movwf	LCD_String_xy@pos^0,c
  2619   002668  0E35               	movlw	low STR_15
  2620   00266A  6E0B               	movwf	LCD_String_xy@msg^0,c
  2621   00266C  500B               	movf	LCD_String_xy@msg^0,w,c
  2622   00266E  A4D8               	btfss	status,2,c
  2623   002670  0E20               	movlw	high __smallconst
  2624   002672  6E0C               	movwf	(LCD_String_xy@msg+1)^0,c
  2625   002674  0E01               	movlw	1
  2626   002676  ECFA  F039         	call	_LCD_String_xy
  2627   00267A  0E06               	movlw	6
  2628   00267C  0100               	movlb	0	; () banked
  2629   00267E  6F93               	movwf	(??_main+1)& (0+255),b
  2630   002680  0E13               	movlw	19
  2631   002682  6F92               	movwf	??_main& (0+255),b
  2632   002684  0EAD               	movlw	173
  2633   002686                     u6177:
  2634   002686  2EE8               	decfsz	wreg,f,c
  2635   002688  D7FE               	bra	u6177
  2636   00268A  2F92               	decfsz	??_main& (0+255),f,b
  2637   00268C  D7FC               	bra	u6177
  2638   00268E  2F93               	decfsz	(??_main+1)& (0+255),f,b
  2639   002690  D7FA               	bra	u6177
  2640   002692  D000               	nop2	
  2641   002694  0E00               	movlw	0
  2642   002696  6E0A               	movwf	LCD_String_xy@pos^0,c
  2643   002698  0E13               	movlw	low STR_16
  2644   00269A  6E0B               	movwf	LCD_String_xy@msg^0,c
  2645   00269C  500B               	movf	LCD_String_xy@msg^0,w,c
  2646   00269E  A4D8               	btfss	status,2,c
  2647   0026A0  0E20               	movlw	high __smallconst
  2648   0026A2  6E0C               	movwf	(LCD_String_xy@msg+1)^0,c
  2649   0026A4  0E01               	movlw	1
  2650   0026A6  ECFA  F039         	call	_LCD_String_xy
  2651   0026AA  0E06               	movlw	6
  2652   0026AC  0100               	movlb	0	; () banked
  2653   0026AE  6F93               	movwf	(??_main+1)& (0+255),b
  2654   0026B0  0E13               	movlw	19
  2655   0026B2  6F92               	movwf	??_main& (0+255),b
  2656   0026B4  0EAD               	movlw	173
  2657   0026B6                     u6187:
  2658   0026B6  2EE8               	decfsz	wreg,f,c
  2659   0026B8  D7FE               	bra	u6187
  2660   0026BA  2F92               	decfsz	??_main& (0+255),f,b
  2661   0026BC  D7FC               	bra	u6187
  2662   0026BE  2F93               	decfsz	(??_main+1)& (0+255),f,b
  2663   0026C0  D7FA               	bra	u6187
  2664   0026C2  D000               	nop2	
  2665   0026C4  ECCD  F03A         	call	_LCD_Clear	;wreg free
  2666   0026C8  EC58  F038         	call	_rand	;wreg free
  2667   0026CC  0E0F               	movlw	15
  2668   0026CE  140D               	andwf	?_rand^0,w,c
  2669   0026D0  6E5A               	movwf	_num^0,c
  2670   0026D2  6A5B               	clrf	(_num+1)^0,c
  2671   0026D4  0060  F16B  FFCD   	movff	_num,16333	;volatile
  2672   0026DA  0EC3               	movlw	195
  2673   0026DC  0100               	movlb	0	; () banked
  2674   0026DE  6F92               	movwf	??_main& (0+255),b
  2675   0026E0  0ECD               	movlw	205
  2676   0026E2                     u6197:
  2677   0026E2  2EE8               	decfsz	wreg,f,c
  2678   0026E4  D7FE               	bra	u6197
  2679   0026E6  2F92               	decfsz	??_main& (0+255),f,b
  2680   0026E8  D7FC               	bra	u6197
  2681   0026EA  6ACD               	clrf	205,c	;volatile
  2682   0026EC  0E82               	movlw	130
  2683   0026EE  0100               	movlb	0	; () banked
  2684   0026F0  6F92               	movwf	??_main& (0+255),b
  2685   0026F2  0EDD               	movlw	221
  2686   0026F4                     u6207:
  2687   0026F4  2EE8               	decfsz	wreg,f,c
  2688   0026F6  D7FE               	bra	u6207
  2689   0026F8  2F92               	decfsz	??_main& (0+255),f,b
  2690   0026FA  D7FC               	bra	u6207
  2691   0026FC  D000               	nop2	
  2692   0026FE  0E00               	movlw	0
  2693   002700  6E0A               	movwf	LCD_String_xy@pos^0,c
  2694   002702  0E8C               	movlw	low STR_6
  2695   002704  6E0B               	movwf	LCD_String_xy@msg^0,c
  2696   002706  500B               	movf	LCD_String_xy@msg^0,w,c
  2697   002708  A4D8               	btfss	status,2,c
  2698   00270A  0E20               	movlw	high __smallconst
  2699   00270C  6E0C               	movwf	(LCD_String_xy@msg+1)^0,c
  2700   00270E  0E01               	movlw	1
  2701   002710  ECFA  F039         	call	_LCD_String_xy
  2702   002714  0E04               	movlw	4
  2703   002716  6E0A               	movwf	LCD_String_xy@pos^0,c
  2704   002718  0EA9               	movlw	low STR_7
  2705   00271A  6E0B               	movwf	LCD_String_xy@msg^0,c
  2706   00271C  500B               	movf	LCD_String_xy@msg^0,w,c
  2707   00271E  A4D8               	btfss	status,2,c
  2708   002720  0E20               	movlw	high __smallconst
  2709   002722  6E0C               	movwf	(LCD_String_xy@msg+1)^0,c
  2710   002724  0E02               	movlw	2
  2711   002726  ECFA  F039         	call	_LCD_String_xy
  2712   00272A  EF37  F014         	goto	l5831
  2713   00272E                     l137:
  2714   00272E  B2CE               	btfsc	206,1,c	;volatile
  2715   002730  EF9C  F013         	goto	u5561
  2716   002734  EF9E  F013         	goto	u5560
  2717   002738                     u5561:
  2718   002738  EFE7  F013         	goto	l5819
  2719   00273C                     u5560:
  2720   00273C  C056  F001         	movff	_count1,___fladd@b
  2721   002740  C057  F002         	movff	_count1+1,___fladd@b+1
  2722   002744  C058  F003         	movff	_count1+2,___fladd@b+2
  2723   002748  C059  F004         	movff	_count1+3,___fladd@b+3
  2724   00274C  0E00               	movlw	0
  2725   00274E  6E05               	movwf	___fladd@a^0,c
  2726   002750  0E00               	movlw	0
  2727   002752  6E06               	movwf	(___fladd@a+1)^0,c
  2728   002754  0E80               	movlw	128
  2729   002756  6E07               	movwf	(___fladd@a+2)^0,c
  2730   002758  0E3F               	movlw	63
  2731   00275A  6E08               	movwf	(___fladd@a+3)^0,c
  2732   00275C  EC48  F02A         	call	___fladd	;wreg free
  2733   002760  C001  F056         	movff	?___fladd,_count1
  2734   002764  C002  F057         	movff	?___fladd+1,_count1+1
  2735   002768  C003  F058         	movff	?___fladd+2,_count1+2
  2736   00276C  C004  F059         	movff	?___fladd+3,_count1+3
  2737   002770  0E02               	movlw	2
  2738   002772  0100               	movlb	0	; () banked
  2739   002774  6F93               	movwf	(??_main+1)& (0+255),b
  2740   002776  0E45               	movlw	69
  2741   002778  6F92               	movwf	??_main& (0+255),b
  2742   00277A  0EA9               	movlw	169
  2743   00277C                     u6217:
  2744   00277C  2EE8               	decfsz	wreg,f,c
  2745   00277E  D7FE               	bra	u6217
  2746   002780  2F92               	decfsz	??_main& (0+255),f,b
  2747   002782  D7FC               	bra	u6217
  2748   002784  2F93               	decfsz	(??_main+1)& (0+255),f,b
  2749   002786  D7FA               	bra	u6217
  2750   002788  D000               	nop2	
  2751   00278A  0EAC               	movlw	low _data
  2752   00278C  0100               	movlb	0	; () banked
  2753   00278E  6F8C               	movwf	sprintf@s& (0+255),b
  2754   002790  0EAE               	movlw	low STR_1
  2755   002792  6F8D               	movwf	sprintf@fmt& (0+255),b
  2756   002794  C056  F08E         	movff	_count1,?_sprintf+2
  2757   002798  C057  F08F         	movff	_count1+1,?_sprintf+3
  2758   00279C  C058  F090         	movff	_count1+2,?_sprintf+4
  2759   0027A0  C059  F091         	movff	_count1+3,?_sprintf+5
  2760   0027A4  EC36  F03A         	call	_sprintf	;wreg free
  2761   0027A8  0E00               	movlw	0
  2762   0027AA  6E0A               	movwf	LCD_String_xy@pos^0,c
  2763   0027AC  0E8C               	movlw	low STR_6
  2764   0027AE  6E0B               	movwf	LCD_String_xy@msg^0,c
  2765   0027B0  500B               	movf	LCD_String_xy@msg^0,w,c
  2766   0027B2  A4D8               	btfss	status,2,c
  2767   0027B4  0E20               	movlw	high __smallconst
  2768   0027B6  6E0C               	movwf	(LCD_String_xy@msg+1)^0,c
  2769   0027B8  0E01               	movlw	1
  2770   0027BA  ECFA  F039         	call	_LCD_String_xy
  2771   0027BE  0E04               	movlw	4
  2772   0027C0  6E0A               	movwf	LCD_String_xy@pos^0,c
  2773   0027C2  0EAC               	movlw	low _data
  2774   0027C4  6E0B               	movwf	LCD_String_xy@msg^0,c
  2775   0027C6  6A0C               	clrf	(LCD_String_xy@msg+1)^0,c
  2776   0027C8  0E02               	movlw	2
  2777   0027CA  ECFA  F039         	call	_LCD_String_xy
  2778   0027CE                     l5819:
  2779   0027CE  B0CE               	btfsc	206,0,c	;volatile
  2780   0027D0  EFEC  F013         	goto	u5571
  2781   0027D4  EFEE  F013         	goto	u5570
  2782   0027D8                     u5571:
  2783   0027D8  EF37  F014         	goto	l5831
  2784   0027DC                     u5570:
  2785   0027DC  C056  F028         	movff	_count1,___flsub@b
  2786   0027E0  C057  F029         	movff	_count1+1,___flsub@b+1
  2787   0027E4  C058  F02A         	movff	_count1+2,___flsub@b+2
  2788   0027E8  C059  F02B         	movff	_count1+3,___flsub@b+3
  2789   0027EC  0E00               	movlw	0
  2790   0027EE  6E2C               	movwf	___flsub@a^0,c
  2791   0027F0  0E00               	movlw	0
  2792   0027F2  6E2D               	movwf	(___flsub@a+1)^0,c
  2793   0027F4  0E80               	movlw	128
  2794   0027F6  6E2E               	movwf	(___flsub@a+2)^0,c
  2795   0027F8  0E3F               	movlw	63
  2796   0027FA  6E2F               	movwf	(___flsub@a+3)^0,c
  2797   0027FC  EC95  F039         	call	___flsub	;wreg free
  2798   002800  C028  F056         	movff	?___flsub,_count1
  2799   002804  C029  F057         	movff	?___flsub+1,_count1+1
  2800   002808  C02A  F058         	movff	?___flsub+2,_count1+2
  2801   00280C  C02B  F059         	movff	?___flsub+3,_count1+3
  2802   002810  0E02               	movlw	2
  2803   002812  0100               	movlb	0	; () banked
  2804   002814  6F93               	movwf	(??_main+1)& (0+255),b
  2805   002816  0E45               	movlw	69
  2806   002818  6F92               	movwf	??_main& (0+255),b
  2807   00281A  0EA9               	movlw	169
  2808   00281C                     u6227:
  2809   00281C  2EE8               	decfsz	wreg,f,c
  2810   00281E  D7FE               	bra	u6227
  2811   002820  2F92               	decfsz	??_main& (0+255),f,b
  2812   002822  D7FC               	bra	u6227
  2813   002824  2F93               	decfsz	(??_main+1)& (0+255),f,b
  2814   002826  D7FA               	bra	u6227
  2815   002828  D000               	nop2	
  2816   00282A  0EAC               	movlw	low _data
  2817   00282C  0100               	movlb	0	; () banked
  2818   00282E  6F8C               	movwf	sprintf@s& (0+255),b
  2819   002830  0EAE               	movlw	low STR_1
  2820   002832  6F8D               	movwf	sprintf@fmt& (0+255),b
  2821   002834  C056  F08E         	movff	_count1,?_sprintf+2
  2822   002838  C057  F08F         	movff	_count1+1,?_sprintf+3
  2823   00283C  C058  F090         	movff	_count1+2,?_sprintf+4
  2824   002840  C059  F091         	movff	_count1+3,?_sprintf+5
  2825   002844  EC36  F03A         	call	_sprintf	;wreg free
  2826   002848  0E00               	movlw	0
  2827   00284A  6E0A               	movwf	LCD_String_xy@pos^0,c
  2828   00284C  0E8C               	movlw	low STR_6
  2829   00284E  6E0B               	movwf	LCD_String_xy@msg^0,c
  2830   002850  500B               	movf	LCD_String_xy@msg^0,w,c
  2831   002852  A4D8               	btfss	status,2,c
  2832   002854  0E20               	movlw	high __smallconst
  2833   002856  6E0C               	movwf	(LCD_String_xy@msg+1)^0,c
  2834   002858  0E01               	movlw	1
  2835   00285A  ECFA  F039         	call	_LCD_String_xy
  2836   00285E  0E04               	movlw	4
  2837   002860  6E0A               	movwf	LCD_String_xy@pos^0,c
  2838   002862  0EAC               	movlw	low _data
  2839   002864  6E0B               	movwf	LCD_String_xy@msg^0,c
  2840   002866  6A0C               	clrf	(LCD_String_xy@msg+1)^0,c
  2841   002868  0E02               	movlw	2
  2842   00286A  ECFA  F039         	call	_LCD_String_xy
  2843   00286E                     l5831:
  2844   00286E  BCCD               	btfsc	205,6,c	;volatile
  2845   002870  EF3C  F014         	goto	u5581
  2846   002874  EF3E  F014         	goto	u5580
  2847   002878                     u5581:
  2848   002878  EF97  F013         	goto	l137
  2849   00287C                     u5580:
  2850   00287C  C05A  F001         	movff	_num,___xxtofl@val
  2851   002880  C05B  F002         	movff	_num+1,___xxtofl@val+1
  2852   002884  0E00               	movlw	0
  2853   002886  BE02               	btfsc	(___xxtofl@val+1)^0,7,c
  2854   002888  0EFF               	movlw	-1
  2855   00288A  6E03               	movwf	(___xxtofl@val+2)^0,c
  2856   00288C  6E04               	movwf	(___xxtofl@val+3)^0,c
  2857   00288E  0E01               	movlw	1
  2858   002890  ECFC  F032         	call	___xxtofl
  2859   002894  C001  F00F         	movff	?___xxtofl,___fleq@ff1
  2860   002898  C002  F010         	movff	?___xxtofl+1,___fleq@ff1+1
  2861   00289C  C003  F011         	movff	?___xxtofl+2,___fleq@ff1+2
  2862   0028A0  C004  F012         	movff	?___xxtofl+3,___fleq@ff1+3
  2863   0028A4  C056  F013         	movff	_count1,___fleq@ff2
  2864   0028A8  C057  F014         	movff	_count1+1,___fleq@ff2+1
  2865   0028AC  C058  F015         	movff	_count1+2,___fleq@ff2+2
  2866   0028B0  C059  F016         	movff	_count1+3,___fleq@ff2+3
  2867   0028B4  EC81  F037         	call	___fleq	;wreg free
  2868   0028B8  A0D8               	btfss	status,0,c
  2869   0028BA  EF61  F014         	goto	u5591
  2870   0028BE  EF63  F014         	goto	u5590
  2871   0028C2                     u5591:
  2872   0028C2  EF8D  F014         	goto	l5845
  2873   0028C6                     u5590:
  2874   0028C6  ECCD  F03A         	call	_LCD_Clear	;wreg free
  2875   0028CA  0E01               	movlw	1
  2876   0028CC  245C               	addwf	_count2^0,w,c
  2877   0028CE  6E5C               	movwf	_count2^0,c
  2878   0028D0  0E00               	movlw	0
  2879   0028D2  205D               	addwfc	(_count2+1)^0,w,c
  2880   0028D4  6E5D               	movwf	(_count2+1)^0,c
  2881   0028D6  0E00               	movlw	0
  2882   0028D8  6E0A               	movwf	LCD_String_xy@pos^0,c
  2883   0028DA  0E99               	movlw	low STR_12
  2884   0028DC  6E0B               	movwf	LCD_String_xy@msg^0,c
  2885   0028DE  500B               	movf	LCD_String_xy@msg^0,w,c
  2886   0028E0  A4D8               	btfss	status,2,c
  2887   0028E2  0E20               	movlw	high __smallconst
  2888   0028E4  6E0C               	movwf	(LCD_String_xy@msg+1)^0,c
  2889   0028E6  0E01               	movlw	1
  2890   0028E8  ECFA  F039         	call	_LCD_String_xy
  2891   0028EC  0E1A               	movlw	26
  2892   0028EE  0100               	movlb	0	; () banked
  2893   0028F0  6F93               	movwf	(??_main+1)& (0+255),b
  2894   0028F2  0E5E               	movlw	94
  2895   0028F4  6F92               	movwf	??_main& (0+255),b
  2896   0028F6  0E6E               	movlw	110
  2897   0028F8                     u6237:
  2898   0028F8  2EE8               	decfsz	wreg,f,c
  2899   0028FA  D7FE               	bra	u6237
  2900   0028FC  2F92               	decfsz	??_main& (0+255),f,b
  2901   0028FE  D7FC               	bra	u6237
  2902   002900  2F93               	decfsz	(??_main+1)& (0+255),f,b
  2903   002902  D7FA               	bra	u6237
  2904   002904  0000               	nop	
  2905   002906  0E00               	movlw	0
  2906   002908  6E56               	movwf	_count1^0,c
  2907   00290A  0E00               	movlw	0
  2908   00290C  6E57               	movwf	(_count1+1)^0,c
  2909   00290E  0E00               	movlw	0
  2910   002910  6E58               	movwf	(_count1+2)^0,c
  2911   002912  0E00               	movlw	0
  2912   002914  6E59               	movwf	(_count1+3)^0,c
  2913   002916  EFAF  F014         	goto	l5853
  2914   00291A                     l5845:
  2915   00291A  ECCD  F03A         	call	_LCD_Clear	;wreg free
  2916   00291E  0E00               	movlw	0
  2917   002920  6E0A               	movwf	LCD_String_xy@pos^0,c
  2918   002922  0E72               	movlw	low STR_13
  2919   002924  6E0B               	movwf	LCD_String_xy@msg^0,c
  2920   002926  500B               	movf	LCD_String_xy@msg^0,w,c
  2921   002928  A4D8               	btfss	status,2,c
  2922   00292A  0E20               	movlw	high __smallconst
  2923   00292C  6E0C               	movwf	(LCD_String_xy@msg+1)^0,c
  2924   00292E  0E01               	movlw	1
  2925   002930  ECFA  F039         	call	_LCD_String_xy
  2926   002934  0E1A               	movlw	26
  2927   002936  0100               	movlb	0	; () banked
  2928   002938  6F93               	movwf	(??_main+1)& (0+255),b
  2929   00293A  0E5E               	movlw	94
  2930   00293C  6F92               	movwf	??_main& (0+255),b
  2931   00293E  0E6E               	movlw	110
  2932   002940                     u6247:
  2933   002940  2EE8               	decfsz	wreg,f,c
  2934   002942  D7FE               	bra	u6247
  2935   002944  2F92               	decfsz	??_main& (0+255),f,b
  2936   002946  D7FC               	bra	u6247
  2937   002948  2F93               	decfsz	(??_main+1)& (0+255),f,b
  2938   00294A  D7FA               	bra	u6247
  2939   00294C  0000               	nop	
  2940   00294E  0E00               	movlw	0
  2941   002950  6E56               	movwf	_count1^0,c
  2942   002952  0E00               	movlw	0
  2943   002954  6E57               	movwf	(_count1+1)^0,c
  2944   002956  0E00               	movlw	0
  2945   002958  6E58               	movwf	(_count1+2)^0,c
  2946   00295A  0E00               	movlw	0
  2947   00295C  6E59               	movwf	(_count1+3)^0,c
  2948   00295E                     l5853:
  2949   00295E  ECCD  F03A         	call	_LCD_Clear	;wreg free
  2950   002962  0E00               	movlw	0
  2951   002964  6E0A               	movwf	LCD_String_xy@pos^0,c
  2952   002966  0E24               	movlw	low STR_14
  2953   002968  6E0B               	movwf	LCD_String_xy@msg^0,c
  2954   00296A  500B               	movf	LCD_String_xy@msg^0,w,c
  2955   00296C  A4D8               	btfss	status,2,c
  2956   00296E  0E20               	movlw	high __smallconst
  2957   002970  6E0C               	movwf	(LCD_String_xy@msg+1)^0,c
  2958   002972  0E01               	movlw	1
  2959   002974  ECFA  F039         	call	_LCD_String_xy
  2960   002978  0E06               	movlw	6
  2961   00297A  0100               	movlb	0	; () banked
  2962   00297C  6F93               	movwf	(??_main+1)& (0+255),b
  2963   00297E  0E13               	movlw	19
  2964   002980  6F92               	movwf	??_main& (0+255),b
  2965   002982  0EAD               	movlw	173
  2966   002984                     u6257:
  2967   002984  2EE8               	decfsz	wreg,f,c
  2968   002986  D7FE               	bra	u6257
  2969   002988  2F92               	decfsz	??_main& (0+255),f,b
  2970   00298A  D7FC               	bra	u6257
  2971   00298C  2F93               	decfsz	(??_main+1)& (0+255),f,b
  2972   00298E  D7FA               	bra	u6257
  2973   002990  D000               	nop2	
  2974   002992  0E00               	movlw	0
  2975   002994  6E0A               	movwf	LCD_String_xy@pos^0,c
  2976   002996  0E35               	movlw	low STR_15
  2977   002998  6E0B               	movwf	LCD_String_xy@msg^0,c
  2978   00299A  500B               	movf	LCD_String_xy@msg^0,w,c
  2979   00299C  A4D8               	btfss	status,2,c
  2980   00299E  0E20               	movlw	high __smallconst
  2981   0029A0  6E0C               	movwf	(LCD_String_xy@msg+1)^0,c
  2982   0029A2  0E01               	movlw	1
  2983   0029A4  ECFA  F039         	call	_LCD_String_xy
  2984   0029A8  0E06               	movlw	6
  2985   0029AA  0100               	movlb	0	; () banked
  2986   0029AC  6F93               	movwf	(??_main+1)& (0+255),b
  2987   0029AE  0E13               	movlw	19
  2988   0029B0  6F92               	movwf	??_main& (0+255),b
  2989   0029B2  0EAD               	movlw	173
  2990   0029B4                     u6267:
  2991   0029B4  2EE8               	decfsz	wreg,f,c
  2992   0029B6  D7FE               	bra	u6267
  2993   0029B8  2F92               	decfsz	??_main& (0+255),f,b
  2994   0029BA  D7FC               	bra	u6267
  2995   0029BC  2F93               	decfsz	(??_main+1)& (0+255),f,b
  2996   0029BE  D7FA               	bra	u6267
  2997   0029C0  D000               	nop2	
  2998   0029C2  0E00               	movlw	0
  2999   0029C4  6E0A               	movwf	LCD_String_xy@pos^0,c
  3000   0029C6  0E13               	movlw	low STR_16
  3001   0029C8  6E0B               	movwf	LCD_String_xy@msg^0,c
  3002   0029CA  500B               	movf	LCD_String_xy@msg^0,w,c
  3003   0029CC  A4D8               	btfss	status,2,c
  3004   0029CE  0E20               	movlw	high __smallconst
  3005   0029D0  6E0C               	movwf	(LCD_String_xy@msg+1)^0,c
  3006   0029D2  0E01               	movlw	1
  3007   0029D4  ECFA  F039         	call	_LCD_String_xy
  3008   0029D8  0E06               	movlw	6
  3009   0029DA  0100               	movlb	0	; () banked
  3010   0029DC  6F93               	movwf	(??_main+1)& (0+255),b
  3011   0029DE  0E13               	movlw	19
  3012   0029E0  6F92               	movwf	??_main& (0+255),b
  3013   0029E2  0EAD               	movlw	173
  3014   0029E4                     u6277:
  3015   0029E4  2EE8               	decfsz	wreg,f,c
  3016   0029E6  D7FE               	bra	u6277
  3017   0029E8  2F92               	decfsz	??_main& (0+255),f,b
  3018   0029EA  D7FC               	bra	u6277
  3019   0029EC  2F93               	decfsz	(??_main+1)& (0+255),f,b
  3020   0029EE  D7FA               	bra	u6277
  3021   0029F0  D000               	nop2	
  3022   0029F2  ECCD  F03A         	call	_LCD_Clear	;wreg free
  3023   0029F6  EC58  F038         	call	_rand	;wreg free
  3024   0029FA  0E0F               	movlw	15
  3025   0029FC  140D               	andwf	?_rand^0,w,c
  3026   0029FE  6E5A               	movwf	_num^0,c
  3027   002A00  6A5B               	clrf	(_num+1)^0,c
  3028   002A02  0060  F16B  FFCD   	movff	_num,16333	;volatile
  3029   002A08  0E41               	movlw	65
  3030   002A0A  0100               	movlb	0	; () banked
  3031   002A0C  6F92               	movwf	??_main& (0+255),b
  3032   002A0E  0EEE               	movlw	238
  3033   002A10                     u6287:
  3034   002A10  2EE8               	decfsz	wreg,f,c
  3035   002A12  D7FE               	bra	u6287
  3036   002A14  2F92               	decfsz	??_main& (0+255),f,b
  3037   002A16  D7FC               	bra	u6287
  3038   002A18  0000               	nop	
  3039   002A1A  6ACD               	clrf	205,c	;volatile
  3040   002A1C  0E82               	movlw	130
  3041   002A1E  0100               	movlb	0	; () banked
  3042   002A20  6F92               	movwf	??_main& (0+255),b
  3043   002A22  0EDD               	movlw	221
  3044   002A24                     u6297:
  3045   002A24  2EE8               	decfsz	wreg,f,c
  3046   002A26  D7FE               	bra	u6297
  3047   002A28  2F92               	decfsz	??_main& (0+255),f,b
  3048   002A2A  D7FC               	bra	u6297
  3049   002A2C  D000               	nop2	
  3050   002A2E  0E00               	movlw	0
  3051   002A30  6E0A               	movwf	LCD_String_xy@pos^0,c
  3052   002A32  0E8C               	movlw	low STR_6
  3053   002A34  6E0B               	movwf	LCD_String_xy@msg^0,c
  3054   002A36  500B               	movf	LCD_String_xy@msg^0,w,c
  3055   002A38  A4D8               	btfss	status,2,c
  3056   002A3A  0E20               	movlw	high __smallconst
  3057   002A3C  6E0C               	movwf	(LCD_String_xy@msg+1)^0,c
  3058   002A3E  0E01               	movlw	1
  3059   002A40  ECFA  F039         	call	_LCD_String_xy
  3060   002A44  0E04               	movlw	4
  3061   002A46  6E0A               	movwf	LCD_String_xy@pos^0,c
  3062   002A48  0EA9               	movlw	low STR_7
  3063   002A4A  6E0B               	movwf	LCD_String_xy@msg^0,c
  3064   002A4C  500B               	movf	LCD_String_xy@msg^0,w,c
  3065   002A4E  A4D8               	btfss	status,2,c
  3066   002A50  0E20               	movlw	high __smallconst
  3067   002A52  6E0C               	movwf	(LCD_String_xy@msg+1)^0,c
  3068   002A54  0E02               	movlw	2
  3069   002A56  ECFA  F039         	call	_LCD_String_xy
  3070   002A5A  EFCF  F015         	goto	l5905
  3071   002A5E                     l144:
  3072   002A5E  B2CE               	btfsc	206,1,c	;volatile
  3073   002A60  EF34  F015         	goto	u5601
  3074   002A64  EF36  F015         	goto	u5600
  3075   002A68                     u5601:
  3076   002A68  EF7F  F015         	goto	l5893
  3077   002A6C                     u5600:
  3078   002A6C  C056  F001         	movff	_count1,___fladd@b
  3079   002A70  C057  F002         	movff	_count1+1,___fladd@b+1
  3080   002A74  C058  F003         	movff	_count1+2,___fladd@b+2
  3081   002A78  C059  F004         	movff	_count1+3,___fladd@b+3
  3082   002A7C  0E00               	movlw	0
  3083   002A7E  6E05               	movwf	___fladd@a^0,c
  3084   002A80  0E00               	movlw	0
  3085   002A82  6E06               	movwf	(___fladd@a+1)^0,c
  3086   002A84  0E80               	movlw	128
  3087   002A86  6E07               	movwf	(___fladd@a+2)^0,c
  3088   002A88  0E3F               	movlw	63
  3089   002A8A  6E08               	movwf	(___fladd@a+3)^0,c
  3090   002A8C  EC48  F02A         	call	___fladd	;wreg free
  3091   002A90  C001  F056         	movff	?___fladd,_count1
  3092   002A94  C002  F057         	movff	?___fladd+1,_count1+1
  3093   002A98  C003  F058         	movff	?___fladd+2,_count1+2
  3094   002A9C  C004  F059         	movff	?___fladd+3,_count1+3
  3095   002AA0  0E02               	movlw	2
  3096   002AA2  0100               	movlb	0	; () banked
  3097   002AA4  6F93               	movwf	(??_main+1)& (0+255),b
  3098   002AA6  0E45               	movlw	69
  3099   002AA8  6F92               	movwf	??_main& (0+255),b
  3100   002AAA  0EA9               	movlw	169
  3101   002AAC                     u6307:
  3102   002AAC  2EE8               	decfsz	wreg,f,c
  3103   002AAE  D7FE               	bra	u6307
  3104   002AB0  2F92               	decfsz	??_main& (0+255),f,b
  3105   002AB2  D7FC               	bra	u6307
  3106   002AB4  2F93               	decfsz	(??_main+1)& (0+255),f,b
  3107   002AB6  D7FA               	bra	u6307
  3108   002AB8  D000               	nop2	
  3109   002ABA  0EAC               	movlw	low _data
  3110   002ABC  0100               	movlb	0	; () banked
  3111   002ABE  6F8C               	movwf	sprintf@s& (0+255),b
  3112   002AC0  0EAE               	movlw	low STR_1
  3113   002AC2  6F8D               	movwf	sprintf@fmt& (0+255),b
  3114   002AC4  C056  F08E         	movff	_count1,?_sprintf+2
  3115   002AC8  C057  F08F         	movff	_count1+1,?_sprintf+3
  3116   002ACC  C058  F090         	movff	_count1+2,?_sprintf+4
  3117   002AD0  C059  F091         	movff	_count1+3,?_sprintf+5
  3118   002AD4  EC36  F03A         	call	_sprintf	;wreg free
  3119   002AD8  0E00               	movlw	0
  3120   002ADA  6E0A               	movwf	LCD_String_xy@pos^0,c
  3121   002ADC  0E8C               	movlw	low STR_6
  3122   002ADE  6E0B               	movwf	LCD_String_xy@msg^0,c
  3123   002AE0  500B               	movf	LCD_String_xy@msg^0,w,c
  3124   002AE2  A4D8               	btfss	status,2,c
  3125   002AE4  0E20               	movlw	high __smallconst
  3126   002AE6  6E0C               	movwf	(LCD_String_xy@msg+1)^0,c
  3127   002AE8  0E01               	movlw	1
  3128   002AEA  ECFA  F039         	call	_LCD_String_xy
  3129   002AEE  0E04               	movlw	4
  3130   002AF0  6E0A               	movwf	LCD_String_xy@pos^0,c
  3131   002AF2  0EAC               	movlw	low _data
  3132   002AF4  6E0B               	movwf	LCD_String_xy@msg^0,c
  3133   002AF6  6A0C               	clrf	(LCD_String_xy@msg+1)^0,c
  3134   002AF8  0E02               	movlw	2
  3135   002AFA  ECFA  F039         	call	_LCD_String_xy
  3136   002AFE                     l5893:
  3137   002AFE  B0CE               	btfsc	206,0,c	;volatile
  3138   002B00  EF84  F015         	goto	u5611
  3139   002B04  EF86  F015         	goto	u5610
  3140   002B08                     u5611:
  3141   002B08  EFCF  F015         	goto	l5905
  3142   002B0C                     u5610:
  3143   002B0C  C056  F028         	movff	_count1,___flsub@b
  3144   002B10  C057  F029         	movff	_count1+1,___flsub@b+1
  3145   002B14  C058  F02A         	movff	_count1+2,___flsub@b+2
  3146   002B18  C059  F02B         	movff	_count1+3,___flsub@b+3
  3147   002B1C  0E00               	movlw	0
  3148   002B1E  6E2C               	movwf	___flsub@a^0,c
  3149   002B20  0E00               	movlw	0
  3150   002B22  6E2D               	movwf	(___flsub@a+1)^0,c
  3151   002B24  0E80               	movlw	128
  3152   002B26  6E2E               	movwf	(___flsub@a+2)^0,c
  3153   002B28  0E3F               	movlw	63
  3154   002B2A  6E2F               	movwf	(___flsub@a+3)^0,c
  3155   002B2C  EC95  F039         	call	___flsub	;wreg free
  3156   002B30  C028  F056         	movff	?___flsub,_count1
  3157   002B34  C029  F057         	movff	?___flsub+1,_count1+1
  3158   002B38  C02A  F058         	movff	?___flsub+2,_count1+2
  3159   002B3C  C02B  F059         	movff	?___flsub+3,_count1+3
  3160   002B40  0E02               	movlw	2
  3161   002B42  0100               	movlb	0	; () banked
  3162   002B44  6F93               	movwf	(??_main+1)& (0+255),b
  3163   002B46  0E45               	movlw	69
  3164   002B48  6F92               	movwf	??_main& (0+255),b
  3165   002B4A  0EA9               	movlw	169
  3166   002B4C                     u6317:
  3167   002B4C  2EE8               	decfsz	wreg,f,c
  3168   002B4E  D7FE               	bra	u6317
  3169   002B50  2F92               	decfsz	??_main& (0+255),f,b
  3170   002B52  D7FC               	bra	u6317
  3171   002B54  2F93               	decfsz	(??_main+1)& (0+255),f,b
  3172   002B56  D7FA               	bra	u6317
  3173   002B58  D000               	nop2	
  3174   002B5A  0EAC               	movlw	low _data
  3175   002B5C  0100               	movlb	0	; () banked
  3176   002B5E  6F8C               	movwf	sprintf@s& (0+255),b
  3177   002B60  0EAE               	movlw	low STR_1
  3178   002B62  6F8D               	movwf	sprintf@fmt& (0+255),b
  3179   002B64  C056  F08E         	movff	_count1,?_sprintf+2
  3180   002B68  C057  F08F         	movff	_count1+1,?_sprintf+3
  3181   002B6C  C058  F090         	movff	_count1+2,?_sprintf+4
  3182   002B70  C059  F091         	movff	_count1+3,?_sprintf+5
  3183   002B74  EC36  F03A         	call	_sprintf	;wreg free
  3184   002B78  0E00               	movlw	0
  3185   002B7A  6E0A               	movwf	LCD_String_xy@pos^0,c
  3186   002B7C  0E8C               	movlw	low STR_6
  3187   002B7E  6E0B               	movwf	LCD_String_xy@msg^0,c
  3188   002B80  500B               	movf	LCD_String_xy@msg^0,w,c
  3189   002B82  A4D8               	btfss	status,2,c
  3190   002B84  0E20               	movlw	high __smallconst
  3191   002B86  6E0C               	movwf	(LCD_String_xy@msg+1)^0,c
  3192   002B88  0E01               	movlw	1
  3193   002B8A  ECFA  F039         	call	_LCD_String_xy
  3194   002B8E  0E04               	movlw	4
  3195   002B90  6E0A               	movwf	LCD_String_xy@pos^0,c
  3196   002B92  0EAC               	movlw	low _data
  3197   002B94  6E0B               	movwf	LCD_String_xy@msg^0,c
  3198   002B96  6A0C               	clrf	(LCD_String_xy@msg+1)^0,c
  3199   002B98  0E02               	movlw	2
  3200   002B9A  ECFA  F039         	call	_LCD_String_xy
  3201   002B9E                     l5905:
  3202   002B9E  BCCD               	btfsc	205,6,c	;volatile
  3203   002BA0  EFD4  F015         	goto	u5621
  3204   002BA4  EFD6  F015         	goto	u5620
  3205   002BA8                     u5621:
  3206   002BA8  EF2F  F015         	goto	l144
  3207   002BAC                     u5620:
  3208   002BAC  C05A  F001         	movff	_num,___xxtofl@val
  3209   002BB0  C05B  F002         	movff	_num+1,___xxtofl@val+1
  3210   002BB4  0E00               	movlw	0
  3211   002BB6  BE02               	btfsc	(___xxtofl@val+1)^0,7,c
  3212   002BB8  0EFF               	movlw	-1
  3213   002BBA  6E03               	movwf	(___xxtofl@val+2)^0,c
  3214   002BBC  6E04               	movwf	(___xxtofl@val+3)^0,c
  3215   002BBE  0E01               	movlw	1
  3216   002BC0  ECFC  F032         	call	___xxtofl
  3217   002BC4  C001  F00F         	movff	?___xxtofl,___fleq@ff1
  3218   002BC8  C002  F010         	movff	?___xxtofl+1,___fleq@ff1+1
  3219   002BCC  C003  F011         	movff	?___xxtofl+2,___fleq@ff1+2
  3220   002BD0  C004  F012         	movff	?___xxtofl+3,___fleq@ff1+3
  3221   002BD4  C056  F013         	movff	_count1,___fleq@ff2
  3222   002BD8  C057  F014         	movff	_count1+1,___fleq@ff2+1
  3223   002BDC  C058  F015         	movff	_count1+2,___fleq@ff2+2
  3224   002BE0  C059  F016         	movff	_count1+3,___fleq@ff2+3
  3225   002BE4  EC81  F037         	call	___fleq	;wreg free
  3226   002BE8  A0D8               	btfss	status,0,c
  3227   002BEA  EFF9  F015         	goto	u5631
  3228   002BEE  EFFB  F015         	goto	u5630
  3229   002BF2                     u5631:
  3230   002BF2  EF25  F016         	goto	l5919
  3231   002BF6                     u5630:
  3232   002BF6  ECCD  F03A         	call	_LCD_Clear	;wreg free
  3233   002BFA  0E01               	movlw	1
  3234   002BFC  245C               	addwf	_count2^0,w,c
  3235   002BFE  6E5C               	movwf	_count2^0,c
  3236   002C00  0E00               	movlw	0
  3237   002C02  205D               	addwfc	(_count2+1)^0,w,c
  3238   002C04  6E5D               	movwf	(_count2+1)^0,c
  3239   002C06  0E00               	movlw	0
  3240   002C08  6E0A               	movwf	LCD_String_xy@pos^0,c
  3241   002C0A  0E99               	movlw	low STR_12
  3242   002C0C  6E0B               	movwf	LCD_String_xy@msg^0,c
  3243   002C0E  500B               	movf	LCD_String_xy@msg^0,w,c
  3244   002C10  A4D8               	btfss	status,2,c
  3245   002C12  0E20               	movlw	high __smallconst
  3246   002C14  6E0C               	movwf	(LCD_String_xy@msg+1)^0,c
  3247   002C16  0E01               	movlw	1
  3248   002C18  ECFA  F039         	call	_LCD_String_xy
  3249   002C1C  0E1A               	movlw	26
  3250   002C1E  0100               	movlb	0	; () banked
  3251   002C20  6F93               	movwf	(??_main+1)& (0+255),b
  3252   002C22  0E5E               	movlw	94
  3253   002C24  6F92               	movwf	??_main& (0+255),b
  3254   002C26  0E6E               	movlw	110
  3255   002C28                     u6327:
  3256   002C28  2EE8               	decfsz	wreg,f,c
  3257   002C2A  D7FE               	bra	u6327
  3258   002C2C  2F92               	decfsz	??_main& (0+255),f,b
  3259   002C2E  D7FC               	bra	u6327
  3260   002C30  2F93               	decfsz	(??_main+1)& (0+255),f,b
  3261   002C32  D7FA               	bra	u6327
  3262   002C34  0000               	nop	
  3263   002C36  0E00               	movlw	0
  3264   002C38  6E56               	movwf	_count1^0,c
  3265   002C3A  0E00               	movlw	0
  3266   002C3C  6E57               	movwf	(_count1+1)^0,c
  3267   002C3E  0E00               	movlw	0
  3268   002C40  6E58               	movwf	(_count1+2)^0,c
  3269   002C42  0E00               	movlw	0
  3270   002C44  6E59               	movwf	(_count1+3)^0,c
  3271   002C46  EF47  F016         	goto	l5927
  3272   002C4A                     l5919:
  3273   002C4A  ECCD  F03A         	call	_LCD_Clear	;wreg free
  3274   002C4E  0E00               	movlw	0
  3275   002C50  6E0A               	movwf	LCD_String_xy@pos^0,c
  3276   002C52  0E72               	movlw	low STR_13
  3277   002C54  6E0B               	movwf	LCD_String_xy@msg^0,c
  3278   002C56  500B               	movf	LCD_String_xy@msg^0,w,c
  3279   002C58  A4D8               	btfss	status,2,c
  3280   002C5A  0E20               	movlw	high __smallconst
  3281   002C5C  6E0C               	movwf	(LCD_String_xy@msg+1)^0,c
  3282   002C5E  0E01               	movlw	1
  3283   002C60  ECFA  F039         	call	_LCD_String_xy
  3284   002C64  0E1A               	movlw	26
  3285   002C66  0100               	movlb	0	; () banked
  3286   002C68  6F93               	movwf	(??_main+1)& (0+255),b
  3287   002C6A  0E5E               	movlw	94
  3288   002C6C  6F92               	movwf	??_main& (0+255),b
  3289   002C6E  0E6E               	movlw	110
  3290   002C70                     u6337:
  3291   002C70  2EE8               	decfsz	wreg,f,c
  3292   002C72  D7FE               	bra	u6337
  3293   002C74  2F92               	decfsz	??_main& (0+255),f,b
  3294   002C76  D7FC               	bra	u6337
  3295   002C78  2F93               	decfsz	(??_main+1)& (0+255),f,b
  3296   002C7A  D7FA               	bra	u6337
  3297   002C7C  0000               	nop	
  3298   002C7E  0E00               	movlw	0
  3299   002C80  6E56               	movwf	_count1^0,c
  3300   002C82  0E00               	movlw	0
  3301   002C84  6E57               	movwf	(_count1+1)^0,c
  3302   002C86  0E00               	movlw	0
  3303   002C88  6E58               	movwf	(_count1+2)^0,c
  3304   002C8A  0E00               	movlw	0
  3305   002C8C  6E59               	movwf	(_count1+3)^0,c
  3306   002C8E                     l5927:
  3307   002C8E  505C               	movf	_count2^0,w,c
  3308   002C90  105D               	iorwf	(_count2+1)^0,w,c
  3309   002C92  A4D8               	btfss	status,2,c
  3310   002C94  EF4E  F016         	goto	u5641
  3311   002C98  EF50  F016         	goto	u5640
  3312   002C9C                     u5641:
  3313   002C9C  EF75  F016         	goto	l5933
  3314   002CA0                     u5640:
  3315   002CA0  0E00               	movlw	0
  3316   002CA2  6E0A               	movwf	LCD_String_xy@pos^0,c
  3317   002CA4  0E7F               	movlw	low STR_36
  3318   002CA6  6E0B               	movwf	LCD_String_xy@msg^0,c
  3319   002CA8  500B               	movf	LCD_String_xy@msg^0,w,c
  3320   002CAA  A4D8               	btfss	status,2,c
  3321   002CAC  0E20               	movlw	high __smallconst
  3322   002CAE  6E0C               	movwf	(LCD_String_xy@msg+1)^0,c
  3323   002CB0  0E01               	movlw	1
  3324   002CB2  ECFA  F039         	call	_LCD_String_xy
  3325   002CB6  0E04               	movlw	4
  3326   002CB8  6E0A               	movwf	LCD_String_xy@pos^0,c
  3327   002CBA  0EBB               	movlw	low STR_37
  3328   002CBC  6E0B               	movwf	LCD_String_xy@msg^0,c
  3329   002CBE  500B               	movf	LCD_String_xy@msg^0,w,c
  3330   002CC0  A4D8               	btfss	status,2,c
  3331   002CC2  0E20               	movlw	high __smallconst
  3332   002CC4  6E0C               	movwf	(LCD_String_xy@msg+1)^0,c
  3333   002CC6  0E02               	movlw	2
  3334   002CC8  ECFA  F039         	call	_LCD_String_xy
  3335   002CCC                     l5931:
  3336   002CCC  0E1A               	movlw	26
  3337   002CCE  0100               	movlb	0	; () banked
  3338   002CD0  6F93               	movwf	(??_main+1)& (0+255),b
  3339   002CD2  0E5E               	movlw	94
  3340   002CD4  6F92               	movwf	??_main& (0+255),b
  3341   002CD6  0E6E               	movlw	110
  3342   002CD8                     u6347:
  3343   002CD8  2EE8               	decfsz	wreg,f,c
  3344   002CDA  D7FE               	bra	u6347
  3345   002CDC  2F92               	decfsz	??_main& (0+255),f,b
  3346   002CDE  D7FC               	bra	u6347
  3347   002CE0  2F93               	decfsz	(??_main+1)& (0+255),f,b
  3348   002CE2  D7FA               	bra	u6347
  3349   002CE4  0000               	nop	
  3350   002CE6  EF60  F010         	goto	l117
  3351   002CEA                     l5933:
  3352   002CEA  0EAC               	movlw	low _data
  3353   002CEC  0100               	movlb	0	; () banked
  3354   002CEE  6F8C               	movwf	sprintf@s& (0+255),b
  3355   002CF0  0EA3               	movlw	low STR_38
  3356   002CF2  6F8D               	movwf	sprintf@fmt& (0+255),b
  3357   002CF4  C05C  F08E         	movff	_count2,?_sprintf+2
  3358   002CF8  C05D  F08F         	movff	_count2+1,?_sprintf+3
  3359   002CFC  EC36  F03A         	call	_sprintf	;wreg free
  3360   002D00  0E00               	movlw	0
  3361   002D02  6E0A               	movwf	LCD_String_xy@pos^0,c
  3362   002D04  0E7F               	movlw	low STR_36
  3363   002D06  6E0B               	movwf	LCD_String_xy@msg^0,c
  3364   002D08  500B               	movf	LCD_String_xy@msg^0,w,c
  3365   002D0A  A4D8               	btfss	status,2,c
  3366   002D0C  0E20               	movlw	high __smallconst
  3367   002D0E  6E0C               	movwf	(LCD_String_xy@msg+1)^0,c
  3368   002D10  0E01               	movlw	1
  3369   002D12  ECFA  F039         	call	_LCD_String_xy
  3370   002D16  0EAC               	movlw	low _data
  3371   002D18  6E01               	movwf	strcat@dest^0,c
  3372   002D1A  0EBC               	movlw	low (STR_37+1)
  3373   002D1C  6E02               	movwf	strcat@src^0,c
  3374   002D1E  ECC4  F038         	call	_strcat	;wreg free
  3375   002D22  0E04               	movlw	4
  3376   002D24  6E0A               	movwf	LCD_String_xy@pos^0,c
  3377   002D26  0EAC               	movlw	low _data
  3378   002D28  6E0B               	movwf	LCD_String_xy@msg^0,c
  3379   002D2A  6A0C               	clrf	(LCD_String_xy@msg+1)^0,c
  3380   002D2C  0E02               	movlw	2
  3381   002D2E  ECFA  F039         	call	_LCD_String_xy
  3382   002D32  EF66  F016         	goto	l5931
  3383   002D36                     l5943:
  3384   002D36  C09C  F00F         	movff	_Difficulty,___fleq@ff1
  3385   002D3A  C09D  F010         	movff	_Difficulty+1,___fleq@ff1+1
  3386   002D3E  C09E  F011         	movff	_Difficulty+2,___fleq@ff1+2
  3387   002D42  C09F  F012         	movff	_Difficulty+3,___fleq@ff1+3
  3388   002D46  0E00               	movlw	0
  3389   002D48  6E13               	movwf	___fleq@ff2^0,c
  3390   002D4A  0E00               	movlw	0
  3391   002D4C  6E14               	movwf	(___fleq@ff2+1)^0,c
  3392   002D4E  0E40               	movlw	64
  3393   002D50  6E15               	movwf	(___fleq@ff2+2)^0,c
  3394   002D52  0E40               	movlw	64
  3395   002D54  6E16               	movwf	(___fleq@ff2+3)^0,c
  3396   002D56  EC81  F037         	call	___fleq	;wreg free
  3397   002D5A  A0D8               	btfss	status,0,c
  3398   002D5C  EFB2  F016         	goto	u5651
  3399   002D60  EFB4  F016         	goto	u5650
  3400   002D64                     u5651:
  3401   002D64  EF83  F01B         	goto	l6167
  3402   002D68                     u5650:
  3403   002D68  EC58  F038         	call	_rand	;wreg free
  3404   002D6C  0E0F               	movlw	15
  3405   002D6E  140D               	andwf	?_rand^0,w,c
  3406   002D70  6E5A               	movwf	_num^0,c
  3407   002D72  6A5B               	clrf	(_num+1)^0,c
  3408   002D74  0060  F16B  FFCD   	movff	_num,16333	;volatile
  3409   002D7A  0E06               	movlw	6
  3410   002D7C  0100               	movlb	0	; () banked
  3411   002D7E  6F93               	movwf	(??_main+1)& (0+255),b
  3412   002D80  0E13               	movlw	19
  3413   002D82  6F92               	movwf	??_main& (0+255),b
  3414   002D84  0EAD               	movlw	173
  3415   002D86                     u6357:
  3416   002D86  2EE8               	decfsz	wreg,f,c
  3417   002D88  D7FE               	bra	u6357
  3418   002D8A  2F92               	decfsz	??_main& (0+255),f,b
  3419   002D8C  D7FC               	bra	u6357
  3420   002D8E  2F93               	decfsz	(??_main+1)& (0+255),f,b
  3421   002D90  D7FA               	bra	u6357
  3422   002D92  D000               	nop2	
  3423   002D94  6ACD               	clrf	205,c	;volatile
  3424   002D96  0E82               	movlw	130
  3425   002D98  0100               	movlb	0	; () banked
  3426   002D9A  6F92               	movwf	??_main& (0+255),b
  3427   002D9C  0EDD               	movlw	221
  3428   002D9E                     u6367:
  3429   002D9E  2EE8               	decfsz	wreg,f,c
  3430   002DA0  D7FE               	bra	u6367
  3431   002DA2  2F92               	decfsz	??_main& (0+255),f,b
  3432   002DA4  D7FC               	bra	u6367
  3433   002DA6  D000               	nop2	
  3434   002DA8  0E00               	movlw	0
  3435   002DAA  6E0A               	movwf	LCD_String_xy@pos^0,c
  3436   002DAC  0E8C               	movlw	low STR_6
  3437   002DAE  6E0B               	movwf	LCD_String_xy@msg^0,c
  3438   002DB0  500B               	movf	LCD_String_xy@msg^0,w,c
  3439   002DB2  A4D8               	btfss	status,2,c
  3440   002DB4  0E20               	movlw	high __smallconst
  3441   002DB6  6E0C               	movwf	(LCD_String_xy@msg+1)^0,c
  3442   002DB8  0E01               	movlw	1
  3443   002DBA  ECFA  F039         	call	_LCD_String_xy
  3444   002DBE  0E04               	movlw	4
  3445   002DC0  6E0A               	movwf	LCD_String_xy@pos^0,c
  3446   002DC2  0EA9               	movlw	low STR_7
  3447   002DC4  6E0B               	movwf	LCD_String_xy@msg^0,c
  3448   002DC6  500B               	movf	LCD_String_xy@msg^0,w,c
  3449   002DC8  A4D8               	btfss	status,2,c
  3450   002DCA  0E20               	movlw	high __smallconst
  3451   002DCC  6E0C               	movwf	(LCD_String_xy@msg+1)^0,c
  3452   002DCE  0E02               	movlw	2
  3453   002DD0  ECFA  F039         	call	_LCD_String_xy
  3454   002DD4  EF8C  F017         	goto	l5981
  3455   002DD8                     l153:
  3456   002DD8  B2CE               	btfsc	206,1,c	;volatile
  3457   002DDA  EFF1  F016         	goto	u5661
  3458   002DDE  EFF3  F016         	goto	u5660
  3459   002DE2                     u5661:
  3460   002DE2  EF3C  F017         	goto	l5969
  3461   002DE6                     u5660:
  3462   002DE6  C056  F001         	movff	_count1,___fladd@b
  3463   002DEA  C057  F002         	movff	_count1+1,___fladd@b+1
  3464   002DEE  C058  F003         	movff	_count1+2,___fladd@b+2
  3465   002DF2  C059  F004         	movff	_count1+3,___fladd@b+3
  3466   002DF6  0E00               	movlw	0
  3467   002DF8  6E05               	movwf	___fladd@a^0,c
  3468   002DFA  0E00               	movlw	0
  3469   002DFC  6E06               	movwf	(___fladd@a+1)^0,c
  3470   002DFE  0E80               	movlw	128
  3471   002E00  6E07               	movwf	(___fladd@a+2)^0,c
  3472   002E02  0E3F               	movlw	63
  3473   002E04  6E08               	movwf	(___fladd@a+3)^0,c
  3474   002E06  EC48  F02A         	call	___fladd	;wreg free
  3475   002E0A  C001  F056         	movff	?___fladd,_count1
  3476   002E0E  C002  F057         	movff	?___fladd+1,_count1+1
  3477   002E12  C003  F058         	movff	?___fladd+2,_count1+2
  3478   002E16  C004  F059         	movff	?___fladd+3,_count1+3
  3479   002E1A  0E02               	movlw	2
  3480   002E1C  0100               	movlb	0	; () banked
  3481   002E1E  6F93               	movwf	(??_main+1)& (0+255),b
  3482   002E20  0E45               	movlw	69
  3483   002E22  6F92               	movwf	??_main& (0+255),b
  3484   002E24  0EA9               	movlw	169
  3485   002E26                     u6377:
  3486   002E26  2EE8               	decfsz	wreg,f,c
  3487   002E28  D7FE               	bra	u6377
  3488   002E2A  2F92               	decfsz	??_main& (0+255),f,b
  3489   002E2C  D7FC               	bra	u6377
  3490   002E2E  2F93               	decfsz	(??_main+1)& (0+255),f,b
  3491   002E30  D7FA               	bra	u6377
  3492   002E32  D000               	nop2	
  3493   002E34  0EAC               	movlw	low _data
  3494   002E36  0100               	movlb	0	; () banked
  3495   002E38  6F8C               	movwf	sprintf@s& (0+255),b
  3496   002E3A  0EAE               	movlw	low STR_1
  3497   002E3C  6F8D               	movwf	sprintf@fmt& (0+255),b
  3498   002E3E  C056  F08E         	movff	_count1,?_sprintf+2
  3499   002E42  C057  F08F         	movff	_count1+1,?_sprintf+3
  3500   002E46  C058  F090         	movff	_count1+2,?_sprintf+4
  3501   002E4A  C059  F091         	movff	_count1+3,?_sprintf+5
  3502   002E4E  EC36  F03A         	call	_sprintf	;wreg free
  3503   002E52  0E00               	movlw	0
  3504   002E54  6E0A               	movwf	LCD_String_xy@pos^0,c
  3505   002E56  0E8C               	movlw	low STR_6
  3506   002E58  6E0B               	movwf	LCD_String_xy@msg^0,c
  3507   002E5A  500B               	movf	LCD_String_xy@msg^0,w,c
  3508   002E5C  A4D8               	btfss	status,2,c
  3509   002E5E  0E20               	movlw	high __smallconst
  3510   002E60  6E0C               	movwf	(LCD_String_xy@msg+1)^0,c
  3511   002E62  0E01               	movlw	1
  3512   002E64  ECFA  F039         	call	_LCD_String_xy
  3513   002E68  0E04               	movlw	4
  3514   002E6A  6E0A               	movwf	LCD_String_xy@pos^0,c
  3515   002E6C  0EAC               	movlw	low _data
  3516   002E6E  6E0B               	movwf	LCD_String_xy@msg^0,c
  3517   002E70  6A0C               	clrf	(LCD_String_xy@msg+1)^0,c
  3518   002E72  0E02               	movlw	2
  3519   002E74  ECFA  F039         	call	_LCD_String_xy
  3520   002E78                     l5969:
  3521   002E78  B0CE               	btfsc	206,0,c	;volatile
  3522   002E7A  EF41  F017         	goto	u5671
  3523   002E7E  EF43  F017         	goto	u5670
  3524   002E82                     u5671:
  3525   002E82  EF8C  F017         	goto	l5981
  3526   002E86                     u5670:
  3527   002E86  C056  F028         	movff	_count1,___flsub@b
  3528   002E8A  C057  F029         	movff	_count1+1,___flsub@b+1
  3529   002E8E  C058  F02A         	movff	_count1+2,___flsub@b+2
  3530   002E92  C059  F02B         	movff	_count1+3,___flsub@b+3
  3531   002E96  0E00               	movlw	0
  3532   002E98  6E2C               	movwf	___flsub@a^0,c
  3533   002E9A  0E00               	movlw	0
  3534   002E9C  6E2D               	movwf	(___flsub@a+1)^0,c
  3535   002E9E  0E80               	movlw	128
  3536   002EA0  6E2E               	movwf	(___flsub@a+2)^0,c
  3537   002EA2  0E3F               	movlw	63
  3538   002EA4  6E2F               	movwf	(___flsub@a+3)^0,c
  3539   002EA6  EC95  F039         	call	___flsub	;wreg free
  3540   002EAA  C028  F056         	movff	?___flsub,_count1
  3541   002EAE  C029  F057         	movff	?___flsub+1,_count1+1
  3542   002EB2  C02A  F058         	movff	?___flsub+2,_count1+2
  3543   002EB6  C02B  F059         	movff	?___flsub+3,_count1+3
  3544   002EBA  0E02               	movlw	2
  3545   002EBC  0100               	movlb	0	; () banked
  3546   002EBE  6F93               	movwf	(??_main+1)& (0+255),b
  3547   002EC0  0E45               	movlw	69
  3548   002EC2  6F92               	movwf	??_main& (0+255),b
  3549   002EC4  0EA9               	movlw	169
  3550   002EC6                     u6387:
  3551   002EC6  2EE8               	decfsz	wreg,f,c
  3552   002EC8  D7FE               	bra	u6387
  3553   002ECA  2F92               	decfsz	??_main& (0+255),f,b
  3554   002ECC  D7FC               	bra	u6387
  3555   002ECE  2F93               	decfsz	(??_main+1)& (0+255),f,b
  3556   002ED0  D7FA               	bra	u6387
  3557   002ED2  D000               	nop2	
  3558   002ED4  0EAC               	movlw	low _data
  3559   002ED6  0100               	movlb	0	; () banked
  3560   002ED8  6F8C               	movwf	sprintf@s& (0+255),b
  3561   002EDA  0EAE               	movlw	low STR_1
  3562   002EDC  6F8D               	movwf	sprintf@fmt& (0+255),b
  3563   002EDE  C056  F08E         	movff	_count1,?_sprintf+2
  3564   002EE2  C057  F08F         	movff	_count1+1,?_sprintf+3
  3565   002EE6  C058  F090         	movff	_count1+2,?_sprintf+4
  3566   002EEA  C059  F091         	movff	_count1+3,?_sprintf+5
  3567   002EEE  EC36  F03A         	call	_sprintf	;wreg free
  3568   002EF2  0E00               	movlw	0
  3569   002EF4  6E0A               	movwf	LCD_String_xy@pos^0,c
  3570   002EF6  0E8C               	movlw	low STR_6
  3571   002EF8  6E0B               	movwf	LCD_String_xy@msg^0,c
  3572   002EFA  500B               	movf	LCD_String_xy@msg^0,w,c
  3573   002EFC  A4D8               	btfss	status,2,c
  3574   002EFE  0E20               	movlw	high __smallconst
  3575   002F00  6E0C               	movwf	(LCD_String_xy@msg+1)^0,c
  3576   002F02  0E01               	movlw	1
  3577   002F04  ECFA  F039         	call	_LCD_String_xy
  3578   002F08  0E04               	movlw	4
  3579   002F0A  6E0A               	movwf	LCD_String_xy@pos^0,c
  3580   002F0C  0EAC               	movlw	low _data
  3581   002F0E  6E0B               	movwf	LCD_String_xy@msg^0,c
  3582   002F10  6A0C               	clrf	(LCD_String_xy@msg+1)^0,c
  3583   002F12  0E02               	movlw	2
  3584   002F14  ECFA  F039         	call	_LCD_String_xy
  3585   002F18                     l5981:
  3586   002F18  BCCD               	btfsc	205,6,c	;volatile
  3587   002F1A  EF91  F017         	goto	u5681
  3588   002F1E  EF93  F017         	goto	u5680
  3589   002F22                     u5681:
  3590   002F22  EFEC  F016         	goto	l153
  3591   002F26                     u5680:
  3592   002F26  C05A  F001         	movff	_num,___xxtofl@val
  3593   002F2A  C05B  F002         	movff	_num+1,___xxtofl@val+1
  3594   002F2E  0E00               	movlw	0
  3595   002F30  BE02               	btfsc	(___xxtofl@val+1)^0,7,c
  3596   002F32  0EFF               	movlw	-1
  3597   002F34  6E03               	movwf	(___xxtofl@val+2)^0,c
  3598   002F36  6E04               	movwf	(___xxtofl@val+3)^0,c
  3599   002F38  0E01               	movlw	1
  3600   002F3A  ECFC  F032         	call	___xxtofl
  3601   002F3E  C001  F00F         	movff	?___xxtofl,___fleq@ff1
  3602   002F42  C002  F010         	movff	?___xxtofl+1,___fleq@ff1+1
  3603   002F46  C003  F011         	movff	?___xxtofl+2,___fleq@ff1+2
  3604   002F4A  C004  F012         	movff	?___xxtofl+3,___fleq@ff1+3
  3605   002F4E  C056  F013         	movff	_count1,___fleq@ff2
  3606   002F52  C057  F014         	movff	_count1+1,___fleq@ff2+1
  3607   002F56  C058  F015         	movff	_count1+2,___fleq@ff2+2
  3608   002F5A  C059  F016         	movff	_count1+3,___fleq@ff2+3
  3609   002F5E  EC81  F037         	call	___fleq	;wreg free
  3610   002F62  A0D8               	btfss	status,0,c
  3611   002F64  EFB6  F017         	goto	u5691
  3612   002F68  EFB8  F017         	goto	u5690
  3613   002F6C                     u5691:
  3614   002F6C  EFE2  F017         	goto	l5995
  3615   002F70                     u5690:
  3616   002F70  ECCD  F03A         	call	_LCD_Clear	;wreg free
  3617   002F74  0E01               	movlw	1
  3618   002F76  245C               	addwf	_count2^0,w,c
  3619   002F78  6E5C               	movwf	_count2^0,c
  3620   002F7A  0E00               	movlw	0
  3621   002F7C  205D               	addwfc	(_count2+1)^0,w,c
  3622   002F7E  6E5D               	movwf	(_count2+1)^0,c
  3623   002F80  0E00               	movlw	0
  3624   002F82  6E0A               	movwf	LCD_String_xy@pos^0,c
  3625   002F84  0E99               	movlw	low STR_12
  3626   002F86  6E0B               	movwf	LCD_String_xy@msg^0,c
  3627   002F88  500B               	movf	LCD_String_xy@msg^0,w,c
  3628   002F8A  A4D8               	btfss	status,2,c
  3629   002F8C  0E20               	movlw	high __smallconst
  3630   002F8E  6E0C               	movwf	(LCD_String_xy@msg+1)^0,c
  3631   002F90  0E01               	movlw	1
  3632   002F92  ECFA  F039         	call	_LCD_String_xy
  3633   002F96  0E1A               	movlw	26
  3634   002F98  0100               	movlb	0	; () banked
  3635   002F9A  6F93               	movwf	(??_main+1)& (0+255),b
  3636   002F9C  0E5E               	movlw	94
  3637   002F9E  6F92               	movwf	??_main& (0+255),b
  3638   002FA0  0E6E               	movlw	110
  3639   002FA2                     u6397:
  3640   002FA2  2EE8               	decfsz	wreg,f,c
  3641   002FA4  D7FE               	bra	u6397
  3642   002FA6  2F92               	decfsz	??_main& (0+255),f,b
  3643   002FA8  D7FC               	bra	u6397
  3644   002FAA  2F93               	decfsz	(??_main+1)& (0+255),f,b
  3645   002FAC  D7FA               	bra	u6397
  3646   002FAE  0000               	nop	
  3647   002FB0  0E00               	movlw	0
  3648   002FB2  6E56               	movwf	_count1^0,c
  3649   002FB4  0E00               	movlw	0
  3650   002FB6  6E57               	movwf	(_count1+1)^0,c
  3651   002FB8  0E00               	movlw	0
  3652   002FBA  6E58               	movwf	(_count1+2)^0,c
  3653   002FBC  0E00               	movlw	0
  3654   002FBE  6E59               	movwf	(_count1+3)^0,c
  3655   002FC0  EF04  F018         	goto	l6003
  3656   002FC4                     l5995:
  3657   002FC4  ECCD  F03A         	call	_LCD_Clear	;wreg free
  3658   002FC8  0E00               	movlw	0
  3659   002FCA  6E0A               	movwf	LCD_String_xy@pos^0,c
  3660   002FCC  0E72               	movlw	low STR_13
  3661   002FCE  6E0B               	movwf	LCD_String_xy@msg^0,c
  3662   002FD0  500B               	movf	LCD_String_xy@msg^0,w,c
  3663   002FD2  A4D8               	btfss	status,2,c
  3664   002FD4  0E20               	movlw	high __smallconst
  3665   002FD6  6E0C               	movwf	(LCD_String_xy@msg+1)^0,c
  3666   002FD8  0E01               	movlw	1
  3667   002FDA  ECFA  F039         	call	_LCD_String_xy
  3668   002FDE  0E1A               	movlw	26
  3669   002FE0  0100               	movlb	0	; () banked
  3670   002FE2  6F93               	movwf	(??_main+1)& (0+255),b
  3671   002FE4  0E5E               	movlw	94
  3672   002FE6  6F92               	movwf	??_main& (0+255),b
  3673   002FE8  0E6E               	movlw	110
  3674   002FEA                     u6407:
  3675   002FEA  2EE8               	decfsz	wreg,f,c
  3676   002FEC  D7FE               	bra	u6407
  3677   002FEE  2F92               	decfsz	??_main& (0+255),f,b
  3678   002FF0  D7FC               	bra	u6407
  3679   002FF2  2F93               	decfsz	(??_main+1)& (0+255),f,b
  3680   002FF4  D7FA               	bra	u6407
  3681   002FF6  0000               	nop	
  3682   002FF8  0E00               	movlw	0
  3683   002FFA  6E56               	movwf	_count1^0,c
  3684   002FFC  0E00               	movlw	0
  3685   002FFE  6E57               	movwf	(_count1+1)^0,c
  3686   003000  0E00               	movlw	0
  3687   003002  6E58               	movwf	(_count1+2)^0,c
  3688   003004  0E00               	movlw	0
  3689   003006  6E59               	movwf	(_count1+3)^0,c
  3690   003008                     l6003:
  3691   003008  ECCD  F03A         	call	_LCD_Clear	;wreg free
  3692   00300C  0E00               	movlw	0
  3693   00300E  6E0A               	movwf	LCD_String_xy@pos^0,c
  3694   003010  0E24               	movlw	low STR_14
  3695   003012  6E0B               	movwf	LCD_String_xy@msg^0,c
  3696   003014  500B               	movf	LCD_String_xy@msg^0,w,c
  3697   003016  A4D8               	btfss	status,2,c
  3698   003018  0E20               	movlw	high __smallconst
  3699   00301A  6E0C               	movwf	(LCD_String_xy@msg+1)^0,c
  3700   00301C  0E01               	movlw	1
  3701   00301E  ECFA  F039         	call	_LCD_String_xy
  3702   003022  0E06               	movlw	6
  3703   003024  0100               	movlb	0	; () banked
  3704   003026  6F93               	movwf	(??_main+1)& (0+255),b
  3705   003028  0E13               	movlw	19
  3706   00302A  6F92               	movwf	??_main& (0+255),b
  3707   00302C  0EAD               	movlw	173
  3708   00302E                     u6417:
  3709   00302E  2EE8               	decfsz	wreg,f,c
  3710   003030  D7FE               	bra	u6417
  3711   003032  2F92               	decfsz	??_main& (0+255),f,b
  3712   003034  D7FC               	bra	u6417
  3713   003036  2F93               	decfsz	(??_main+1)& (0+255),f,b
  3714   003038  D7FA               	bra	u6417
  3715   00303A  D000               	nop2	
  3716   00303C  0E00               	movlw	0
  3717   00303E  6E0A               	movwf	LCD_String_xy@pos^0,c
  3718   003040  0E35               	movlw	low STR_15
  3719   003042  6E0B               	movwf	LCD_String_xy@msg^0,c
  3720   003044  500B               	movf	LCD_String_xy@msg^0,w,c
  3721   003046  A4D8               	btfss	status,2,c
  3722   003048  0E20               	movlw	high __smallconst
  3723   00304A  6E0C               	movwf	(LCD_String_xy@msg+1)^0,c
  3724   00304C  0E01               	movlw	1
  3725   00304E  ECFA  F039         	call	_LCD_String_xy
  3726   003052  0E06               	movlw	6
  3727   003054  0100               	movlb	0	; () banked
  3728   003056  6F93               	movwf	(??_main+1)& (0+255),b
  3729   003058  0E13               	movlw	19
  3730   00305A  6F92               	movwf	??_main& (0+255),b
  3731   00305C  0EAD               	movlw	173
  3732   00305E                     u6427:
  3733   00305E  2EE8               	decfsz	wreg,f,c
  3734   003060  D7FE               	bra	u6427
  3735   003062  2F92               	decfsz	??_main& (0+255),f,b
  3736   003064  D7FC               	bra	u6427
  3737   003066  2F93               	decfsz	(??_main+1)& (0+255),f,b
  3738   003068  D7FA               	bra	u6427
  3739   00306A  D000               	nop2	
  3740   00306C  0E00               	movlw	0
  3741   00306E  6E0A               	movwf	LCD_String_xy@pos^0,c
  3742   003070  0E13               	movlw	low STR_16
  3743   003072  6E0B               	movwf	LCD_String_xy@msg^0,c
  3744   003074  500B               	movf	LCD_String_xy@msg^0,w,c
  3745   003076  A4D8               	btfss	status,2,c
  3746   003078  0E20               	movlw	high __smallconst
  3747   00307A  6E0C               	movwf	(LCD_String_xy@msg+1)^0,c
  3748   00307C  0E01               	movlw	1
  3749   00307E  ECFA  F039         	call	_LCD_String_xy
  3750   003082  0E06               	movlw	6
  3751   003084  0100               	movlb	0	; () banked
  3752   003086  6F93               	movwf	(??_main+1)& (0+255),b
  3753   003088  0E13               	movlw	19
  3754   00308A  6F92               	movwf	??_main& (0+255),b
  3755   00308C  0EAD               	movlw	173
  3756   00308E                     u6437:
  3757   00308E  2EE8               	decfsz	wreg,f,c
  3758   003090  D7FE               	bra	u6437
  3759   003092  2F92               	decfsz	??_main& (0+255),f,b
  3760   003094  D7FC               	bra	u6437
  3761   003096  2F93               	decfsz	(??_main+1)& (0+255),f,b
  3762   003098  D7FA               	bra	u6437
  3763   00309A  D000               	nop2	
  3764   00309C  ECCD  F03A         	call	_LCD_Clear	;wreg free
  3765   0030A0  EC58  F038         	call	_rand	;wreg free
  3766   0030A4  0E0F               	movlw	15
  3767   0030A6  140D               	andwf	?_rand^0,w,c
  3768   0030A8  6E5A               	movwf	_num^0,c
  3769   0030AA  6A5B               	clrf	(_num+1)^0,c
  3770   0030AC  0060  F16B  FFCD   	movff	_num,16333	;volatile
  3771   0030B2  0E03               	movlw	3
  3772   0030B4  0100               	movlb	0	; () banked
  3773   0030B6  6F93               	movwf	(??_main+1)& (0+255),b
  3774   0030B8  0E8A               	movlw	138
  3775   0030BA  6F92               	movwf	??_main& (0+255),b
  3776   0030BC  0E55               	movlw	85
  3777   0030BE                     u6447:
  3778   0030BE  2EE8               	decfsz	wreg,f,c
  3779   0030C0  D7FE               	bra	u6447
  3780   0030C2  2F92               	decfsz	??_main& (0+255),f,b
  3781   0030C4  D7FC               	bra	u6447
  3782   0030C6  2F93               	decfsz	(??_main+1)& (0+255),f,b
  3783   0030C8  D7FA               	bra	u6447
  3784   0030CA  D000               	nop2	
  3785   0030CC  6ACD               	clrf	205,c	;volatile
  3786   0030CE  0E82               	movlw	130
  3787   0030D0  0100               	movlb	0	; () banked
  3788   0030D2  6F92               	movwf	??_main& (0+255),b
  3789   0030D4  0EDD               	movlw	221
  3790   0030D6                     u6457:
  3791   0030D6  2EE8               	decfsz	wreg,f,c
  3792   0030D8  D7FE               	bra	u6457
  3793   0030DA  2F92               	decfsz	??_main& (0+255),f,b
  3794   0030DC  D7FC               	bra	u6457
  3795   0030DE  D000               	nop2	
  3796   0030E0  0E00               	movlw	0
  3797   0030E2  6E0A               	movwf	LCD_String_xy@pos^0,c
  3798   0030E4  0E8C               	movlw	low STR_6
  3799   0030E6  6E0B               	movwf	LCD_String_xy@msg^0,c
  3800   0030E8  500B               	movf	LCD_String_xy@msg^0,w,c
  3801   0030EA  A4D8               	btfss	status,2,c
  3802   0030EC  0E20               	movlw	high __smallconst
  3803   0030EE  6E0C               	movwf	(LCD_String_xy@msg+1)^0,c
  3804   0030F0  0E01               	movlw	1
  3805   0030F2  ECFA  F039         	call	_LCD_String_xy
  3806   0030F6  0E04               	movlw	4
  3807   0030F8  6E0A               	movwf	LCD_String_xy@pos^0,c
  3808   0030FA  0EA9               	movlw	low STR_7
  3809   0030FC  6E0B               	movwf	LCD_String_xy@msg^0,c
  3810   0030FE  500B               	movf	LCD_String_xy@msg^0,w,c
  3811   003100  A4D8               	btfss	status,2,c
  3812   003102  0E20               	movlw	high __smallconst
  3813   003104  6E0C               	movwf	(LCD_String_xy@msg+1)^0,c
  3814   003106  0E02               	movlw	2
  3815   003108  ECFA  F039         	call	_LCD_String_xy
  3816   00310C  EF28  F019         	goto	l6055
  3817   003110                     l160:
  3818   003110  B2CE               	btfsc	206,1,c	;volatile
  3819   003112  EF8D  F018         	goto	u5701
  3820   003116  EF8F  F018         	goto	u5700
  3821   00311A                     u5701:
  3822   00311A  EFD8  F018         	goto	l6043
  3823   00311E                     u5700:
  3824   00311E  C056  F001         	movff	_count1,___fladd@b
  3825   003122  C057  F002         	movff	_count1+1,___fladd@b+1
  3826   003126  C058  F003         	movff	_count1+2,___fladd@b+2
  3827   00312A  C059  F004         	movff	_count1+3,___fladd@b+3
  3828   00312E  0E00               	movlw	0
  3829   003130  6E05               	movwf	___fladd@a^0,c
  3830   003132  0E00               	movlw	0
  3831   003134  6E06               	movwf	(___fladd@a+1)^0,c
  3832   003136  0E80               	movlw	128
  3833   003138  6E07               	movwf	(___fladd@a+2)^0,c
  3834   00313A  0E3F               	movlw	63
  3835   00313C  6E08               	movwf	(___fladd@a+3)^0,c
  3836   00313E  EC48  F02A         	call	___fladd	;wreg free
  3837   003142  C001  F056         	movff	?___fladd,_count1
  3838   003146  C002  F057         	movff	?___fladd+1,_count1+1
  3839   00314A  C003  F058         	movff	?___fladd+2,_count1+2
  3840   00314E  C004  F059         	movff	?___fladd+3,_count1+3
  3841   003152  0E02               	movlw	2
  3842   003154  0100               	movlb	0	; () banked
  3843   003156  6F93               	movwf	(??_main+1)& (0+255),b
  3844   003158  0E45               	movlw	69
  3845   00315A  6F92               	movwf	??_main& (0+255),b
  3846   00315C  0EA9               	movlw	169
  3847   00315E                     u6467:
  3848   00315E  2EE8               	decfsz	wreg,f,c
  3849   003160  D7FE               	bra	u6467
  3850   003162  2F92               	decfsz	??_main& (0+255),f,b
  3851   003164  D7FC               	bra	u6467
  3852   003166  2F93               	decfsz	(??_main+1)& (0+255),f,b
  3853   003168  D7FA               	bra	u6467
  3854   00316A  D000               	nop2	
  3855   00316C  0EAC               	movlw	low _data
  3856   00316E  0100               	movlb	0	; () banked
  3857   003170  6F8C               	movwf	sprintf@s& (0+255),b
  3858   003172  0EAE               	movlw	low STR_1
  3859   003174  6F8D               	movwf	sprintf@fmt& (0+255),b
  3860   003176  C056  F08E         	movff	_count1,?_sprintf+2
  3861   00317A  C057  F08F         	movff	_count1+1,?_sprintf+3
  3862   00317E  C058  F090         	movff	_count1+2,?_sprintf+4
  3863   003182  C059  F091         	movff	_count1+3,?_sprintf+5
  3864   003186  EC36  F03A         	call	_sprintf	;wreg free
  3865   00318A  0E00               	movlw	0
  3866   00318C  6E0A               	movwf	LCD_String_xy@pos^0,c
  3867   00318E  0E8C               	movlw	low STR_6
  3868   003190  6E0B               	movwf	LCD_String_xy@msg^0,c
  3869   003192  500B               	movf	LCD_String_xy@msg^0,w,c
  3870   003194  A4D8               	btfss	status,2,c
  3871   003196  0E20               	movlw	high __smallconst
  3872   003198  6E0C               	movwf	(LCD_String_xy@msg+1)^0,c
  3873   00319A  0E01               	movlw	1
  3874   00319C  ECFA  F039         	call	_LCD_String_xy
  3875   0031A0  0E04               	movlw	4
  3876   0031A2  6E0A               	movwf	LCD_String_xy@pos^0,c
  3877   0031A4  0EAC               	movlw	low _data
  3878   0031A6  6E0B               	movwf	LCD_String_xy@msg^0,c
  3879   0031A8  6A0C               	clrf	(LCD_String_xy@msg+1)^0,c
  3880   0031AA  0E02               	movlw	2
  3881   0031AC  ECFA  F039         	call	_LCD_String_xy
  3882   0031B0                     l6043:
  3883   0031B0  B0CE               	btfsc	206,0,c	;volatile
  3884   0031B2  EFDD  F018         	goto	u5711
  3885   0031B6  EFDF  F018         	goto	u5710
  3886   0031BA                     u5711:
  3887   0031BA  EF28  F019         	goto	l6055
  3888   0031BE                     u5710:
  3889   0031BE  C056  F028         	movff	_count1,___flsub@b
  3890   0031C2  C057  F029         	movff	_count1+1,___flsub@b+1
  3891   0031C6  C058  F02A         	movff	_count1+2,___flsub@b+2
  3892   0031CA  C059  F02B         	movff	_count1+3,___flsub@b+3
  3893   0031CE  0E00               	movlw	0
  3894   0031D0  6E2C               	movwf	___flsub@a^0,c
  3895   0031D2  0E00               	movlw	0
  3896   0031D4  6E2D               	movwf	(___flsub@a+1)^0,c
  3897   0031D6  0E80               	movlw	128
  3898   0031D8  6E2E               	movwf	(___flsub@a+2)^0,c
  3899   0031DA  0E3F               	movlw	63
  3900   0031DC  6E2F               	movwf	(___flsub@a+3)^0,c
  3901   0031DE  EC95  F039         	call	___flsub	;wreg free
  3902   0031E2  C028  F056         	movff	?___flsub,_count1
  3903   0031E6  C029  F057         	movff	?___flsub+1,_count1+1
  3904   0031EA  C02A  F058         	movff	?___flsub+2,_count1+2
  3905   0031EE  C02B  F059         	movff	?___flsub+3,_count1+3
  3906   0031F2  0E02               	movlw	2
  3907   0031F4  0100               	movlb	0	; () banked
  3908   0031F6  6F93               	movwf	(??_main+1)& (0+255),b
  3909   0031F8  0E45               	movlw	69
  3910   0031FA  6F92               	movwf	??_main& (0+255),b
  3911   0031FC  0EA9               	movlw	169
  3912   0031FE                     u6477:
  3913   0031FE  2EE8               	decfsz	wreg,f,c
  3914   003200  D7FE               	bra	u6477
  3915   003202  2F92               	decfsz	??_main& (0+255),f,b
  3916   003204  D7FC               	bra	u6477
  3917   003206  2F93               	decfsz	(??_main+1)& (0+255),f,b
  3918   003208  D7FA               	bra	u6477
  3919   00320A  D000               	nop2	
  3920   00320C  0EAC               	movlw	low _data
  3921   00320E  0100               	movlb	0	; () banked
  3922   003210  6F8C               	movwf	sprintf@s& (0+255),b
  3923   003212  0EAE               	movlw	low STR_1
  3924   003214  6F8D               	movwf	sprintf@fmt& (0+255),b
  3925   003216  C056  F08E         	movff	_count1,?_sprintf+2
  3926   00321A  C057  F08F         	movff	_count1+1,?_sprintf+3
  3927   00321E  C058  F090         	movff	_count1+2,?_sprintf+4
  3928   003222  C059  F091         	movff	_count1+3,?_sprintf+5
  3929   003226  EC36  F03A         	call	_sprintf	;wreg free
  3930   00322A  0E00               	movlw	0
  3931   00322C  6E0A               	movwf	LCD_String_xy@pos^0,c
  3932   00322E  0E8C               	movlw	low STR_6
  3933   003230  6E0B               	movwf	LCD_String_xy@msg^0,c
  3934   003232  500B               	movf	LCD_String_xy@msg^0,w,c
  3935   003234  A4D8               	btfss	status,2,c
  3936   003236  0E20               	movlw	high __smallconst
  3937   003238  6E0C               	movwf	(LCD_String_xy@msg+1)^0,c
  3938   00323A  0E01               	movlw	1
  3939   00323C  ECFA  F039         	call	_LCD_String_xy
  3940   003240  0E04               	movlw	4
  3941   003242  6E0A               	movwf	LCD_String_xy@pos^0,c
  3942   003244  0EAC               	movlw	low _data
  3943   003246  6E0B               	movwf	LCD_String_xy@msg^0,c
  3944   003248  6A0C               	clrf	(LCD_String_xy@msg+1)^0,c
  3945   00324A  0E02               	movlw	2
  3946   00324C  ECFA  F039         	call	_LCD_String_xy
  3947   003250                     l6055:
  3948   003250  BCCD               	btfsc	205,6,c	;volatile
  3949   003252  EF2D  F019         	goto	u5721
  3950   003256  EF2F  F019         	goto	u5720
  3951   00325A                     u5721:
  3952   00325A  EF88  F018         	goto	l160
  3953   00325E                     u5720:
  3954   00325E  C05A  F001         	movff	_num,___xxtofl@val
  3955   003262  C05B  F002         	movff	_num+1,___xxtofl@val+1
  3956   003266  0E00               	movlw	0
  3957   003268  BE02               	btfsc	(___xxtofl@val+1)^0,7,c
  3958   00326A  0EFF               	movlw	-1
  3959   00326C  6E03               	movwf	(___xxtofl@val+2)^0,c
  3960   00326E  6E04               	movwf	(___xxtofl@val+3)^0,c
  3961   003270  0E01               	movlw	1
  3962   003272  ECFC  F032         	call	___xxtofl
  3963   003276  C001  F00F         	movff	?___xxtofl,___fleq@ff1
  3964   00327A  C002  F010         	movff	?___xxtofl+1,___fleq@ff1+1
  3965   00327E  C003  F011         	movff	?___xxtofl+2,___fleq@ff1+2
  3966   003282  C004  F012         	movff	?___xxtofl+3,___fleq@ff1+3
  3967   003286  C056  F013         	movff	_count1,___fleq@ff2
  3968   00328A  C057  F014         	movff	_count1+1,___fleq@ff2+1
  3969   00328E  C058  F015         	movff	_count1+2,___fleq@ff2+2
  3970   003292  C059  F016         	movff	_count1+3,___fleq@ff2+3
  3971   003296  EC81  F037         	call	___fleq	;wreg free
  3972   00329A  A0D8               	btfss	status,0,c
  3973   00329C  EF52  F019         	goto	u5731
  3974   0032A0  EF54  F019         	goto	u5730
  3975   0032A4                     u5731:
  3976   0032A4  EF7E  F019         	goto	l6069
  3977   0032A8                     u5730:
  3978   0032A8  ECCD  F03A         	call	_LCD_Clear	;wreg free
  3979   0032AC  0E01               	movlw	1
  3980   0032AE  245C               	addwf	_count2^0,w,c
  3981   0032B0  6E5C               	movwf	_count2^0,c
  3982   0032B2  0E00               	movlw	0
  3983   0032B4  205D               	addwfc	(_count2+1)^0,w,c
  3984   0032B6  6E5D               	movwf	(_count2+1)^0,c
  3985   0032B8  0E00               	movlw	0
  3986   0032BA  6E0A               	movwf	LCD_String_xy@pos^0,c
  3987   0032BC  0E99               	movlw	low STR_12
  3988   0032BE  6E0B               	movwf	LCD_String_xy@msg^0,c
  3989   0032C0  500B               	movf	LCD_String_xy@msg^0,w,c
  3990   0032C2  A4D8               	btfss	status,2,c
  3991   0032C4  0E20               	movlw	high __smallconst
  3992   0032C6  6E0C               	movwf	(LCD_String_xy@msg+1)^0,c
  3993   0032C8  0E01               	movlw	1
  3994   0032CA  ECFA  F039         	call	_LCD_String_xy
  3995   0032CE  0E1A               	movlw	26
  3996   0032D0  0100               	movlb	0	; () banked
  3997   0032D2  6F93               	movwf	(??_main+1)& (0+255),b
  3998   0032D4  0E5E               	movlw	94
  3999   0032D6  6F92               	movwf	??_main& (0+255),b
  4000   0032D8  0E6E               	movlw	110
  4001   0032DA                     u6487:
  4002   0032DA  2EE8               	decfsz	wreg,f,c
  4003   0032DC  D7FE               	bra	u6487
  4004   0032DE  2F92               	decfsz	??_main& (0+255),f,b
  4005   0032E0  D7FC               	bra	u6487
  4006   0032E2  2F93               	decfsz	(??_main+1)& (0+255),f,b
  4007   0032E4  D7FA               	bra	u6487
  4008   0032E6  0000               	nop	
  4009   0032E8  0E00               	movlw	0
  4010   0032EA  6E56               	movwf	_count1^0,c
  4011   0032EC  0E00               	movlw	0
  4012   0032EE  6E57               	movwf	(_count1+1)^0,c
  4013   0032F0  0E00               	movlw	0
  4014   0032F2  6E58               	movwf	(_count1+2)^0,c
  4015   0032F4  0E00               	movlw	0
  4016   0032F6  6E59               	movwf	(_count1+3)^0,c
  4017   0032F8  EFA0  F019         	goto	l6077
  4018   0032FC                     l6069:
  4019   0032FC  ECCD  F03A         	call	_LCD_Clear	;wreg free
  4020   003300  0E00               	movlw	0
  4021   003302  6E0A               	movwf	LCD_String_xy@pos^0,c
  4022   003304  0E72               	movlw	low STR_13
  4023   003306  6E0B               	movwf	LCD_String_xy@msg^0,c
  4024   003308  500B               	movf	LCD_String_xy@msg^0,w,c
  4025   00330A  A4D8               	btfss	status,2,c
  4026   00330C  0E20               	movlw	high __smallconst
  4027   00330E  6E0C               	movwf	(LCD_String_xy@msg+1)^0,c
  4028   003310  0E01               	movlw	1
  4029   003312  ECFA  F039         	call	_LCD_String_xy
  4030   003316  0E1A               	movlw	26
  4031   003318  0100               	movlb	0	; () banked
  4032   00331A  6F93               	movwf	(??_main+1)& (0+255),b
  4033   00331C  0E5E               	movlw	94
  4034   00331E  6F92               	movwf	??_main& (0+255),b
  4035   003320  0E6E               	movlw	110
  4036   003322                     u6497:
  4037   003322  2EE8               	decfsz	wreg,f,c
  4038   003324  D7FE               	bra	u6497
  4039   003326  2F92               	decfsz	??_main& (0+255),f,b
  4040   003328  D7FC               	bra	u6497
  4041   00332A  2F93               	decfsz	(??_main+1)& (0+255),f,b
  4042   00332C  D7FA               	bra	u6497
  4043   00332E  0000               	nop	
  4044   003330  0E00               	movlw	0
  4045   003332  6E56               	movwf	_count1^0,c
  4046   003334  0E00               	movlw	0
  4047   003336  6E57               	movwf	(_count1+1)^0,c
  4048   003338  0E00               	movlw	0
  4049   00333A  6E58               	movwf	(_count1+2)^0,c
  4050   00333C  0E00               	movlw	0
  4051   00333E  6E59               	movwf	(_count1+3)^0,c
  4052   003340                     l6077:
  4053   003340  ECCD  F03A         	call	_LCD_Clear	;wreg free
  4054   003344  0E00               	movlw	0
  4055   003346  6E0A               	movwf	LCD_String_xy@pos^0,c
  4056   003348  0E24               	movlw	low STR_14
  4057   00334A  6E0B               	movwf	LCD_String_xy@msg^0,c
  4058   00334C  500B               	movf	LCD_String_xy@msg^0,w,c
  4059   00334E  A4D8               	btfss	status,2,c
  4060   003350  0E20               	movlw	high __smallconst
  4061   003352  6E0C               	movwf	(LCD_String_xy@msg+1)^0,c
  4062   003354  0E01               	movlw	1
  4063   003356  ECFA  F039         	call	_LCD_String_xy
  4064   00335A  0E06               	movlw	6
  4065   00335C  0100               	movlb	0	; () banked
  4066   00335E  6F93               	movwf	(??_main+1)& (0+255),b
  4067   003360  0E13               	movlw	19
  4068   003362  6F92               	movwf	??_main& (0+255),b
  4069   003364  0EAD               	movlw	173
  4070   003366                     u6507:
  4071   003366  2EE8               	decfsz	wreg,f,c
  4072   003368  D7FE               	bra	u6507
  4073   00336A  2F92               	decfsz	??_main& (0+255),f,b
  4074   00336C  D7FC               	bra	u6507
  4075   00336E  2F93               	decfsz	(??_main+1)& (0+255),f,b
  4076   003370  D7FA               	bra	u6507
  4077   003372  D000               	nop2	
  4078   003374  0E00               	movlw	0
  4079   003376  6E0A               	movwf	LCD_String_xy@pos^0,c
  4080   003378  0E35               	movlw	low STR_15
  4081   00337A  6E0B               	movwf	LCD_String_xy@msg^0,c
  4082   00337C  500B               	movf	LCD_String_xy@msg^0,w,c
  4083   00337E  A4D8               	btfss	status,2,c
  4084   003380  0E20               	movlw	high __smallconst
  4085   003382  6E0C               	movwf	(LCD_String_xy@msg+1)^0,c
  4086   003384  0E01               	movlw	1
  4087   003386  ECFA  F039         	call	_LCD_String_xy
  4088   00338A  0E06               	movlw	6
  4089   00338C  0100               	movlb	0	; () banked
  4090   00338E  6F93               	movwf	(??_main+1)& (0+255),b
  4091   003390  0E13               	movlw	19
  4092   003392  6F92               	movwf	??_main& (0+255),b
  4093   003394  0EAD               	movlw	173
  4094   003396                     u6517:
  4095   003396  2EE8               	decfsz	wreg,f,c
  4096   003398  D7FE               	bra	u6517
  4097   00339A  2F92               	decfsz	??_main& (0+255),f,b
  4098   00339C  D7FC               	bra	u6517
  4099   00339E  2F93               	decfsz	(??_main+1)& (0+255),f,b
  4100   0033A0  D7FA               	bra	u6517
  4101   0033A2  D000               	nop2	
  4102   0033A4  0E00               	movlw	0
  4103   0033A6  6E0A               	movwf	LCD_String_xy@pos^0,c
  4104   0033A8  0E13               	movlw	low STR_16
  4105   0033AA  6E0B               	movwf	LCD_String_xy@msg^0,c
  4106   0033AC  500B               	movf	LCD_String_xy@msg^0,w,c
  4107   0033AE  A4D8               	btfss	status,2,c
  4108   0033B0  0E20               	movlw	high __smallconst
  4109   0033B2  6E0C               	movwf	(LCD_String_xy@msg+1)^0,c
  4110   0033B4  0E01               	movlw	1
  4111   0033B6  ECFA  F039         	call	_LCD_String_xy
  4112   0033BA  0E06               	movlw	6
  4113   0033BC  0100               	movlb	0	; () banked
  4114   0033BE  6F93               	movwf	(??_main+1)& (0+255),b
  4115   0033C0  0E13               	movlw	19
  4116   0033C2  6F92               	movwf	??_main& (0+255),b
  4117   0033C4  0EAD               	movlw	173
  4118   0033C6                     u6527:
  4119   0033C6  2EE8               	decfsz	wreg,f,c
  4120   0033C8  D7FE               	bra	u6527
  4121   0033CA  2F92               	decfsz	??_main& (0+255),f,b
  4122   0033CC  D7FC               	bra	u6527
  4123   0033CE  2F93               	decfsz	(??_main+1)& (0+255),f,b
  4124   0033D0  D7FA               	bra	u6527
  4125   0033D2  D000               	nop2	
  4126   0033D4  ECCD  F03A         	call	_LCD_Clear	;wreg free
  4127   0033D8  EC58  F038         	call	_rand	;wreg free
  4128   0033DC  0E0F               	movlw	15
  4129   0033DE  140D               	andwf	?_rand^0,w,c
  4130   0033E0  6E5A               	movwf	_num^0,c
  4131   0033E2  6A5B               	clrf	(_num+1)^0,c
  4132   0033E4  0060  F16B  FFCD   	movff	_num,16333	;volatile
  4133   0033EA  0E02               	movlw	2
  4134   0033EC  0100               	movlb	0	; () banked
  4135   0033EE  6F93               	movwf	(??_main+1)& (0+255),b
  4136   0033F0  0E45               	movlw	69
  4137   0033F2  6F92               	movwf	??_main& (0+255),b
  4138   0033F4  0EA9               	movlw	169
  4139   0033F6                     u6537:
  4140   0033F6  2EE8               	decfsz	wreg,f,c
  4141   0033F8  D7FE               	bra	u6537
  4142   0033FA  2F92               	decfsz	??_main& (0+255),f,b
  4143   0033FC  D7FC               	bra	u6537
  4144   0033FE  2F93               	decfsz	(??_main+1)& (0+255),f,b
  4145   003400  D7FA               	bra	u6537
  4146   003402  D000               	nop2	
  4147   003404  6ACD               	clrf	205,c	;volatile
  4148   003406  0E82               	movlw	130
  4149   003408  0100               	movlb	0	; () banked
  4150   00340A  6F92               	movwf	??_main& (0+255),b
  4151   00340C  0EDD               	movlw	221
  4152   00340E                     u6547:
  4153   00340E  2EE8               	decfsz	wreg,f,c
  4154   003410  D7FE               	bra	u6547
  4155   003412  2F92               	decfsz	??_main& (0+255),f,b
  4156   003414  D7FC               	bra	u6547
  4157   003416  D000               	nop2	
  4158   003418  0E00               	movlw	0
  4159   00341A  6E0A               	movwf	LCD_String_xy@pos^0,c
  4160   00341C  0E8C               	movlw	low STR_6
  4161   00341E  6E0B               	movwf	LCD_String_xy@msg^0,c
  4162   003420  500B               	movf	LCD_String_xy@msg^0,w,c
  4163   003422  A4D8               	btfss	status,2,c
  4164   003424  0E20               	movlw	high __smallconst
  4165   003426  6E0C               	movwf	(LCD_String_xy@msg+1)^0,c
  4166   003428  0E01               	movlw	1
  4167   00342A  ECFA  F039         	call	_LCD_String_xy
  4168   00342E  0E04               	movlw	4
  4169   003430  6E0A               	movwf	LCD_String_xy@pos^0,c
  4170   003432  0EA9               	movlw	low STR_7
  4171   003434  6E0B               	movwf	LCD_String_xy@msg^0,c
  4172   003436  500B               	movf	LCD_String_xy@msg^0,w,c
  4173   003438  A4D8               	btfss	status,2,c
  4174   00343A  0E20               	movlw	high __smallconst
  4175   00343C  6E0C               	movwf	(LCD_String_xy@msg+1)^0,c
  4176   00343E  0E02               	movlw	2
  4177   003440  ECFA  F039         	call	_LCD_String_xy
  4178   003444  EFC4  F01A         	goto	l6129
  4179   003448                     l167:
  4180   003448  B2CE               	btfsc	206,1,c	;volatile
  4181   00344A  EF29  F01A         	goto	u5741
  4182   00344E  EF2B  F01A         	goto	u5740
  4183   003452                     u5741:
  4184   003452  EF74  F01A         	goto	l6117
  4185   003456                     u5740:
  4186   003456  C056  F001         	movff	_count1,___fladd@b
  4187   00345A  C057  F002         	movff	_count1+1,___fladd@b+1
  4188   00345E  C058  F003         	movff	_count1+2,___fladd@b+2
  4189   003462  C059  F004         	movff	_count1+3,___fladd@b+3
  4190   003466  0E00               	movlw	0
  4191   003468  6E05               	movwf	___fladd@a^0,c
  4192   00346A  0E00               	movlw	0
  4193   00346C  6E06               	movwf	(___fladd@a+1)^0,c
  4194   00346E  0E80               	movlw	128
  4195   003470  6E07               	movwf	(___fladd@a+2)^0,c
  4196   003472  0E3F               	movlw	63
  4197   003474  6E08               	movwf	(___fladd@a+3)^0,c
  4198   003476  EC48  F02A         	call	___fladd	;wreg free
  4199   00347A  C001  F056         	movff	?___fladd,_count1
  4200   00347E  C002  F057         	movff	?___fladd+1,_count1+1
  4201   003482  C003  F058         	movff	?___fladd+2,_count1+2
  4202   003486  C004  F059         	movff	?___fladd+3,_count1+3
  4203   00348A  0E02               	movlw	2
  4204   00348C  0100               	movlb	0	; () banked
  4205   00348E  6F93               	movwf	(??_main+1)& (0+255),b
  4206   003490  0E45               	movlw	69
  4207   003492  6F92               	movwf	??_main& (0+255),b
  4208   003494  0EA9               	movlw	169
  4209   003496                     u6557:
  4210   003496  2EE8               	decfsz	wreg,f,c
  4211   003498  D7FE               	bra	u6557
  4212   00349A  2F92               	decfsz	??_main& (0+255),f,b
  4213   00349C  D7FC               	bra	u6557
  4214   00349E  2F93               	decfsz	(??_main+1)& (0+255),f,b
  4215   0034A0  D7FA               	bra	u6557
  4216   0034A2  D000               	nop2	
  4217   0034A4  0EAC               	movlw	low _data
  4218   0034A6  0100               	movlb	0	; () banked
  4219   0034A8  6F8C               	movwf	sprintf@s& (0+255),b
  4220   0034AA  0EAE               	movlw	low STR_1
  4221   0034AC  6F8D               	movwf	sprintf@fmt& (0+255),b
  4222   0034AE  C056  F08E         	movff	_count1,?_sprintf+2
  4223   0034B2  C057  F08F         	movff	_count1+1,?_sprintf+3
  4224   0034B6  C058  F090         	movff	_count1+2,?_sprintf+4
  4225   0034BA  C059  F091         	movff	_count1+3,?_sprintf+5
  4226   0034BE  EC36  F03A         	call	_sprintf	;wreg free
  4227   0034C2  0E00               	movlw	0
  4228   0034C4  6E0A               	movwf	LCD_String_xy@pos^0,c
  4229   0034C6  0E8C               	movlw	low STR_6
  4230   0034C8  6E0B               	movwf	LCD_String_xy@msg^0,c
  4231   0034CA  500B               	movf	LCD_String_xy@msg^0,w,c
  4232   0034CC  A4D8               	btfss	status,2,c
  4233   0034CE  0E20               	movlw	high __smallconst
  4234   0034D0  6E0C               	movwf	(LCD_String_xy@msg+1)^0,c
  4235   0034D2  0E01               	movlw	1
  4236   0034D4  ECFA  F039         	call	_LCD_String_xy
  4237   0034D8  0E04               	movlw	4
  4238   0034DA  6E0A               	movwf	LCD_String_xy@pos^0,c
  4239   0034DC  0EAC               	movlw	low _data
  4240   0034DE  6E0B               	movwf	LCD_String_xy@msg^0,c
  4241   0034E0  6A0C               	clrf	(LCD_String_xy@msg+1)^0,c
  4242   0034E2  0E02               	movlw	2
  4243   0034E4  ECFA  F039         	call	_LCD_String_xy
  4244   0034E8                     l6117:
  4245   0034E8  B0CE               	btfsc	206,0,c	;volatile
  4246   0034EA  EF79  F01A         	goto	u5751
  4247   0034EE  EF7B  F01A         	goto	u5750
  4248   0034F2                     u5751:
  4249   0034F2  EFC4  F01A         	goto	l6129
  4250   0034F6                     u5750:
  4251   0034F6  C056  F028         	movff	_count1,___flsub@b
  4252   0034FA  C057  F029         	movff	_count1+1,___flsub@b+1
  4253   0034FE  C058  F02A         	movff	_count1+2,___flsub@b+2
  4254   003502  C059  F02B         	movff	_count1+3,___flsub@b+3
  4255   003506  0E00               	movlw	0
  4256   003508  6E2C               	movwf	___flsub@a^0,c
  4257   00350A  0E00               	movlw	0
  4258   00350C  6E2D               	movwf	(___flsub@a+1)^0,c
  4259   00350E  0E80               	movlw	128
  4260   003510  6E2E               	movwf	(___flsub@a+2)^0,c
  4261   003512  0E3F               	movlw	63
  4262   003514  6E2F               	movwf	(___flsub@a+3)^0,c
  4263   003516  EC95  F039         	call	___flsub	;wreg free
  4264   00351A  C028  F056         	movff	?___flsub,_count1
  4265   00351E  C029  F057         	movff	?___flsub+1,_count1+1
  4266   003522  C02A  F058         	movff	?___flsub+2,_count1+2
  4267   003526  C02B  F059         	movff	?___flsub+3,_count1+3
  4268   00352A  0E02               	movlw	2
  4269   00352C  0100               	movlb	0	; () banked
  4270   00352E  6F93               	movwf	(??_main+1)& (0+255),b
  4271   003530  0E45               	movlw	69
  4272   003532  6F92               	movwf	??_main& (0+255),b
  4273   003534  0EA9               	movlw	169
  4274   003536                     u6567:
  4275   003536  2EE8               	decfsz	wreg,f,c
  4276   003538  D7FE               	bra	u6567
  4277   00353A  2F92               	decfsz	??_main& (0+255),f,b
  4278   00353C  D7FC               	bra	u6567
  4279   00353E  2F93               	decfsz	(??_main+1)& (0+255),f,b
  4280   003540  D7FA               	bra	u6567
  4281   003542  D000               	nop2	
  4282   003544  0EAC               	movlw	low _data
  4283   003546  0100               	movlb	0	; () banked
  4284   003548  6F8C               	movwf	sprintf@s& (0+255),b
  4285   00354A  0EAE               	movlw	low STR_1
  4286   00354C  6F8D               	movwf	sprintf@fmt& (0+255),b
  4287   00354E  C056  F08E         	movff	_count1,?_sprintf+2
  4288   003552  C057  F08F         	movff	_count1+1,?_sprintf+3
  4289   003556  C058  F090         	movff	_count1+2,?_sprintf+4
  4290   00355A  C059  F091         	movff	_count1+3,?_sprintf+5
  4291   00355E  EC36  F03A         	call	_sprintf	;wreg free
  4292   003562  0E00               	movlw	0
  4293   003564  6E0A               	movwf	LCD_String_xy@pos^0,c
  4294   003566  0E8C               	movlw	low STR_6
  4295   003568  6E0B               	movwf	LCD_String_xy@msg^0,c
  4296   00356A  500B               	movf	LCD_String_xy@msg^0,w,c
  4297   00356C  A4D8               	btfss	status,2,c
  4298   00356E  0E20               	movlw	high __smallconst
  4299   003570  6E0C               	movwf	(LCD_String_xy@msg+1)^0,c
  4300   003572  0E01               	movlw	1
  4301   003574  ECFA  F039         	call	_LCD_String_xy
  4302   003578  0E04               	movlw	4
  4303   00357A  6E0A               	movwf	LCD_String_xy@pos^0,c
  4304   00357C  0EAC               	movlw	low _data
  4305   00357E  6E0B               	movwf	LCD_String_xy@msg^0,c
  4306   003580  6A0C               	clrf	(LCD_String_xy@msg+1)^0,c
  4307   003582  0E02               	movlw	2
  4308   003584  ECFA  F039         	call	_LCD_String_xy
  4309   003588                     l6129:
  4310   003588  BCCD               	btfsc	205,6,c	;volatile
  4311   00358A  EFC9  F01A         	goto	u5761
  4312   00358E  EFCB  F01A         	goto	u5760
  4313   003592                     u5761:
  4314   003592  EF24  F01A         	goto	l167
  4315   003596                     u5760:
  4316   003596  C05A  F001         	movff	_num,___xxtofl@val
  4317   00359A  C05B  F002         	movff	_num+1,___xxtofl@val+1
  4318   00359E  0E00               	movlw	0
  4319   0035A0  BE02               	btfsc	(___xxtofl@val+1)^0,7,c
  4320   0035A2  0EFF               	movlw	-1
  4321   0035A4  6E03               	movwf	(___xxtofl@val+2)^0,c
  4322   0035A6  6E04               	movwf	(___xxtofl@val+3)^0,c
  4323   0035A8  0E01               	movlw	1
  4324   0035AA  ECFC  F032         	call	___xxtofl
  4325   0035AE  C001  F00F         	movff	?___xxtofl,___fleq@ff1
  4326   0035B2  C002  F010         	movff	?___xxtofl+1,___fleq@ff1+1
  4327   0035B6  C003  F011         	movff	?___xxtofl+2,___fleq@ff1+2
  4328   0035BA  C004  F012         	movff	?___xxtofl+3,___fleq@ff1+3
  4329   0035BE  C056  F013         	movff	_count1,___fleq@ff2
  4330   0035C2  C057  F014         	movff	_count1+1,___fleq@ff2+1
  4331   0035C6  C058  F015         	movff	_count1+2,___fleq@ff2+2
  4332   0035CA  C059  F016         	movff	_count1+3,___fleq@ff2+3
  4333   0035CE  EC81  F037         	call	___fleq	;wreg free
  4334   0035D2  A0D8               	btfss	status,0,c
  4335   0035D4  EFEE  F01A         	goto	u5771
  4336   0035D8  EFF0  F01A         	goto	u5770
  4337   0035DC                     u5771:
  4338   0035DC  EF1A  F01B         	goto	l6143
  4339   0035E0                     u5770:
  4340   0035E0  ECCD  F03A         	call	_LCD_Clear	;wreg free
  4341   0035E4  0E01               	movlw	1
  4342   0035E6  245C               	addwf	_count2^0,w,c
  4343   0035E8  6E5C               	movwf	_count2^0,c
  4344   0035EA  0E00               	movlw	0
  4345   0035EC  205D               	addwfc	(_count2+1)^0,w,c
  4346   0035EE  6E5D               	movwf	(_count2+1)^0,c
  4347   0035F0  0E00               	movlw	0
  4348   0035F2  6E0A               	movwf	LCD_String_xy@pos^0,c
  4349   0035F4  0E99               	movlw	low STR_12
  4350   0035F6  6E0B               	movwf	LCD_String_xy@msg^0,c
  4351   0035F8  500B               	movf	LCD_String_xy@msg^0,w,c
  4352   0035FA  A4D8               	btfss	status,2,c
  4353   0035FC  0E20               	movlw	high __smallconst
  4354   0035FE  6E0C               	movwf	(LCD_String_xy@msg+1)^0,c
  4355   003600  0E01               	movlw	1
  4356   003602  ECFA  F039         	call	_LCD_String_xy
  4357   003606  0E1A               	movlw	26
  4358   003608  0100               	movlb	0	; () banked
  4359   00360A  6F93               	movwf	(??_main+1)& (0+255),b
  4360   00360C  0E5E               	movlw	94
  4361   00360E  6F92               	movwf	??_main& (0+255),b
  4362   003610  0E6E               	movlw	110
  4363   003612                     u6577:
  4364   003612  2EE8               	decfsz	wreg,f,c
  4365   003614  D7FE               	bra	u6577
  4366   003616  2F92               	decfsz	??_main& (0+255),f,b
  4367   003618  D7FC               	bra	u6577
  4368   00361A  2F93               	decfsz	(??_main+1)& (0+255),f,b
  4369   00361C  D7FA               	bra	u6577
  4370   00361E  0000               	nop	
  4371   003620  0E00               	movlw	0
  4372   003622  6E56               	movwf	_count1^0,c
  4373   003624  0E00               	movlw	0
  4374   003626  6E57               	movwf	(_count1+1)^0,c
  4375   003628  0E00               	movlw	0
  4376   00362A  6E58               	movwf	(_count1+2)^0,c
  4377   00362C  0E00               	movlw	0
  4378   00362E  6E59               	movwf	(_count1+3)^0,c
  4379   003630  EF3C  F01B         	goto	l6151
  4380   003634                     l6143:
  4381   003634  ECCD  F03A         	call	_LCD_Clear	;wreg free
  4382   003638  0E00               	movlw	0
  4383   00363A  6E0A               	movwf	LCD_String_xy@pos^0,c
  4384   00363C  0E72               	movlw	low STR_13
  4385   00363E  6E0B               	movwf	LCD_String_xy@msg^0,c
  4386   003640  500B               	movf	LCD_String_xy@msg^0,w,c
  4387   003642  A4D8               	btfss	status,2,c
  4388   003644  0E20               	movlw	high __smallconst
  4389   003646  6E0C               	movwf	(LCD_String_xy@msg+1)^0,c
  4390   003648  0E01               	movlw	1
  4391   00364A  ECFA  F039         	call	_LCD_String_xy
  4392   00364E  0E1A               	movlw	26
  4393   003650  0100               	movlb	0	; () banked
  4394   003652  6F93               	movwf	(??_main+1)& (0+255),b
  4395   003654  0E5E               	movlw	94
  4396   003656  6F92               	movwf	??_main& (0+255),b
  4397   003658  0E6E               	movlw	110
  4398   00365A                     u6587:
  4399   00365A  2EE8               	decfsz	wreg,f,c
  4400   00365C  D7FE               	bra	u6587
  4401   00365E  2F92               	decfsz	??_main& (0+255),f,b
  4402   003660  D7FC               	bra	u6587
  4403   003662  2F93               	decfsz	(??_main+1)& (0+255),f,b
  4404   003664  D7FA               	bra	u6587
  4405   003666  0000               	nop	
  4406   003668  0E00               	movlw	0
  4407   00366A  6E56               	movwf	_count1^0,c
  4408   00366C  0E00               	movlw	0
  4409   00366E  6E57               	movwf	(_count1+1)^0,c
  4410   003670  0E00               	movlw	0
  4411   003672  6E58               	movwf	(_count1+2)^0,c
  4412   003674  0E00               	movlw	0
  4413   003676  6E59               	movwf	(_count1+3)^0,c
  4414   003678                     l6151:
  4415   003678  505C               	movf	_count2^0,w,c
  4416   00367A  105D               	iorwf	(_count2+1)^0,w,c
  4417   00367C  A4D8               	btfss	status,2,c
  4418   00367E  EF43  F01B         	goto	u5781
  4419   003682  EF45  F01B         	goto	u5780
  4420   003686                     u5781:
  4421   003686  EF5D  F01B         	goto	l6157
  4422   00368A                     u5780:
  4423   00368A  0E00               	movlw	0
  4424   00368C  6E0A               	movwf	LCD_String_xy@pos^0,c
  4425   00368E  0E7F               	movlw	low STR_36
  4426   003690  6E0B               	movwf	LCD_String_xy@msg^0,c
  4427   003692  500B               	movf	LCD_String_xy@msg^0,w,c
  4428   003694  A4D8               	btfss	status,2,c
  4429   003696  0E20               	movlw	high __smallconst
  4430   003698  6E0C               	movwf	(LCD_String_xy@msg+1)^0,c
  4431   00369A  0E01               	movlw	1
  4432   00369C  ECFA  F039         	call	_LCD_String_xy
  4433   0036A0  0E04               	movlw	4
  4434   0036A2  6E0A               	movwf	LCD_String_xy@pos^0,c
  4435   0036A4  0EBB               	movlw	low STR_37
  4436   0036A6  6E0B               	movwf	LCD_String_xy@msg^0,c
  4437   0036A8  500B               	movf	LCD_String_xy@msg^0,w,c
  4438   0036AA  A4D8               	btfss	status,2,c
  4439   0036AC  0E20               	movlw	high __smallconst
  4440   0036AE  6E0C               	movwf	(LCD_String_xy@msg+1)^0,c
  4441   0036B0  0E02               	movlw	2
  4442   0036B2  ECFA  F039         	call	_LCD_String_xy
  4443   0036B6  EF66  F016         	goto	l5931
  4444   0036BA                     l6157:
  4445   0036BA  0EAC               	movlw	low _data
  4446   0036BC  0100               	movlb	0	; () banked
  4447   0036BE  6F8C               	movwf	sprintf@s& (0+255),b
  4448   0036C0  0EA3               	movlw	low STR_38
  4449   0036C2  6F8D               	movwf	sprintf@fmt& (0+255),b
  4450   0036C4  C05C  F08E         	movff	_count2,?_sprintf+2
  4451   0036C8  C05D  F08F         	movff	_count2+1,?_sprintf+3
  4452   0036CC  EC36  F03A         	call	_sprintf	;wreg free
  4453   0036D0  0E00               	movlw	0
  4454   0036D2  6E0A               	movwf	LCD_String_xy@pos^0,c
  4455   0036D4  0E7F               	movlw	low STR_36
  4456   0036D6  6E0B               	movwf	LCD_String_xy@msg^0,c
  4457   0036D8  500B               	movf	LCD_String_xy@msg^0,w,c
  4458   0036DA  A4D8               	btfss	status,2,c
  4459   0036DC  0E20               	movlw	high __smallconst
  4460   0036DE  6E0C               	movwf	(LCD_String_xy@msg+1)^0,c
  4461   0036E0  0E01               	movlw	1
  4462   0036E2  ECFA  F039         	call	_LCD_String_xy
  4463   0036E6  0EAC               	movlw	low _data
  4464   0036E8  6E01               	movwf	strcat@dest^0,c
  4465   0036EA  0EBC               	movlw	low (STR_37+1)
  4466   0036EC  6E02               	movwf	strcat@src^0,c
  4467   0036EE  ECC4  F038         	call	_strcat	;wreg free
  4468   0036F2  0E04               	movlw	4
  4469   0036F4  6E0A               	movwf	LCD_String_xy@pos^0,c
  4470   0036F6  0EAC               	movlw	low _data
  4471   0036F8  6E0B               	movwf	LCD_String_xy@msg^0,c
  4472   0036FA  6A0C               	clrf	(LCD_String_xy@msg+1)^0,c
  4473   0036FC  0E02               	movlw	2
  4474   0036FE  ECFA  F039         	call	_LCD_String_xy
  4475   003702  EF66  F016         	goto	l5931
  4476   003706                     l6167:
  4477   003706  C09C  F00F         	movff	_Difficulty,___fleq@ff1
  4478   00370A  C09D  F010         	movff	_Difficulty+1,___fleq@ff1+1
  4479   00370E  C09E  F011         	movff	_Difficulty+2,___fleq@ff1+2
  4480   003712  C09F  F012         	movff	_Difficulty+3,___fleq@ff1+3
  4481   003716  0E00               	movlw	0
  4482   003718  6E13               	movwf	___fleq@ff2^0,c
  4483   00371A  0E00               	movlw	0
  4484   00371C  6E14               	movwf	(___fleq@ff2+1)^0,c
  4485   00371E  0E00               	movlw	0
  4486   003720  6E15               	movwf	(___fleq@ff2+2)^0,c
  4487   003722  0E40               	movlw	64
  4488   003724  6E16               	movwf	(___fleq@ff2+3)^0,c
  4489   003726  EC81  F037         	call	___fleq	;wreg free
  4490   00372A  A0D8               	btfss	status,0,c
  4491   00372C  EF9A  F01B         	goto	u5791
  4492   003730  EF9C  F01B         	goto	u5790
  4493   003734                     u5791:
  4494   003734  EF6B  F020         	goto	l6391
  4495   003738                     u5790:
  4496   003738  EC58  F038         	call	_rand	;wreg free
  4497   00373C  0E0F               	movlw	15
  4498   00373E  140D               	andwf	?_rand^0,w,c
  4499   003740  6E5A               	movwf	_num^0,c
  4500   003742  6A5B               	clrf	(_num+1)^0,c
  4501   003744  0060  F16B  FFCD   	movff	_num,16333	;volatile
  4502   00374A  0E08               	movlw	8
  4503   00374C  0100               	movlb	0	; () banked
  4504   00374E  6F93               	movwf	(??_main+1)& (0+255),b
  4505   003750  0E9D               	movlw	157
  4506   003752  6F92               	movwf	??_main& (0+255),b
  4507   003754  0E05               	movlw	5
  4508   003756                     u6597:
  4509   003756  2EE8               	decfsz	wreg,f,c
  4510   003758  D7FE               	bra	u6597
  4511   00375A  2F92               	decfsz	??_main& (0+255),f,b
  4512   00375C  D7FC               	bra	u6597
  4513   00375E  2F93               	decfsz	(??_main+1)& (0+255),f,b
  4514   003760  D7FA               	bra	u6597
  4515   003762  D000               	nop2	
  4516   003764  6ACD               	clrf	205,c	;volatile
  4517   003766  0E82               	movlw	130
  4518   003768  0100               	movlb	0	; () banked
  4519   00376A  6F92               	movwf	??_main& (0+255),b
  4520   00376C  0EDD               	movlw	221
  4521   00376E                     u6607:
  4522   00376E  2EE8               	decfsz	wreg,f,c
  4523   003770  D7FE               	bra	u6607
  4524   003772  2F92               	decfsz	??_main& (0+255),f,b
  4525   003774  D7FC               	bra	u6607
  4526   003776  D000               	nop2	
  4527   003778  0E00               	movlw	0
  4528   00377A  6E0A               	movwf	LCD_String_xy@pos^0,c
  4529   00377C  0E8C               	movlw	low STR_6
  4530   00377E  6E0B               	movwf	LCD_String_xy@msg^0,c
  4531   003780  500B               	movf	LCD_String_xy@msg^0,w,c
  4532   003782  A4D8               	btfss	status,2,c
  4533   003784  0E20               	movlw	high __smallconst
  4534   003786  6E0C               	movwf	(LCD_String_xy@msg+1)^0,c
  4535   003788  0E01               	movlw	1
  4536   00378A  ECFA  F039         	call	_LCD_String_xy
  4537   00378E  0E04               	movlw	4
  4538   003790  6E0A               	movwf	LCD_String_xy@pos^0,c
  4539   003792  0EA9               	movlw	low STR_7
  4540   003794  6E0B               	movwf	LCD_String_xy@msg^0,c
  4541   003796  500B               	movf	LCD_String_xy@msg^0,w,c
  4542   003798  A4D8               	btfss	status,2,c
  4543   00379A  0E20               	movlw	high __smallconst
  4544   00379C  6E0C               	movwf	(LCD_String_xy@msg+1)^0,c
  4545   00379E  0E02               	movlw	2
  4546   0037A0  ECFA  F039         	call	_LCD_String_xy
  4547   0037A4  EF74  F01C         	goto	l6205
  4548   0037A8                     l176:
  4549   0037A8  B2CE               	btfsc	206,1,c	;volatile
  4550   0037AA  EFD9  F01B         	goto	u5801
  4551   0037AE  EFDB  F01B         	goto	u5800
  4552   0037B2                     u5801:
  4553   0037B2  EF24  F01C         	goto	l6193
  4554   0037B6                     u5800:
  4555   0037B6  C056  F001         	movff	_count1,___fladd@b
  4556   0037BA  C057  F002         	movff	_count1+1,___fladd@b+1
  4557   0037BE  C058  F003         	movff	_count1+2,___fladd@b+2
  4558   0037C2  C059  F004         	movff	_count1+3,___fladd@b+3
  4559   0037C6  0E00               	movlw	0
  4560   0037C8  6E05               	movwf	___fladd@a^0,c
  4561   0037CA  0E00               	movlw	0
  4562   0037CC  6E06               	movwf	(___fladd@a+1)^0,c
  4563   0037CE  0E80               	movlw	128
  4564   0037D0  6E07               	movwf	(___fladd@a+2)^0,c
  4565   0037D2  0E3F               	movlw	63
  4566   0037D4  6E08               	movwf	(___fladd@a+3)^0,c
  4567   0037D6  EC48  F02A         	call	___fladd	;wreg free
  4568   0037DA  C001  F056         	movff	?___fladd,_count1
  4569   0037DE  C002  F057         	movff	?___fladd+1,_count1+1
  4570   0037E2  C003  F058         	movff	?___fladd+2,_count1+2
  4571   0037E6  C004  F059         	movff	?___fladd+3,_count1+3
  4572   0037EA  0E02               	movlw	2
  4573   0037EC  0100               	movlb	0	; () banked
  4574   0037EE  6F93               	movwf	(??_main+1)& (0+255),b
  4575   0037F0  0E45               	movlw	69
  4576   0037F2  6F92               	movwf	??_main& (0+255),b
  4577   0037F4  0EA9               	movlw	169
  4578   0037F6                     u6617:
  4579   0037F6  2EE8               	decfsz	wreg,f,c
  4580   0037F8  D7FE               	bra	u6617
  4581   0037FA  2F92               	decfsz	??_main& (0+255),f,b
  4582   0037FC  D7FC               	bra	u6617
  4583   0037FE  2F93               	decfsz	(??_main+1)& (0+255),f,b
  4584   003800  D7FA               	bra	u6617
  4585   003802  D000               	nop2	
  4586   003804  0EAC               	movlw	low _data
  4587   003806  0100               	movlb	0	; () banked
  4588   003808  6F8C               	movwf	sprintf@s& (0+255),b
  4589   00380A  0EAE               	movlw	low STR_1
  4590   00380C  6F8D               	movwf	sprintf@fmt& (0+255),b
  4591   00380E  C056  F08E         	movff	_count1,?_sprintf+2
  4592   003812  C057  F08F         	movff	_count1+1,?_sprintf+3
  4593   003816  C058  F090         	movff	_count1+2,?_sprintf+4
  4594   00381A  C059  F091         	movff	_count1+3,?_sprintf+5
  4595   00381E  EC36  F03A         	call	_sprintf	;wreg free
  4596   003822  0E00               	movlw	0
  4597   003824  6E0A               	movwf	LCD_String_xy@pos^0,c
  4598   003826  0E8C               	movlw	low STR_6
  4599   003828  6E0B               	movwf	LCD_String_xy@msg^0,c
  4600   00382A  500B               	movf	LCD_String_xy@msg^0,w,c
  4601   00382C  A4D8               	btfss	status,2,c
  4602   00382E  0E20               	movlw	high __smallconst
  4603   003830  6E0C               	movwf	(LCD_String_xy@msg+1)^0,c
  4604   003832  0E01               	movlw	1
  4605   003834  ECFA  F039         	call	_LCD_String_xy
  4606   003838  0E04               	movlw	4
  4607   00383A  6E0A               	movwf	LCD_String_xy@pos^0,c
  4608   00383C  0EAC               	movlw	low _data
  4609   00383E  6E0B               	movwf	LCD_String_xy@msg^0,c
  4610   003840  6A0C               	clrf	(LCD_String_xy@msg+1)^0,c
  4611   003842  0E02               	movlw	2
  4612   003844  ECFA  F039         	call	_LCD_String_xy
  4613   003848                     l6193:
  4614   003848  B0CE               	btfsc	206,0,c	;volatile
  4615   00384A  EF29  F01C         	goto	u5811
  4616   00384E  EF2B  F01C         	goto	u5810
  4617   003852                     u5811:
  4618   003852  EF74  F01C         	goto	l6205
  4619   003856                     u5810:
  4620   003856  C056  F028         	movff	_count1,___flsub@b
  4621   00385A  C057  F029         	movff	_count1+1,___flsub@b+1
  4622   00385E  C058  F02A         	movff	_count1+2,___flsub@b+2
  4623   003862  C059  F02B         	movff	_count1+3,___flsub@b+3
  4624   003866  0E00               	movlw	0
  4625   003868  6E2C               	movwf	___flsub@a^0,c
  4626   00386A  0E00               	movlw	0
  4627   00386C  6E2D               	movwf	(___flsub@a+1)^0,c
  4628   00386E  0E80               	movlw	128
  4629   003870  6E2E               	movwf	(___flsub@a+2)^0,c
  4630   003872  0E3F               	movlw	63
  4631   003874  6E2F               	movwf	(___flsub@a+3)^0,c
  4632   003876  EC95  F039         	call	___flsub	;wreg free
  4633   00387A  C028  F056         	movff	?___flsub,_count1
  4634   00387E  C029  F057         	movff	?___flsub+1,_count1+1
  4635   003882  C02A  F058         	movff	?___flsub+2,_count1+2
  4636   003886  C02B  F059         	movff	?___flsub+3,_count1+3
  4637   00388A  0E02               	movlw	2
  4638   00388C  0100               	movlb	0	; () banked
  4639   00388E  6F93               	movwf	(??_main+1)& (0+255),b
  4640   003890  0E45               	movlw	69
  4641   003892  6F92               	movwf	??_main& (0+255),b
  4642   003894  0EA9               	movlw	169
  4643   003896                     u6627:
  4644   003896  2EE8               	decfsz	wreg,f,c
  4645   003898  D7FE               	bra	u6627
  4646   00389A  2F92               	decfsz	??_main& (0+255),f,b
  4647   00389C  D7FC               	bra	u6627
  4648   00389E  2F93               	decfsz	(??_main+1)& (0+255),f,b
  4649   0038A0  D7FA               	bra	u6627
  4650   0038A2  D000               	nop2	
  4651   0038A4  0EAC               	movlw	low _data
  4652   0038A6  0100               	movlb	0	; () banked
  4653   0038A8  6F8C               	movwf	sprintf@s& (0+255),b
  4654   0038AA  0EAE               	movlw	low STR_1
  4655   0038AC  6F8D               	movwf	sprintf@fmt& (0+255),b
  4656   0038AE  C056  F08E         	movff	_count1,?_sprintf+2
  4657   0038B2  C057  F08F         	movff	_count1+1,?_sprintf+3
  4658   0038B6  C058  F090         	movff	_count1+2,?_sprintf+4
  4659   0038BA  C059  F091         	movff	_count1+3,?_sprintf+5
  4660   0038BE  EC36  F03A         	call	_sprintf	;wreg free
  4661   0038C2  0E00               	movlw	0
  4662   0038C4  6E0A               	movwf	LCD_String_xy@pos^0,c
  4663   0038C6  0E8C               	movlw	low STR_6
  4664   0038C8  6E0B               	movwf	LCD_String_xy@msg^0,c
  4665   0038CA  500B               	movf	LCD_String_xy@msg^0,w,c
  4666   0038CC  A4D8               	btfss	status,2,c
  4667   0038CE  0E20               	movlw	high __smallconst
  4668   0038D0  6E0C               	movwf	(LCD_String_xy@msg+1)^0,c
  4669   0038D2  0E01               	movlw	1
  4670   0038D4  ECFA  F039         	call	_LCD_String_xy
  4671   0038D8  0E04               	movlw	4
  4672   0038DA  6E0A               	movwf	LCD_String_xy@pos^0,c
  4673   0038DC  0EAC               	movlw	low _data
  4674   0038DE  6E0B               	movwf	LCD_String_xy@msg^0,c
  4675   0038E0  6A0C               	clrf	(LCD_String_xy@msg+1)^0,c
  4676   0038E2  0E02               	movlw	2
  4677   0038E4  ECFA  F039         	call	_LCD_String_xy
  4678   0038E8                     l6205:
  4679   0038E8  BCCD               	btfsc	205,6,c	;volatile
  4680   0038EA  EF79  F01C         	goto	u5821
  4681   0038EE  EF7B  F01C         	goto	u5820
  4682   0038F2                     u5821:
  4683   0038F2  EFD4  F01B         	goto	l176
  4684   0038F6                     u5820:
  4685   0038F6  C05A  F001         	movff	_num,___xxtofl@val
  4686   0038FA  C05B  F002         	movff	_num+1,___xxtofl@val+1
  4687   0038FE  0E00               	movlw	0
  4688   003900  BE02               	btfsc	(___xxtofl@val+1)^0,7,c
  4689   003902  0EFF               	movlw	-1
  4690   003904  6E03               	movwf	(___xxtofl@val+2)^0,c
  4691   003906  6E04               	movwf	(___xxtofl@val+3)^0,c
  4692   003908  0E01               	movlw	1
  4693   00390A  ECFC  F032         	call	___xxtofl
  4694   00390E  C001  F00F         	movff	?___xxtofl,___fleq@ff1
  4695   003912  C002  F010         	movff	?___xxtofl+1,___fleq@ff1+1
  4696   003916  C003  F011         	movff	?___xxtofl+2,___fleq@ff1+2
  4697   00391A  C004  F012         	movff	?___xxtofl+3,___fleq@ff1+3
  4698   00391E  C056  F013         	movff	_count1,___fleq@ff2
  4699   003922  C057  F014         	movff	_count1+1,___fleq@ff2+1
  4700   003926  C058  F015         	movff	_count1+2,___fleq@ff2+2
  4701   00392A  C059  F016         	movff	_count1+3,___fleq@ff2+3
  4702   00392E  EC81  F037         	call	___fleq	;wreg free
  4703   003932  A0D8               	btfss	status,0,c
  4704   003934  EF9E  F01C         	goto	u5831
  4705   003938  EFA0  F01C         	goto	u5830
  4706   00393C                     u5831:
  4707   00393C  EFCA  F01C         	goto	l6219
  4708   003940                     u5830:
  4709   003940  ECCD  F03A         	call	_LCD_Clear	;wreg free
  4710   003944  0E01               	movlw	1
  4711   003946  245C               	addwf	_count2^0,w,c
  4712   003948  6E5C               	movwf	_count2^0,c
  4713   00394A  0E00               	movlw	0
  4714   00394C  205D               	addwfc	(_count2+1)^0,w,c
  4715   00394E  6E5D               	movwf	(_count2+1)^0,c
  4716   003950  0E00               	movlw	0
  4717   003952  6E0A               	movwf	LCD_String_xy@pos^0,c
  4718   003954  0E99               	movlw	low STR_12
  4719   003956  6E0B               	movwf	LCD_String_xy@msg^0,c
  4720   003958  500B               	movf	LCD_String_xy@msg^0,w,c
  4721   00395A  A4D8               	btfss	status,2,c
  4722   00395C  0E20               	movlw	high __smallconst
  4723   00395E  6E0C               	movwf	(LCD_String_xy@msg+1)^0,c
  4724   003960  0E01               	movlw	1
  4725   003962  ECFA  F039         	call	_LCD_String_xy
  4726   003966  0E1A               	movlw	26
  4727   003968  0100               	movlb	0	; () banked
  4728   00396A  6F93               	movwf	(??_main+1)& (0+255),b
  4729   00396C  0E5E               	movlw	94
  4730   00396E  6F92               	movwf	??_main& (0+255),b
  4731   003970  0E6E               	movlw	110
  4732   003972                     u6637:
  4733   003972  2EE8               	decfsz	wreg,f,c
  4734   003974  D7FE               	bra	u6637
  4735   003976  2F92               	decfsz	??_main& (0+255),f,b
  4736   003978  D7FC               	bra	u6637
  4737   00397A  2F93               	decfsz	(??_main+1)& (0+255),f,b
  4738   00397C  D7FA               	bra	u6637
  4739   00397E  0000               	nop	
  4740   003980  0E00               	movlw	0
  4741   003982  6E56               	movwf	_count1^0,c
  4742   003984  0E00               	movlw	0
  4743   003986  6E57               	movwf	(_count1+1)^0,c
  4744   003988  0E00               	movlw	0
  4745   00398A  6E58               	movwf	(_count1+2)^0,c
  4746   00398C  0E00               	movlw	0
  4747   00398E  6E59               	movwf	(_count1+3)^0,c
  4748   003990  EFEC  F01C         	goto	l6227
  4749   003994                     l6219:
  4750   003994  ECCD  F03A         	call	_LCD_Clear	;wreg free
  4751   003998  0E00               	movlw	0
  4752   00399A  6E0A               	movwf	LCD_String_xy@pos^0,c
  4753   00399C  0E72               	movlw	low STR_13
  4754   00399E  6E0B               	movwf	LCD_String_xy@msg^0,c
  4755   0039A0  500B               	movf	LCD_String_xy@msg^0,w,c
  4756   0039A2  A4D8               	btfss	status,2,c
  4757   0039A4  0E20               	movlw	high __smallconst
  4758   0039A6  6E0C               	movwf	(LCD_String_xy@msg+1)^0,c
  4759   0039A8  0E01               	movlw	1
  4760   0039AA  ECFA  F039         	call	_LCD_String_xy
  4761   0039AE  0E1A               	movlw	26
  4762   0039B0  0100               	movlb	0	; () banked
  4763   0039B2  6F93               	movwf	(??_main+1)& (0+255),b
  4764   0039B4  0E5E               	movlw	94
  4765   0039B6  6F92               	movwf	??_main& (0+255),b
  4766   0039B8  0E6E               	movlw	110
  4767   0039BA                     u6647:
  4768   0039BA  2EE8               	decfsz	wreg,f,c
  4769   0039BC  D7FE               	bra	u6647
  4770   0039BE  2F92               	decfsz	??_main& (0+255),f,b
  4771   0039C0  D7FC               	bra	u6647
  4772   0039C2  2F93               	decfsz	(??_main+1)& (0+255),f,b
  4773   0039C4  D7FA               	bra	u6647
  4774   0039C6  0000               	nop	
  4775   0039C8  0E00               	movlw	0
  4776   0039CA  6E56               	movwf	_count1^0,c
  4777   0039CC  0E00               	movlw	0
  4778   0039CE  6E57               	movwf	(_count1+1)^0,c
  4779   0039D0  0E00               	movlw	0
  4780   0039D2  6E58               	movwf	(_count1+2)^0,c
  4781   0039D4  0E00               	movlw	0
  4782   0039D6  6E59               	movwf	(_count1+3)^0,c
  4783   0039D8                     l6227:
  4784   0039D8  ECCD  F03A         	call	_LCD_Clear	;wreg free
  4785   0039DC  0E00               	movlw	0
  4786   0039DE  6E0A               	movwf	LCD_String_xy@pos^0,c
  4787   0039E0  0E24               	movlw	low STR_14
  4788   0039E2  6E0B               	movwf	LCD_String_xy@msg^0,c
  4789   0039E4  500B               	movf	LCD_String_xy@msg^0,w,c
  4790   0039E6  A4D8               	btfss	status,2,c
  4791   0039E8  0E20               	movlw	high __smallconst
  4792   0039EA  6E0C               	movwf	(LCD_String_xy@msg+1)^0,c
  4793   0039EC  0E01               	movlw	1
  4794   0039EE  ECFA  F039         	call	_LCD_String_xy
  4795   0039F2  0E06               	movlw	6
  4796   0039F4  0100               	movlb	0	; () banked
  4797   0039F6  6F93               	movwf	(??_main+1)& (0+255),b
  4798   0039F8  0E13               	movlw	19
  4799   0039FA  6F92               	movwf	??_main& (0+255),b
  4800   0039FC  0EAD               	movlw	173
  4801   0039FE                     u6657:
  4802   0039FE  2EE8               	decfsz	wreg,f,c
  4803   003A00  D7FE               	bra	u6657
  4804   003A02  2F92               	decfsz	??_main& (0+255),f,b
  4805   003A04  D7FC               	bra	u6657
  4806   003A06  2F93               	decfsz	(??_main+1)& (0+255),f,b
  4807   003A08  D7FA               	bra	u6657
  4808   003A0A  D000               	nop2	
  4809   003A0C  0E00               	movlw	0
  4810   003A0E  6E0A               	movwf	LCD_String_xy@pos^0,c
  4811   003A10  0E35               	movlw	low STR_15
  4812   003A12  6E0B               	movwf	LCD_String_xy@msg^0,c
  4813   003A14  500B               	movf	LCD_String_xy@msg^0,w,c
  4814   003A16  A4D8               	btfss	status,2,c
  4815   003A18  0E20               	movlw	high __smallconst
  4816   003A1A  6E0C               	movwf	(LCD_String_xy@msg+1)^0,c
  4817   003A1C  0E01               	movlw	1
  4818   003A1E  ECFA  F039         	call	_LCD_String_xy
  4819   003A22  0E06               	movlw	6
  4820   003A24  0100               	movlb	0	; () banked
  4821   003A26  6F93               	movwf	(??_main+1)& (0+255),b
  4822   003A28  0E13               	movlw	19
  4823   003A2A  6F92               	movwf	??_main& (0+255),b
  4824   003A2C  0EAD               	movlw	173
  4825   003A2E                     u6667:
  4826   003A2E  2EE8               	decfsz	wreg,f,c
  4827   003A30  D7FE               	bra	u6667
  4828   003A32  2F92               	decfsz	??_main& (0+255),f,b
  4829   003A34  D7FC               	bra	u6667
  4830   003A36  2F93               	decfsz	(??_main+1)& (0+255),f,b
  4831   003A38  D7FA               	bra	u6667
  4832   003A3A  D000               	nop2	
  4833   003A3C  0E00               	movlw	0
  4834   003A3E  6E0A               	movwf	LCD_String_xy@pos^0,c
  4835   003A40  0E13               	movlw	low STR_16
  4836   003A42  6E0B               	movwf	LCD_String_xy@msg^0,c
  4837   003A44  500B               	movf	LCD_String_xy@msg^0,w,c
  4838   003A46  A4D8               	btfss	status,2,c
  4839   003A48  0E20               	movlw	high __smallconst
  4840   003A4A  6E0C               	movwf	(LCD_String_xy@msg+1)^0,c
  4841   003A4C  0E01               	movlw	1
  4842   003A4E  ECFA  F039         	call	_LCD_String_xy
  4843   003A52  0E06               	movlw	6
  4844   003A54  0100               	movlb	0	; () banked
  4845   003A56  6F93               	movwf	(??_main+1)& (0+255),b
  4846   003A58  0E13               	movlw	19
  4847   003A5A  6F92               	movwf	??_main& (0+255),b
  4848   003A5C  0EAD               	movlw	173
  4849   003A5E                     u6677:
  4850   003A5E  2EE8               	decfsz	wreg,f,c
  4851   003A60  D7FE               	bra	u6677
  4852   003A62  2F92               	decfsz	??_main& (0+255),f,b
  4853   003A64  D7FC               	bra	u6677
  4854   003A66  2F93               	decfsz	(??_main+1)& (0+255),f,b
  4855   003A68  D7FA               	bra	u6677
  4856   003A6A  D000               	nop2	
  4857   003A6C  ECCD  F03A         	call	_LCD_Clear	;wreg free
  4858   003A70  EC58  F038         	call	_rand	;wreg free
  4859   003A74  0E0F               	movlw	15
  4860   003A76  140D               	andwf	?_rand^0,w,c
  4861   003A78  6E5A               	movwf	_num^0,c
  4862   003A7A  6A5B               	clrf	(_num+1)^0,c
  4863   003A7C  0060  F16B  FFCD   	movff	_num,16333	;volatile
  4864   003A82  0E07               	movlw	7
  4865   003A84  0100               	movlb	0	; () banked
  4866   003A86  6F93               	movwf	(??_main+1)& (0+255),b
  4867   003A88  0E58               	movlw	88
  4868   003A8A  6F92               	movwf	??_main& (0+255),b
  4869   003A8C  0E59               	movlw	89
  4870   003A8E                     u6687:
  4871   003A8E  2EE8               	decfsz	wreg,f,c
  4872   003A90  D7FE               	bra	u6687
  4873   003A92  2F92               	decfsz	??_main& (0+255),f,b
  4874   003A94  D7FC               	bra	u6687
  4875   003A96  2F93               	decfsz	(??_main+1)& (0+255),f,b
  4876   003A98  D7FA               	bra	u6687
  4877   003A9A  D000               	nop2	
  4878   003A9C  6ACD               	clrf	205,c	;volatile
  4879   003A9E  0E82               	movlw	130
  4880   003AA0  0100               	movlb	0	; () banked
  4881   003AA2  6F92               	movwf	??_main& (0+255),b
  4882   003AA4  0EDD               	movlw	221
  4883   003AA6                     u6697:
  4884   003AA6  2EE8               	decfsz	wreg,f,c
  4885   003AA8  D7FE               	bra	u6697
  4886   003AAA  2F92               	decfsz	??_main& (0+255),f,b
  4887   003AAC  D7FC               	bra	u6697
  4888   003AAE  D000               	nop2	
  4889   003AB0  0E00               	movlw	0
  4890   003AB2  6E0A               	movwf	LCD_String_xy@pos^0,c
  4891   003AB4  0E8C               	movlw	low STR_6
  4892   003AB6  6E0B               	movwf	LCD_String_xy@msg^0,c
  4893   003AB8  500B               	movf	LCD_String_xy@msg^0,w,c
  4894   003ABA  A4D8               	btfss	status,2,c
  4895   003ABC  0E20               	movlw	high __smallconst
  4896   003ABE  6E0C               	movwf	(LCD_String_xy@msg+1)^0,c
  4897   003AC0  0E01               	movlw	1
  4898   003AC2  ECFA  F039         	call	_LCD_String_xy
  4899   003AC6  0E04               	movlw	4
  4900   003AC8  6E0A               	movwf	LCD_String_xy@pos^0,c
  4901   003ACA  0EA9               	movlw	low STR_7
  4902   003ACC  6E0B               	movwf	LCD_String_xy@msg^0,c
  4903   003ACE  500B               	movf	LCD_String_xy@msg^0,w,c
  4904   003AD0  A4D8               	btfss	status,2,c
  4905   003AD2  0E20               	movlw	high __smallconst
  4906   003AD4  6E0C               	movwf	(LCD_String_xy@msg+1)^0,c
  4907   003AD6  0E02               	movlw	2
  4908   003AD8  ECFA  F039         	call	_LCD_String_xy
  4909   003ADC  EF10  F01E         	goto	l6279
  4910   003AE0                     l183:
  4911   003AE0  B2CE               	btfsc	206,1,c	;volatile
  4912   003AE2  EF75  F01D         	goto	u5841
  4913   003AE6  EF77  F01D         	goto	u5840
  4914   003AEA                     u5841:
  4915   003AEA  EFC0  F01D         	goto	l6267
  4916   003AEE                     u5840:
  4917   003AEE  C056  F001         	movff	_count1,___fladd@b
  4918   003AF2  C057  F002         	movff	_count1+1,___fladd@b+1
  4919   003AF6  C058  F003         	movff	_count1+2,___fladd@b+2
  4920   003AFA  C059  F004         	movff	_count1+3,___fladd@b+3
  4921   003AFE  0E00               	movlw	0
  4922   003B00  6E05               	movwf	___fladd@a^0,c
  4923   003B02  0E00               	movlw	0
  4924   003B04  6E06               	movwf	(___fladd@a+1)^0,c
  4925   003B06  0E80               	movlw	128
  4926   003B08  6E07               	movwf	(___fladd@a+2)^0,c
  4927   003B0A  0E3F               	movlw	63
  4928   003B0C  6E08               	movwf	(___fladd@a+3)^0,c
  4929   003B0E  EC48  F02A         	call	___fladd	;wreg free
  4930   003B12  C001  F056         	movff	?___fladd,_count1
  4931   003B16  C002  F057         	movff	?___fladd+1,_count1+1
  4932   003B1A  C003  F058         	movff	?___fladd+2,_count1+2
  4933   003B1E  C004  F059         	movff	?___fladd+3,_count1+3
  4934   003B22  0E02               	movlw	2
  4935   003B24  0100               	movlb	0	; () banked
  4936   003B26  6F93               	movwf	(??_main+1)& (0+255),b
  4937   003B28  0E45               	movlw	69
  4938   003B2A  6F92               	movwf	??_main& (0+255),b
  4939   003B2C  0EA9               	movlw	169
  4940   003B2E                     u6707:
  4941   003B2E  2EE8               	decfsz	wreg,f,c
  4942   003B30  D7FE               	bra	u6707
  4943   003B32  2F92               	decfsz	??_main& (0+255),f,b
  4944   003B34  D7FC               	bra	u6707
  4945   003B36  2F93               	decfsz	(??_main+1)& (0+255),f,b
  4946   003B38  D7FA               	bra	u6707
  4947   003B3A  D000               	nop2	
  4948   003B3C  0EAC               	movlw	low _data
  4949   003B3E  0100               	movlb	0	; () banked
  4950   003B40  6F8C               	movwf	sprintf@s& (0+255),b
  4951   003B42  0EAE               	movlw	low STR_1
  4952   003B44  6F8D               	movwf	sprintf@fmt& (0+255),b
  4953   003B46  C056  F08E         	movff	_count1,?_sprintf+2
  4954   003B4A  C057  F08F         	movff	_count1+1,?_sprintf+3
  4955   003B4E  C058  F090         	movff	_count1+2,?_sprintf+4
  4956   003B52  C059  F091         	movff	_count1+3,?_sprintf+5
  4957   003B56  EC36  F03A         	call	_sprintf	;wreg free
  4958   003B5A  0E00               	movlw	0
  4959   003B5C  6E0A               	movwf	LCD_String_xy@pos^0,c
  4960   003B5E  0E8C               	movlw	low STR_6
  4961   003B60  6E0B               	movwf	LCD_String_xy@msg^0,c
  4962   003B62  500B               	movf	LCD_String_xy@msg^0,w,c
  4963   003B64  A4D8               	btfss	status,2,c
  4964   003B66  0E20               	movlw	high __smallconst
  4965   003B68  6E0C               	movwf	(LCD_String_xy@msg+1)^0,c
  4966   003B6A  0E01               	movlw	1
  4967   003B6C  ECFA  F039         	call	_LCD_String_xy
  4968   003B70  0E04               	movlw	4
  4969   003B72  6E0A               	movwf	LCD_String_xy@pos^0,c
  4970   003B74  0EAC               	movlw	low _data
  4971   003B76  6E0B               	movwf	LCD_String_xy@msg^0,c
  4972   003B78  6A0C               	clrf	(LCD_String_xy@msg+1)^0,c
  4973   003B7A  0E02               	movlw	2
  4974   003B7C  ECFA  F039         	call	_LCD_String_xy
  4975   003B80                     l6267:
  4976   003B80  B0CE               	btfsc	206,0,c	;volatile
  4977   003B82  EFC5  F01D         	goto	u5851
  4978   003B86  EFC7  F01D         	goto	u5850
  4979   003B8A                     u5851:
  4980   003B8A  EF10  F01E         	goto	l6279
  4981   003B8E                     u5850:
  4982   003B8E  C056  F028         	movff	_count1,___flsub@b
  4983   003B92  C057  F029         	movff	_count1+1,___flsub@b+1
  4984   003B96  C058  F02A         	movff	_count1+2,___flsub@b+2
  4985   003B9A  C059  F02B         	movff	_count1+3,___flsub@b+3
  4986   003B9E  0E00               	movlw	0
  4987   003BA0  6E2C               	movwf	___flsub@a^0,c
  4988   003BA2  0E00               	movlw	0
  4989   003BA4  6E2D               	movwf	(___flsub@a+1)^0,c
  4990   003BA6  0E80               	movlw	128
  4991   003BA8  6E2E               	movwf	(___flsub@a+2)^0,c
  4992   003BAA  0E3F               	movlw	63
  4993   003BAC  6E2F               	movwf	(___flsub@a+3)^0,c
  4994   003BAE  EC95  F039         	call	___flsub	;wreg free
  4995   003BB2  C028  F056         	movff	?___flsub,_count1
  4996   003BB6  C029  F057         	movff	?___flsub+1,_count1+1
  4997   003BBA  C02A  F058         	movff	?___flsub+2,_count1+2
  4998   003BBE  C02B  F059         	movff	?___flsub+3,_count1+3
  4999   003BC2  0E02               	movlw	2
  5000   003BC4  0100               	movlb	0	; () banked
  5001   003BC6  6F93               	movwf	(??_main+1)& (0+255),b
  5002   003BC8  0E45               	movlw	69
  5003   003BCA  6F92               	movwf	??_main& (0+255),b
  5004   003BCC  0EA9               	movlw	169
  5005   003BCE                     u6717:
  5006   003BCE  2EE8               	decfsz	wreg,f,c
  5007   003BD0  D7FE               	bra	u6717
  5008   003BD2  2F92               	decfsz	??_main& (0+255),f,b
  5009   003BD4  D7FC               	bra	u6717
  5010   003BD6  2F93               	decfsz	(??_main+1)& (0+255),f,b
  5011   003BD8  D7FA               	bra	u6717
  5012   003BDA  D000               	nop2	
  5013   003BDC  0EAC               	movlw	low _data
  5014   003BDE  0100               	movlb	0	; () banked
  5015   003BE0  6F8C               	movwf	sprintf@s& (0+255),b
  5016   003BE2  0EAE               	movlw	low STR_1
  5017   003BE4  6F8D               	movwf	sprintf@fmt& (0+255),b
  5018   003BE6  C056  F08E         	movff	_count1,?_sprintf+2
  5019   003BEA  C057  F08F         	movff	_count1+1,?_sprintf+3
  5020   003BEE  C058  F090         	movff	_count1+2,?_sprintf+4
  5021   003BF2  C059  F091         	movff	_count1+3,?_sprintf+5
  5022   003BF6  EC36  F03A         	call	_sprintf	;wreg free
  5023   003BFA  0E00               	movlw	0
  5024   003BFC  6E0A               	movwf	LCD_String_xy@pos^0,c
  5025   003BFE  0E8C               	movlw	low STR_6
  5026   003C00  6E0B               	movwf	LCD_String_xy@msg^0,c
  5027   003C02  500B               	movf	LCD_String_xy@msg^0,w,c
  5028   003C04  A4D8               	btfss	status,2,c
  5029   003C06  0E20               	movlw	high __smallconst
  5030   003C08  6E0C               	movwf	(LCD_String_xy@msg+1)^0,c
  5031   003C0A  0E01               	movlw	1
  5032   003C0C  ECFA  F039         	call	_LCD_String_xy
  5033   003C10  0E04               	movlw	4
  5034   003C12  6E0A               	movwf	LCD_String_xy@pos^0,c
  5035   003C14  0EAC               	movlw	low _data
  5036   003C16  6E0B               	movwf	LCD_String_xy@msg^0,c
  5037   003C18  6A0C               	clrf	(LCD_String_xy@msg+1)^0,c
  5038   003C1A  0E02               	movlw	2
  5039   003C1C  ECFA  F039         	call	_LCD_String_xy
  5040   003C20                     l6279:
  5041   003C20  BCCD               	btfsc	205,6,c	;volatile
  5042   003C22  EF15  F01E         	goto	u5861
  5043   003C26  EF17  F01E         	goto	u5860
  5044   003C2A                     u5861:
  5045   003C2A  EF70  F01D         	goto	l183
  5046   003C2E                     u5860:
  5047   003C2E  C05A  F001         	movff	_num,___xxtofl@val
  5048   003C32  C05B  F002         	movff	_num+1,___xxtofl@val+1
  5049   003C36  0E00               	movlw	0
  5050   003C38  BE02               	btfsc	(___xxtofl@val+1)^0,7,c
  5051   003C3A  0EFF               	movlw	-1
  5052   003C3C  6E03               	movwf	(___xxtofl@val+2)^0,c
  5053   003C3E  6E04               	movwf	(___xxtofl@val+3)^0,c
  5054   003C40  0E01               	movlw	1
  5055   003C42  ECFC  F032         	call	___xxtofl
  5056   003C46  C001  F00F         	movff	?___xxtofl,___fleq@ff1
  5057   003C4A  C002  F010         	movff	?___xxtofl+1,___fleq@ff1+1
  5058   003C4E  C003  F011         	movff	?___xxtofl+2,___fleq@ff1+2
  5059   003C52  C004  F012         	movff	?___xxtofl+3,___fleq@ff1+3
  5060   003C56  C056  F013         	movff	_count1,___fleq@ff2
  5061   003C5A  C057  F014         	movff	_count1+1,___fleq@ff2+1
  5062   003C5E  C058  F015         	movff	_count1+2,___fleq@ff2+2
  5063   003C62  C059  F016         	movff	_count1+3,___fleq@ff2+3
  5064   003C66  EC81  F037         	call	___fleq	;wreg free
  5065   003C6A  A0D8               	btfss	status,0,c
  5066   003C6C  EF3A  F01E         	goto	u5871
  5067   003C70  EF3C  F01E         	goto	u5870
  5068   003C74                     u5871:
  5069   003C74  EF66  F01E         	goto	l6293
  5070   003C78                     u5870:
  5071   003C78  ECCD  F03A         	call	_LCD_Clear	;wreg free
  5072   003C7C  0E01               	movlw	1
  5073   003C7E  245C               	addwf	_count2^0,w,c
  5074   003C80  6E5C               	movwf	_count2^0,c
  5075   003C82  0E00               	movlw	0
  5076   003C84  205D               	addwfc	(_count2+1)^0,w,c
  5077   003C86  6E5D               	movwf	(_count2+1)^0,c
  5078   003C88  0E00               	movlw	0
  5079   003C8A  6E0A               	movwf	LCD_String_xy@pos^0,c
  5080   003C8C  0E99               	movlw	low STR_12
  5081   003C8E  6E0B               	movwf	LCD_String_xy@msg^0,c
  5082   003C90  500B               	movf	LCD_String_xy@msg^0,w,c
  5083   003C92  A4D8               	btfss	status,2,c
  5084   003C94  0E20               	movlw	high __smallconst
  5085   003C96  6E0C               	movwf	(LCD_String_xy@msg+1)^0,c
  5086   003C98  0E01               	movlw	1
  5087   003C9A  ECFA  F039         	call	_LCD_String_xy
  5088   003C9E  0E1A               	movlw	26
  5089   003CA0  0100               	movlb	0	; () banked
  5090   003CA2  6F93               	movwf	(??_main+1)& (0+255),b
  5091   003CA4  0E5E               	movlw	94
  5092   003CA6  6F92               	movwf	??_main& (0+255),b
  5093   003CA8  0E6E               	movlw	110
  5094   003CAA                     u6727:
  5095   003CAA  2EE8               	decfsz	wreg,f,c
  5096   003CAC  D7FE               	bra	u6727
  5097   003CAE  2F92               	decfsz	??_main& (0+255),f,b
  5098   003CB0  D7FC               	bra	u6727
  5099   003CB2  2F93               	decfsz	(??_main+1)& (0+255),f,b
  5100   003CB4  D7FA               	bra	u6727
  5101   003CB6  0000               	nop	
  5102   003CB8  0E00               	movlw	0
  5103   003CBA  6E56               	movwf	_count1^0,c
  5104   003CBC  0E00               	movlw	0
  5105   003CBE  6E57               	movwf	(_count1+1)^0,c
  5106   003CC0  0E00               	movlw	0
  5107   003CC2  6E58               	movwf	(_count1+2)^0,c
  5108   003CC4  0E00               	movlw	0
  5109   003CC6  6E59               	movwf	(_count1+3)^0,c
  5110   003CC8  EF88  F01E         	goto	l6301
  5111   003CCC                     l6293:
  5112   003CCC  ECCD  F03A         	call	_LCD_Clear	;wreg free
  5113   003CD0  0E00               	movlw	0
  5114   003CD2  6E0A               	movwf	LCD_String_xy@pos^0,c
  5115   003CD4  0E72               	movlw	low STR_13
  5116   003CD6  6E0B               	movwf	LCD_String_xy@msg^0,c
  5117   003CD8  500B               	movf	LCD_String_xy@msg^0,w,c
  5118   003CDA  A4D8               	btfss	status,2,c
  5119   003CDC  0E20               	movlw	high __smallconst
  5120   003CDE  6E0C               	movwf	(LCD_String_xy@msg+1)^0,c
  5121   003CE0  0E01               	movlw	1
  5122   003CE2  ECFA  F039         	call	_LCD_String_xy
  5123   003CE6  0E1A               	movlw	26
  5124   003CE8  0100               	movlb	0	; () banked
  5125   003CEA  6F93               	movwf	(??_main+1)& (0+255),b
  5126   003CEC  0E5E               	movlw	94
  5127   003CEE  6F92               	movwf	??_main& (0+255),b
  5128   003CF0  0E6E               	movlw	110
  5129   003CF2                     u6737:
  5130   003CF2  2EE8               	decfsz	wreg,f,c
  5131   003CF4  D7FE               	bra	u6737
  5132   003CF6  2F92               	decfsz	??_main& (0+255),f,b
  5133   003CF8  D7FC               	bra	u6737
  5134   003CFA  2F93               	decfsz	(??_main+1)& (0+255),f,b
  5135   003CFC  D7FA               	bra	u6737
  5136   003CFE  0000               	nop	
  5137   003D00  0E00               	movlw	0
  5138   003D02  6E56               	movwf	_count1^0,c
  5139   003D04  0E00               	movlw	0
  5140   003D06  6E57               	movwf	(_count1+1)^0,c
  5141   003D08  0E00               	movlw	0
  5142   003D0A  6E58               	movwf	(_count1+2)^0,c
  5143   003D0C  0E00               	movlw	0
  5144   003D0E  6E59               	movwf	(_count1+3)^0,c
  5145   003D10                     l6301:
  5146   003D10  ECCD  F03A         	call	_LCD_Clear	;wreg free
  5147   003D14  0E00               	movlw	0
  5148   003D16  6E0A               	movwf	LCD_String_xy@pos^0,c
  5149   003D18  0E24               	movlw	low STR_14
  5150   003D1A  6E0B               	movwf	LCD_String_xy@msg^0,c
  5151   003D1C  500B               	movf	LCD_String_xy@msg^0,w,c
  5152   003D1E  A4D8               	btfss	status,2,c
  5153   003D20  0E20               	movlw	high __smallconst
  5154   003D22  6E0C               	movwf	(LCD_String_xy@msg+1)^0,c
  5155   003D24  0E01               	movlw	1
  5156   003D26  ECFA  F039         	call	_LCD_String_xy
  5157   003D2A  0E06               	movlw	6
  5158   003D2C  0100               	movlb	0	; () banked
  5159   003D2E  6F93               	movwf	(??_main+1)& (0+255),b
  5160   003D30  0E13               	movlw	19
  5161   003D32  6F92               	movwf	??_main& (0+255),b
  5162   003D34  0EAD               	movlw	173
  5163   003D36                     u6747:
  5164   003D36  2EE8               	decfsz	wreg,f,c
  5165   003D38  D7FE               	bra	u6747
  5166   003D3A  2F92               	decfsz	??_main& (0+255),f,b
  5167   003D3C  D7FC               	bra	u6747
  5168   003D3E  2F93               	decfsz	(??_main+1)& (0+255),f,b
  5169   003D40  D7FA               	bra	u6747
  5170   003D42  D000               	nop2	
  5171   003D44  0E00               	movlw	0
  5172   003D46  6E0A               	movwf	LCD_String_xy@pos^0,c
  5173   003D48  0E35               	movlw	low STR_15
  5174   003D4A  6E0B               	movwf	LCD_String_xy@msg^0,c
  5175   003D4C  500B               	movf	LCD_String_xy@msg^0,w,c
  5176   003D4E  A4D8               	btfss	status,2,c
  5177   003D50  0E20               	movlw	high __smallconst
  5178   003D52  6E0C               	movwf	(LCD_String_xy@msg+1)^0,c
  5179   003D54  0E01               	movlw	1
  5180   003D56  ECFA  F039         	call	_LCD_String_xy
  5181   003D5A  0E06               	movlw	6
  5182   003D5C  0100               	movlb	0	; () banked
  5183   003D5E  6F93               	movwf	(??_main+1)& (0+255),b
  5184   003D60  0E13               	movlw	19
  5185   003D62  6F92               	movwf	??_main& (0+255),b
  5186   003D64  0EAD               	movlw	173
  5187   003D66                     u6757:
  5188   003D66  2EE8               	decfsz	wreg,f,c
  5189   003D68  D7FE               	bra	u6757
  5190   003D6A  2F92               	decfsz	??_main& (0+255),f,b
  5191   003D6C  D7FC               	bra	u6757
  5192   003D6E  2F93               	decfsz	(??_main+1)& (0+255),f,b
  5193   003D70  D7FA               	bra	u6757
  5194   003D72  D000               	nop2	
  5195   003D74  0E00               	movlw	0
  5196   003D76  6E0A               	movwf	LCD_String_xy@pos^0,c
  5197   003D78  0E13               	movlw	low STR_16
  5198   003D7A  6E0B               	movwf	LCD_String_xy@msg^0,c
  5199   003D7C  500B               	movf	LCD_String_xy@msg^0,w,c
  5200   003D7E  A4D8               	btfss	status,2,c
  5201   003D80  0E20               	movlw	high __smallconst
  5202   003D82  6E0C               	movwf	(LCD_String_xy@msg+1)^0,c
  5203   003D84  0E01               	movlw	1
  5204   003D86  ECFA  F039         	call	_LCD_String_xy
  5205   003D8A  0E06               	movlw	6
  5206   003D8C  0100               	movlb	0	; () banked
  5207   003D8E  6F93               	movwf	(??_main+1)& (0+255),b
  5208   003D90  0E13               	movlw	19
  5209   003D92  6F92               	movwf	??_main& (0+255),b
  5210   003D94  0EAD               	movlw	173
  5211   003D96                     u6767:
  5212   003D96  2EE8               	decfsz	wreg,f,c
  5213   003D98  D7FE               	bra	u6767
  5214   003D9A  2F92               	decfsz	??_main& (0+255),f,b
  5215   003D9C  D7FC               	bra	u6767
  5216   003D9E  2F93               	decfsz	(??_main+1)& (0+255),f,b
  5217   003DA0  D7FA               	bra	u6767
  5218   003DA2  D000               	nop2	
  5219   003DA4  ECCD  F03A         	call	_LCD_Clear	;wreg free
  5220   003DA8  EC58  F038         	call	_rand	;wreg free
  5221   003DAC  0E0F               	movlw	15
  5222   003DAE  140D               	andwf	?_rand^0,w,c
  5223   003DB0  6E5A               	movwf	_num^0,c
  5224   003DB2  6A5B               	clrf	(_num+1)^0,c
  5225   003DB4  0060  F16B  FFCD   	movff	_num,16333	;volatile
  5226   003DBA  0E06               	movlw	6
  5227   003DBC  0100               	movlb	0	; () banked
  5228   003DBE  6F93               	movwf	(??_main+1)& (0+255),b
  5229   003DC0  0E13               	movlw	19
  5230   003DC2  6F92               	movwf	??_main& (0+255),b
  5231   003DC4  0EAD               	movlw	173
  5232   003DC6                     u6777:
  5233   003DC6  2EE8               	decfsz	wreg,f,c
  5234   003DC8  D7FE               	bra	u6777
  5235   003DCA  2F92               	decfsz	??_main& (0+255),f,b
  5236   003DCC  D7FC               	bra	u6777
  5237   003DCE  2F93               	decfsz	(??_main+1)& (0+255),f,b
  5238   003DD0  D7FA               	bra	u6777
  5239   003DD2  D000               	nop2	
  5240   003DD4  6ACD               	clrf	205,c	;volatile
  5241   003DD6  0E82               	movlw	130
  5242   003DD8  0100               	movlb	0	; () banked
  5243   003DDA  6F92               	movwf	??_main& (0+255),b
  5244   003DDC  0EDD               	movlw	221
  5245   003DDE                     u6787:
  5246   003DDE  2EE8               	decfsz	wreg,f,c
  5247   003DE0  D7FE               	bra	u6787
  5248   003DE2  2F92               	decfsz	??_main& (0+255),f,b
  5249   003DE4  D7FC               	bra	u6787
  5250   003DE6  D000               	nop2	
  5251   003DE8  0E00               	movlw	0
  5252   003DEA  6E0A               	movwf	LCD_String_xy@pos^0,c
  5253   003DEC  0E8C               	movlw	low STR_6
  5254   003DEE  6E0B               	movwf	LCD_String_xy@msg^0,c
  5255   003DF0  500B               	movf	LCD_String_xy@msg^0,w,c
  5256   003DF2  A4D8               	btfss	status,2,c
  5257   003DF4  0E20               	movlw	high __smallconst
  5258   003DF6  6E0C               	movwf	(LCD_String_xy@msg+1)^0,c
  5259   003DF8  0E01               	movlw	1
  5260   003DFA  ECFA  F039         	call	_LCD_String_xy
  5261   003DFE  0E04               	movlw	4
  5262   003E00  6E0A               	movwf	LCD_String_xy@pos^0,c
  5263   003E02  0EA9               	movlw	low STR_7
  5264   003E04  6E0B               	movwf	LCD_String_xy@msg^0,c
  5265   003E06  500B               	movf	LCD_String_xy@msg^0,w,c
  5266   003E08  A4D8               	btfss	status,2,c
  5267   003E0A  0E20               	movlw	high __smallconst
  5268   003E0C  6E0C               	movwf	(LCD_String_xy@msg+1)^0,c
  5269   003E0E  0E02               	movlw	2
  5270   003E10  ECFA  F039         	call	_LCD_String_xy
  5271   003E14  EFAC  F01F         	goto	l6353
  5272   003E18                     l190:
  5273   003E18  B2CE               	btfsc	206,1,c	;volatile
  5274   003E1A  EF11  F01F         	goto	u5881
  5275   003E1E  EF13  F01F         	goto	u5880
  5276   003E22                     u5881:
  5277   003E22  EF5C  F01F         	goto	l6341
  5278   003E26                     u5880:
  5279   003E26  C056  F001         	movff	_count1,___fladd@b
  5280   003E2A  C057  F002         	movff	_count1+1,___fladd@b+1
  5281   003E2E  C058  F003         	movff	_count1+2,___fladd@b+2
  5282   003E32  C059  F004         	movff	_count1+3,___fladd@b+3
  5283   003E36  0E00               	movlw	0
  5284   003E38  6E05               	movwf	___fladd@a^0,c
  5285   003E3A  0E00               	movlw	0
  5286   003E3C  6E06               	movwf	(___fladd@a+1)^0,c
  5287   003E3E  0E80               	movlw	128
  5288   003E40  6E07               	movwf	(___fladd@a+2)^0,c
  5289   003E42  0E3F               	movlw	63
  5290   003E44  6E08               	movwf	(___fladd@a+3)^0,c
  5291   003E46  EC48  F02A         	call	___fladd	;wreg free
  5292   003E4A  C001  F056         	movff	?___fladd,_count1
  5293   003E4E  C002  F057         	movff	?___fladd+1,_count1+1
  5294   003E52  C003  F058         	movff	?___fladd+2,_count1+2
  5295   003E56  C004  F059         	movff	?___fladd+3,_count1+3
  5296   003E5A  0E02               	movlw	2
  5297   003E5C  0100               	movlb	0	; () banked
  5298   003E5E  6F93               	movwf	(??_main+1)& (0+255),b
  5299   003E60  0E45               	movlw	69
  5300   003E62  6F92               	movwf	??_main& (0+255),b
  5301   003E64  0EA9               	movlw	169
  5302   003E66                     u6797:
  5303   003E66  2EE8               	decfsz	wreg,f,c
  5304   003E68  D7FE               	bra	u6797
  5305   003E6A  2F92               	decfsz	??_main& (0+255),f,b
  5306   003E6C  D7FC               	bra	u6797
  5307   003E6E  2F93               	decfsz	(??_main+1)& (0+255),f,b
  5308   003E70  D7FA               	bra	u6797
  5309   003E72  D000               	nop2	
  5310   003E74  0EAC               	movlw	low _data
  5311   003E76  0100               	movlb	0	; () banked
  5312   003E78  6F8C               	movwf	sprintf@s& (0+255),b
  5313   003E7A  0EAE               	movlw	low STR_1
  5314   003E7C  6F8D               	movwf	sprintf@fmt& (0+255),b
  5315   003E7E  C056  F08E         	movff	_count1,?_sprintf+2
  5316   003E82  C057  F08F         	movff	_count1+1,?_sprintf+3
  5317   003E86  C058  F090         	movff	_count1+2,?_sprintf+4
  5318   003E8A  C059  F091         	movff	_count1+3,?_sprintf+5
  5319   003E8E  EC36  F03A         	call	_sprintf	;wreg free
  5320   003E92  0E00               	movlw	0
  5321   003E94  6E0A               	movwf	LCD_String_xy@pos^0,c
  5322   003E96  0E8C               	movlw	low STR_6
  5323   003E98  6E0B               	movwf	LCD_String_xy@msg^0,c
  5324   003E9A  500B               	movf	LCD_String_xy@msg^0,w,c
  5325   003E9C  A4D8               	btfss	status,2,c
  5326   003E9E  0E20               	movlw	high __smallconst
  5327   003EA0  6E0C               	movwf	(LCD_String_xy@msg+1)^0,c
  5328   003EA2  0E01               	movlw	1
  5329   003EA4  ECFA  F039         	call	_LCD_String_xy
  5330   003EA8  0E04               	movlw	4
  5331   003EAA  6E0A               	movwf	LCD_String_xy@pos^0,c
  5332   003EAC  0EAC               	movlw	low _data
  5333   003EAE  6E0B               	movwf	LCD_String_xy@msg^0,c
  5334   003EB0  6A0C               	clrf	(LCD_String_xy@msg+1)^0,c
  5335   003EB2  0E02               	movlw	2
  5336   003EB4  ECFA  F039         	call	_LCD_String_xy
  5337   003EB8                     l6341:
  5338   003EB8  B0CE               	btfsc	206,0,c	;volatile
  5339   003EBA  EF61  F01F         	goto	u5891
  5340   003EBE  EF63  F01F         	goto	u5890
  5341   003EC2                     u5891:
  5342   003EC2  EFAC  F01F         	goto	l6353
  5343   003EC6                     u5890:
  5344   003EC6  C056  F028         	movff	_count1,___flsub@b
  5345   003ECA  C057  F029         	movff	_count1+1,___flsub@b+1
  5346   003ECE  C058  F02A         	movff	_count1+2,___flsub@b+2
  5347   003ED2  C059  F02B         	movff	_count1+3,___flsub@b+3
  5348   003ED6  0E00               	movlw	0
  5349   003ED8  6E2C               	movwf	___flsub@a^0,c
  5350   003EDA  0E00               	movlw	0
  5351   003EDC  6E2D               	movwf	(___flsub@a+1)^0,c
  5352   003EDE  0E80               	movlw	128
  5353   003EE0  6E2E               	movwf	(___flsub@a+2)^0,c
  5354   003EE2  0E3F               	movlw	63
  5355   003EE4  6E2F               	movwf	(___flsub@a+3)^0,c
  5356   003EE6  EC95  F039         	call	___flsub	;wreg free
  5357   003EEA  C028  F056         	movff	?___flsub,_count1
  5358   003EEE  C029  F057         	movff	?___flsub+1,_count1+1
  5359   003EF2  C02A  F058         	movff	?___flsub+2,_count1+2
  5360   003EF6  C02B  F059         	movff	?___flsub+3,_count1+3
  5361   003EFA  0E02               	movlw	2
  5362   003EFC  0100               	movlb	0	; () banked
  5363   003EFE  6F93               	movwf	(??_main+1)& (0+255),b
  5364   003F00  0E45               	movlw	69
  5365   003F02  6F92               	movwf	??_main& (0+255),b
  5366   003F04  0EA9               	movlw	169
  5367   003F06                     u6807:
  5368   003F06  2EE8               	decfsz	wreg,f,c
  5369   003F08  D7FE               	bra	u6807
  5370   003F0A  2F92               	decfsz	??_main& (0+255),f,b
  5371   003F0C  D7FC               	bra	u6807
  5372   003F0E  2F93               	decfsz	(??_main+1)& (0+255),f,b
  5373   003F10  D7FA               	bra	u6807
  5374   003F12  D000               	nop2	
  5375   003F14  0EAC               	movlw	low _data
  5376   003F16  0100               	movlb	0	; () banked
  5377   003F18  6F8C               	movwf	sprintf@s& (0+255),b
  5378   003F1A  0EAE               	movlw	low STR_1
  5379   003F1C  6F8D               	movwf	sprintf@fmt& (0+255),b
  5380   003F1E  C056  F08E         	movff	_count1,?_sprintf+2
  5381   003F22  C057  F08F         	movff	_count1+1,?_sprintf+3
  5382   003F26  C058  F090         	movff	_count1+2,?_sprintf+4
  5383   003F2A  C059  F091         	movff	_count1+3,?_sprintf+5
  5384   003F2E  EC36  F03A         	call	_sprintf	;wreg free
  5385   003F32  0E00               	movlw	0
  5386   003F34  6E0A               	movwf	LCD_String_xy@pos^0,c
  5387   003F36  0E8C               	movlw	low STR_6
  5388   003F38  6E0B               	movwf	LCD_String_xy@msg^0,c
  5389   003F3A  500B               	movf	LCD_String_xy@msg^0,w,c
  5390   003F3C  A4D8               	btfss	status,2,c
  5391   003F3E  0E20               	movlw	high __smallconst
  5392   003F40  6E0C               	movwf	(LCD_String_xy@msg+1)^0,c
  5393   003F42  0E01               	movlw	1
  5394   003F44  ECFA  F039         	call	_LCD_String_xy
  5395   003F48  0E04               	movlw	4
  5396   003F4A  6E0A               	movwf	LCD_String_xy@pos^0,c
  5397   003F4C  0EAC               	movlw	low _data
  5398   003F4E  6E0B               	movwf	LCD_String_xy@msg^0,c
  5399   003F50  6A0C               	clrf	(LCD_String_xy@msg+1)^0,c
  5400   003F52  0E02               	movlw	2
  5401   003F54  ECFA  F039         	call	_LCD_String_xy
  5402   003F58                     l6353:
  5403   003F58  BCCD               	btfsc	205,6,c	;volatile
  5404   003F5A  EFB1  F01F         	goto	u5901
  5405   003F5E  EFB3  F01F         	goto	u5900
  5406   003F62                     u5901:
  5407   003F62  EF0C  F01F         	goto	l190
  5408   003F66                     u5900:
  5409   003F66  C05A  F001         	movff	_num,___xxtofl@val
  5410   003F6A  C05B  F002         	movff	_num+1,___xxtofl@val+1
  5411   003F6E  0E00               	movlw	0
  5412   003F70  BE02               	btfsc	(___xxtofl@val+1)^0,7,c
  5413   003F72  0EFF               	movlw	-1
  5414   003F74  6E03               	movwf	(___xxtofl@val+2)^0,c
  5415   003F76  6E04               	movwf	(___xxtofl@val+3)^0,c
  5416   003F78  0E01               	movlw	1
  5417   003F7A  ECFC  F032         	call	___xxtofl
  5418   003F7E  C001  F00F         	movff	?___xxtofl,___fleq@ff1
  5419   003F82  C002  F010         	movff	?___xxtofl+1,___fleq@ff1+1
  5420   003F86  C003  F011         	movff	?___xxtofl+2,___fleq@ff1+2
  5421   003F8A  C004  F012         	movff	?___xxtofl+3,___fleq@ff1+3
  5422   003F8E  C056  F013         	movff	_count1,___fleq@ff2
  5423   003F92  C057  F014         	movff	_count1+1,___fleq@ff2+1
  5424   003F96  C058  F015         	movff	_count1+2,___fleq@ff2+2
  5425   003F9A  C059  F016         	movff	_count1+3,___fleq@ff2+3
  5426   003F9E  EC81  F037         	call	___fleq	;wreg free
  5427   003FA2  A0D8               	btfss	status,0,c
  5428   003FA4  EFD6  F01F         	goto	u5911
  5429   003FA8  EFD8  F01F         	goto	u5910
  5430   003FAC                     u5911:
  5431   003FAC  EF02  F020         	goto	l6367
  5432   003FB0                     u5910:
  5433   003FB0  ECCD  F03A         	call	_LCD_Clear	;wreg free
  5434   003FB4  0E01               	movlw	1
  5435   003FB6  245C               	addwf	_count2^0,w,c
  5436   003FB8  6E5C               	movwf	_count2^0,c
  5437   003FBA  0E00               	movlw	0
  5438   003FBC  205D               	addwfc	(_count2+1)^0,w,c
  5439   003FBE  6E5D               	movwf	(_count2+1)^0,c
  5440   003FC0  0E00               	movlw	0
  5441   003FC2  6E0A               	movwf	LCD_String_xy@pos^0,c
  5442   003FC4  0E99               	movlw	low STR_12
  5443   003FC6  6E0B               	movwf	LCD_String_xy@msg^0,c
  5444   003FC8  500B               	movf	LCD_String_xy@msg^0,w,c
  5445   003FCA  A4D8               	btfss	status,2,c
  5446   003FCC  0E20               	movlw	high __smallconst
  5447   003FCE  6E0C               	movwf	(LCD_String_xy@msg+1)^0,c
  5448   003FD0  0E01               	movlw	1
  5449   003FD2  ECFA  F039         	call	_LCD_String_xy
  5450   003FD6  0E1A               	movlw	26
  5451   003FD8  0100               	movlb	0	; () banked
  5452   003FDA  6F93               	movwf	(??_main+1)& (0+255),b
  5453   003FDC  0E5E               	movlw	94
  5454   003FDE  6F92               	movwf	??_main& (0+255),b
  5455   003FE0  0E6E               	movlw	110
  5456   003FE2                     u6817:
  5457   003FE2  2EE8               	decfsz	wreg,f,c
  5458   003FE4  D7FE               	bra	u6817
  5459   003FE6  2F92               	decfsz	??_main& (0+255),f,b
  5460   003FE8  D7FC               	bra	u6817
  5461   003FEA  2F93               	decfsz	(??_main+1)& (0+255),f,b
  5462   003FEC  D7FA               	bra	u6817
  5463   003FEE  0000               	nop	
  5464   003FF0  0E00               	movlw	0
  5465   003FF2  6E56               	movwf	_count1^0,c
  5466   003FF4  0E00               	movlw	0
  5467   003FF6  6E57               	movwf	(_count1+1)^0,c
  5468   003FF8  0E00               	movlw	0
  5469   003FFA  6E58               	movwf	(_count1+2)^0,c
  5470   003FFC  0E00               	movlw	0
  5471   003FFE  6E59               	movwf	(_count1+3)^0,c
  5472   004000  EF24  F020         	goto	l6375
  5473   004004                     l6367:
  5474   004004  ECCD  F03A         	call	_LCD_Clear	;wreg free
  5475   004008  0E00               	movlw	0
  5476   00400A  6E0A               	movwf	LCD_String_xy@pos^0,c
  5477   00400C  0E72               	movlw	low STR_13
  5478   00400E  6E0B               	movwf	LCD_String_xy@msg^0,c
  5479   004010  500B               	movf	LCD_String_xy@msg^0,w,c
  5480   004012  A4D8               	btfss	status,2,c
  5481   004014  0E20               	movlw	high __smallconst
  5482   004016  6E0C               	movwf	(LCD_String_xy@msg+1)^0,c
  5483   004018  0E01               	movlw	1
  5484   00401A  ECFA  F039         	call	_LCD_String_xy
  5485   00401E  0E1A               	movlw	26
  5486   004020  0100               	movlb	0	; () banked
  5487   004022  6F93               	movwf	(??_main+1)& (0+255),b
  5488   004024  0E5E               	movlw	94
  5489   004026  6F92               	movwf	??_main& (0+255),b
  5490   004028  0E6E               	movlw	110
  5491   00402A                     u6827:
  5492   00402A  2EE8               	decfsz	wreg,f,c
  5493   00402C  D7FE               	bra	u6827
  5494   00402E  2F92               	decfsz	??_main& (0+255),f,b
  5495   004030  D7FC               	bra	u6827
  5496   004032  2F93               	decfsz	(??_main+1)& (0+255),f,b
  5497   004034  D7FA               	bra	u6827
  5498   004036  0000               	nop	
  5499   004038  0E00               	movlw	0
  5500   00403A  6E56               	movwf	_count1^0,c
  5501   00403C  0E00               	movlw	0
  5502   00403E  6E57               	movwf	(_count1+1)^0,c
  5503   004040  0E00               	movlw	0
  5504   004042  6E58               	movwf	(_count1+2)^0,c
  5505   004044  0E00               	movlw	0
  5506   004046  6E59               	movwf	(_count1+3)^0,c
  5507   004048                     l6375:
  5508   004048  505C               	movf	_count2^0,w,c
  5509   00404A  105D               	iorwf	(_count2+1)^0,w,c
  5510   00404C  A4D8               	btfss	status,2,c
  5511   00404E  EF2B  F020         	goto	u5921
  5512   004052  EF2D  F020         	goto	u5920
  5513   004056                     u5921:
  5514   004056  EF45  F020         	goto	l6381
  5515   00405A                     u5920:
  5516   00405A  0E00               	movlw	0
  5517   00405C  6E0A               	movwf	LCD_String_xy@pos^0,c
  5518   00405E  0E7F               	movlw	low STR_36
  5519   004060  6E0B               	movwf	LCD_String_xy@msg^0,c
  5520   004062  500B               	movf	LCD_String_xy@msg^0,w,c
  5521   004064  A4D8               	btfss	status,2,c
  5522   004066  0E20               	movlw	high __smallconst
  5523   004068  6E0C               	movwf	(LCD_String_xy@msg+1)^0,c
  5524   00406A  0E01               	movlw	1
  5525   00406C  ECFA  F039         	call	_LCD_String_xy
  5526   004070  0E04               	movlw	4
  5527   004072  6E0A               	movwf	LCD_String_xy@pos^0,c
  5528   004074  0EBB               	movlw	low STR_37
  5529   004076  6E0B               	movwf	LCD_String_xy@msg^0,c
  5530   004078  500B               	movf	LCD_String_xy@msg^0,w,c
  5531   00407A  A4D8               	btfss	status,2,c
  5532   00407C  0E20               	movlw	high __smallconst
  5533   00407E  6E0C               	movwf	(LCD_String_xy@msg+1)^0,c
  5534   004080  0E02               	movlw	2
  5535   004082  ECFA  F039         	call	_LCD_String_xy
  5536   004086  EF66  F016         	goto	l5931
  5537   00408A                     l6381:
  5538   00408A  0EAC               	movlw	low _data
  5539   00408C  0100               	movlb	0	; () banked
  5540   00408E  6F8C               	movwf	sprintf@s& (0+255),b
  5541   004090  0EA3               	movlw	low STR_38
  5542   004092  6F8D               	movwf	sprintf@fmt& (0+255),b
  5543   004094  C05C  F08E         	movff	_count2,?_sprintf+2
  5544   004098  C05D  F08F         	movff	_count2+1,?_sprintf+3
  5545   00409C  EC36  F03A         	call	_sprintf	;wreg free
  5546   0040A0  0E00               	movlw	0
  5547   0040A2  6E0A               	movwf	LCD_String_xy@pos^0,c
  5548   0040A4  0E7F               	movlw	low STR_36
  5549   0040A6  6E0B               	movwf	LCD_String_xy@msg^0,c
  5550   0040A8  500B               	movf	LCD_String_xy@msg^0,w,c
  5551   0040AA  A4D8               	btfss	status,2,c
  5552   0040AC  0E20               	movlw	high __smallconst
  5553   0040AE  6E0C               	movwf	(LCD_String_xy@msg+1)^0,c
  5554   0040B0  0E01               	movlw	1
  5555   0040B2  ECFA  F039         	call	_LCD_String_xy
  5556   0040B6  0EAC               	movlw	low _data
  5557   0040B8  6E01               	movwf	strcat@dest^0,c
  5558   0040BA  0EBC               	movlw	low (STR_37+1)
  5559   0040BC  6E02               	movwf	strcat@src^0,c
  5560   0040BE  ECC4  F038         	call	_strcat	;wreg free
  5561   0040C2  0E04               	movlw	4
  5562   0040C4  6E0A               	movwf	LCD_String_xy@pos^0,c
  5563   0040C6  0EAC               	movlw	low _data
  5564   0040C8  6E0B               	movwf	LCD_String_xy@msg^0,c
  5565   0040CA  6A0C               	clrf	(LCD_String_xy@msg+1)^0,c
  5566   0040CC  0E02               	movlw	2
  5567   0040CE  ECFA  F039         	call	_LCD_String_xy
  5568   0040D2  EF66  F016         	goto	l5931
  5569   0040D6                     l6391:
  5570   0040D6  C09C  F00F         	movff	_Difficulty,___fleq@ff1
  5571   0040DA  C09D  F010         	movff	_Difficulty+1,___fleq@ff1+1
  5572   0040DE  C09E  F011         	movff	_Difficulty+2,___fleq@ff1+2
  5573   0040E2  C09F  F012         	movff	_Difficulty+3,___fleq@ff1+3
  5574   0040E6  0E00               	movlw	0
  5575   0040E8  6E13               	movwf	___fleq@ff2^0,c
  5576   0040EA  0E00               	movlw	0
  5577   0040EC  6E14               	movwf	(___fleq@ff2+1)^0,c
  5578   0040EE  0E80               	movlw	128
  5579   0040F0  6E15               	movwf	(___fleq@ff2+2)^0,c
  5580   0040F2  0E3F               	movlw	63
  5581   0040F4  6E16               	movwf	(___fleq@ff2+3)^0,c
  5582   0040F6  EC81  F037         	call	___fleq	;wreg free
  5583   0040FA  A0D8               	btfss	status,0,c
  5584   0040FC  EF82  F020         	goto	u5931
  5585   004100  EF84  F020         	goto	u5930
  5586   004104                     u5931:
  5587   004104  EFAF  F011         	goto	l5719
  5588   004108                     u5930:
  5589   004108  EC58  F038         	call	_rand	;wreg free
  5590   00410C  0E0F               	movlw	15
  5591   00410E  140D               	andwf	?_rand^0,w,c
  5592   004110  6E5A               	movwf	_num^0,c
  5593   004112  6A5B               	clrf	(_num+1)^0,c
  5594   004114  0060  F16B  FFCD   	movff	_num,16333	;volatile
  5595   00411A  0E0B               	movlw	11
  5596   00411C  0100               	movlb	0	; () banked
  5597   00411E  6F93               	movwf	(??_main+1)& (0+255),b
  5598   004120  0E26               	movlw	38
  5599   004122  6F92               	movwf	??_main& (0+255),b
  5600   004124  0E5D               	movlw	93
  5601   004126                     u6837:
  5602   004126  2EE8               	decfsz	wreg,f,c
  5603   004128  D7FE               	bra	u6837
  5604   00412A  2F92               	decfsz	??_main& (0+255),f,b
  5605   00412C  D7FC               	bra	u6837
  5606   00412E  2F93               	decfsz	(??_main+1)& (0+255),f,b
  5607   004130  D7FA               	bra	u6837
  5608   004132  D000               	nop2	
  5609   004134  6ACD               	clrf	205,c	;volatile
  5610   004136  0E82               	movlw	130
  5611   004138  0100               	movlb	0	; () banked
  5612   00413A  6F92               	movwf	??_main& (0+255),b
  5613   00413C  0EDD               	movlw	221
  5614   00413E                     u6847:
  5615   00413E  2EE8               	decfsz	wreg,f,c
  5616   004140  D7FE               	bra	u6847
  5617   004142  2F92               	decfsz	??_main& (0+255),f,b
  5618   004144  D7FC               	bra	u6847
  5619   004146  D000               	nop2	
  5620   004148  0E00               	movlw	0
  5621   00414A  6E0A               	movwf	LCD_String_xy@pos^0,c
  5622   00414C  0E8C               	movlw	low STR_6
  5623   00414E  6E0B               	movwf	LCD_String_xy@msg^0,c
  5624   004150  500B               	movf	LCD_String_xy@msg^0,w,c
  5625   004152  A4D8               	btfss	status,2,c
  5626   004154  0E20               	movlw	high __smallconst
  5627   004156  6E0C               	movwf	(LCD_String_xy@msg+1)^0,c
  5628   004158  0E01               	movlw	1
  5629   00415A  ECFA  F039         	call	_LCD_String_xy
  5630   00415E  0E04               	movlw	4
  5631   004160  6E0A               	movwf	LCD_String_xy@pos^0,c
  5632   004162  0EA9               	movlw	low STR_7
  5633   004164  6E0B               	movwf	LCD_String_xy@msg^0,c
  5634   004166  500B               	movf	LCD_String_xy@msg^0,w,c
  5635   004168  A4D8               	btfss	status,2,c
  5636   00416A  0E20               	movlw	high __smallconst
  5637   00416C  6E0C               	movwf	(LCD_String_xy@msg+1)^0,c
  5638   00416E  0E02               	movlw	2
  5639   004170  ECFA  F039         	call	_LCD_String_xy
  5640   004174  EF5C  F021         	goto	l6429
  5641   004178                     l199:
  5642   004178  B2CE               	btfsc	206,1,c	;volatile
  5643   00417A  EFC1  F020         	goto	u5941
  5644   00417E  EFC3  F020         	goto	u5940
  5645   004182                     u5941:
  5646   004182  EF0C  F021         	goto	l6417
  5647   004186                     u5940:
  5648   004186  C056  F001         	movff	_count1,___fladd@b
  5649   00418A  C057  F002         	movff	_count1+1,___fladd@b+1
  5650   00418E  C058  F003         	movff	_count1+2,___fladd@b+2
  5651   004192  C059  F004         	movff	_count1+3,___fladd@b+3
  5652   004196  0E00               	movlw	0
  5653   004198  6E05               	movwf	___fladd@a^0,c
  5654   00419A  0E00               	movlw	0
  5655   00419C  6E06               	movwf	(___fladd@a+1)^0,c
  5656   00419E  0E80               	movlw	128
  5657   0041A0  6E07               	movwf	(___fladd@a+2)^0,c
  5658   0041A2  0E3F               	movlw	63
  5659   0041A4  6E08               	movwf	(___fladd@a+3)^0,c
  5660   0041A6  EC48  F02A         	call	___fladd	;wreg free
  5661   0041AA  C001  F056         	movff	?___fladd,_count1
  5662   0041AE  C002  F057         	movff	?___fladd+1,_count1+1
  5663   0041B2  C003  F058         	movff	?___fladd+2,_count1+2
  5664   0041B6  C004  F059         	movff	?___fladd+3,_count1+3
  5665   0041BA  0E02               	movlw	2
  5666   0041BC  0100               	movlb	0	; () banked
  5667   0041BE  6F93               	movwf	(??_main+1)& (0+255),b
  5668   0041C0  0E45               	movlw	69
  5669   0041C2  6F92               	movwf	??_main& (0+255),b
  5670   0041C4  0EA9               	movlw	169
  5671   0041C6                     u6857:
  5672   0041C6  2EE8               	decfsz	wreg,f,c
  5673   0041C8  D7FE               	bra	u6857
  5674   0041CA  2F92               	decfsz	??_main& (0+255),f,b
  5675   0041CC  D7FC               	bra	u6857
  5676   0041CE  2F93               	decfsz	(??_main+1)& (0+255),f,b
  5677   0041D0  D7FA               	bra	u6857
  5678   0041D2  D000               	nop2	
  5679   0041D4  0EAC               	movlw	low _data
  5680   0041D6  0100               	movlb	0	; () banked
  5681   0041D8  6F8C               	movwf	sprintf@s& (0+255),b
  5682   0041DA  0EAE               	movlw	low STR_1
  5683   0041DC  6F8D               	movwf	sprintf@fmt& (0+255),b
  5684   0041DE  C056  F08E         	movff	_count1,?_sprintf+2
  5685   0041E2  C057  F08F         	movff	_count1+1,?_sprintf+3
  5686   0041E6  C058  F090         	movff	_count1+2,?_sprintf+4
  5687   0041EA  C059  F091         	movff	_count1+3,?_sprintf+5
  5688   0041EE  EC36  F03A         	call	_sprintf	;wreg free
  5689   0041F2  0E00               	movlw	0
  5690   0041F4  6E0A               	movwf	LCD_String_xy@pos^0,c
  5691   0041F6  0E8C               	movlw	low STR_6
  5692   0041F8  6E0B               	movwf	LCD_String_xy@msg^0,c
  5693   0041FA  500B               	movf	LCD_String_xy@msg^0,w,c
  5694   0041FC  A4D8               	btfss	status,2,c
  5695   0041FE  0E20               	movlw	high __smallconst
  5696   004200  6E0C               	movwf	(LCD_String_xy@msg+1)^0,c
  5697   004202  0E01               	movlw	1
  5698   004204  ECFA  F039         	call	_LCD_String_xy
  5699   004208  0E04               	movlw	4
  5700   00420A  6E0A               	movwf	LCD_String_xy@pos^0,c
  5701   00420C  0EAC               	movlw	low _data
  5702   00420E  6E0B               	movwf	LCD_String_xy@msg^0,c
  5703   004210  6A0C               	clrf	(LCD_String_xy@msg+1)^0,c
  5704   004212  0E02               	movlw	2
  5705   004214  ECFA  F039         	call	_LCD_String_xy
  5706   004218                     l6417:
  5707   004218  B0CE               	btfsc	206,0,c	;volatile
  5708   00421A  EF11  F021         	goto	u5951
  5709   00421E  EF13  F021         	goto	u5950
  5710   004222                     u5951:
  5711   004222  EF5C  F021         	goto	l6429
  5712   004226                     u5950:
  5713   004226  C056  F028         	movff	_count1,___flsub@b
  5714   00422A  C057  F029         	movff	_count1+1,___flsub@b+1
  5715   00422E  C058  F02A         	movff	_count1+2,___flsub@b+2
  5716   004232  C059  F02B         	movff	_count1+3,___flsub@b+3
  5717   004236  0E00               	movlw	0
  5718   004238  6E2C               	movwf	___flsub@a^0,c
  5719   00423A  0E00               	movlw	0
  5720   00423C  6E2D               	movwf	(___flsub@a+1)^0,c
  5721   00423E  0E80               	movlw	128
  5722   004240  6E2E               	movwf	(___flsub@a+2)^0,c
  5723   004242  0E3F               	movlw	63
  5724   004244  6E2F               	movwf	(___flsub@a+3)^0,c
  5725   004246  EC95  F039         	call	___flsub	;wreg free
  5726   00424A  C028  F056         	movff	?___flsub,_count1
  5727   00424E  C029  F057         	movff	?___flsub+1,_count1+1
  5728   004252  C02A  F058         	movff	?___flsub+2,_count1+2
  5729   004256  C02B  F059         	movff	?___flsub+3,_count1+3
  5730   00425A  0E02               	movlw	2
  5731   00425C  0100               	movlb	0	; () banked
  5732   00425E  6F93               	movwf	(??_main+1)& (0+255),b
  5733   004260  0E45               	movlw	69
  5734   004262  6F92               	movwf	??_main& (0+255),b
  5735   004264  0EA9               	movlw	169
  5736   004266                     u6867:
  5737   004266  2EE8               	decfsz	wreg,f,c
  5738   004268  D7FE               	bra	u6867
  5739   00426A  2F92               	decfsz	??_main& (0+255),f,b
  5740   00426C  D7FC               	bra	u6867
  5741   00426E  2F93               	decfsz	(??_main+1)& (0+255),f,b
  5742   004270  D7FA               	bra	u6867
  5743   004272  D000               	nop2	
  5744   004274  0EAC               	movlw	low _data
  5745   004276  0100               	movlb	0	; () banked
  5746   004278  6F8C               	movwf	sprintf@s& (0+255),b
  5747   00427A  0EAE               	movlw	low STR_1
  5748   00427C  6F8D               	movwf	sprintf@fmt& (0+255),b
  5749   00427E  C056  F08E         	movff	_count1,?_sprintf+2
  5750   004282  C057  F08F         	movff	_count1+1,?_sprintf+3
  5751   004286  C058  F090         	movff	_count1+2,?_sprintf+4
  5752   00428A  C059  F091         	movff	_count1+3,?_sprintf+5
  5753   00428E  EC36  F03A         	call	_sprintf	;wreg free
  5754   004292  0E00               	movlw	0
  5755   004294  6E0A               	movwf	LCD_String_xy@pos^0,c
  5756   004296  0E8C               	movlw	low STR_6
  5757   004298  6E0B               	movwf	LCD_String_xy@msg^0,c
  5758   00429A  500B               	movf	LCD_String_xy@msg^0,w,c
  5759   00429C  A4D8               	btfss	status,2,c
  5760   00429E  0E20               	movlw	high __smallconst
  5761   0042A0  6E0C               	movwf	(LCD_String_xy@msg+1)^0,c
  5762   0042A2  0E01               	movlw	1
  5763   0042A4  ECFA  F039         	call	_LCD_String_xy
  5764   0042A8  0E04               	movlw	4
  5765   0042AA  6E0A               	movwf	LCD_String_xy@pos^0,c
  5766   0042AC  0EAC               	movlw	low _data
  5767   0042AE  6E0B               	movwf	LCD_String_xy@msg^0,c
  5768   0042B0  6A0C               	clrf	(LCD_String_xy@msg+1)^0,c
  5769   0042B2  0E02               	movlw	2
  5770   0042B4  ECFA  F039         	call	_LCD_String_xy
  5771   0042B8                     l6429:
  5772   0042B8  BCCD               	btfsc	205,6,c	;volatile
  5773   0042BA  EF61  F021         	goto	u5961
  5774   0042BE  EF63  F021         	goto	u5960
  5775   0042C2                     u5961:
  5776   0042C2  EFBC  F020         	goto	l199
  5777   0042C6                     u5960:
  5778   0042C6  C05A  F001         	movff	_num,___xxtofl@val
  5779   0042CA  C05B  F002         	movff	_num+1,___xxtofl@val+1
  5780   0042CE  0E00               	movlw	0
  5781   0042D0  BE02               	btfsc	(___xxtofl@val+1)^0,7,c
  5782   0042D2  0EFF               	movlw	-1
  5783   0042D4  6E03               	movwf	(___xxtofl@val+2)^0,c
  5784   0042D6  6E04               	movwf	(___xxtofl@val+3)^0,c
  5785   0042D8  0E01               	movlw	1
  5786   0042DA  ECFC  F032         	call	___xxtofl
  5787   0042DE  C001  F00F         	movff	?___xxtofl,___fleq@ff1
  5788   0042E2  C002  F010         	movff	?___xxtofl+1,___fleq@ff1+1
  5789   0042E6  C003  F011         	movff	?___xxtofl+2,___fleq@ff1+2
  5790   0042EA  C004  F012         	movff	?___xxtofl+3,___fleq@ff1+3
  5791   0042EE  C056  F013         	movff	_count1,___fleq@ff2
  5792   0042F2  C057  F014         	movff	_count1+1,___fleq@ff2+1
  5793   0042F6  C058  F015         	movff	_count1+2,___fleq@ff2+2
  5794   0042FA  C059  F016         	movff	_count1+3,___fleq@ff2+3
  5795   0042FE  EC81  F037         	call	___fleq	;wreg free
  5796   004302  A0D8               	btfss	status,0,c
  5797   004304  EF86  F021         	goto	u5971
  5798   004308  EF88  F021         	goto	u5970
  5799   00430C                     u5971:
  5800   00430C  EFB2  F021         	goto	l6443
  5801   004310                     u5970:
  5802   004310  ECCD  F03A         	call	_LCD_Clear	;wreg free
  5803   004314  0E01               	movlw	1
  5804   004316  245C               	addwf	_count2^0,w,c
  5805   004318  6E5C               	movwf	_count2^0,c
  5806   00431A  0E00               	movlw	0
  5807   00431C  205D               	addwfc	(_count2+1)^0,w,c
  5808   00431E  6E5D               	movwf	(_count2+1)^0,c
  5809   004320  0E00               	movlw	0
  5810   004322  6E0A               	movwf	LCD_String_xy@pos^0,c
  5811   004324  0E99               	movlw	low STR_12
  5812   004326  6E0B               	movwf	LCD_String_xy@msg^0,c
  5813   004328  500B               	movf	LCD_String_xy@msg^0,w,c
  5814   00432A  A4D8               	btfss	status,2,c
  5815   00432C  0E20               	movlw	high __smallconst
  5816   00432E  6E0C               	movwf	(LCD_String_xy@msg+1)^0,c
  5817   004330  0E01               	movlw	1
  5818   004332  ECFA  F039         	call	_LCD_String_xy
  5819   004336  0E1A               	movlw	26
  5820   004338  0100               	movlb	0	; () banked
  5821   00433A  6F93               	movwf	(??_main+1)& (0+255),b
  5822   00433C  0E5E               	movlw	94
  5823   00433E  6F92               	movwf	??_main& (0+255),b
  5824   004340  0E6E               	movlw	110
  5825   004342                     u6877:
  5826   004342  2EE8               	decfsz	wreg,f,c
  5827   004344  D7FE               	bra	u6877
  5828   004346  2F92               	decfsz	??_main& (0+255),f,b
  5829   004348  D7FC               	bra	u6877
  5830   00434A  2F93               	decfsz	(??_main+1)& (0+255),f,b
  5831   00434C  D7FA               	bra	u6877
  5832   00434E  0000               	nop	
  5833   004350  0E00               	movlw	0
  5834   004352  6E56               	movwf	_count1^0,c
  5835   004354  0E00               	movlw	0
  5836   004356  6E57               	movwf	(_count1+1)^0,c
  5837   004358  0E00               	movlw	0
  5838   00435A  6E58               	movwf	(_count1+2)^0,c
  5839   00435C  0E00               	movlw	0
  5840   00435E  6E59               	movwf	(_count1+3)^0,c
  5841   004360  EFD4  F021         	goto	l6451
  5842   004364                     l6443:
  5843   004364  ECCD  F03A         	call	_LCD_Clear	;wreg free
  5844   004368  0E00               	movlw	0
  5845   00436A  6E0A               	movwf	LCD_String_xy@pos^0,c
  5846   00436C  0E72               	movlw	low STR_13
  5847   00436E  6E0B               	movwf	LCD_String_xy@msg^0,c
  5848   004370  500B               	movf	LCD_String_xy@msg^0,w,c
  5849   004372  A4D8               	btfss	status,2,c
  5850   004374  0E20               	movlw	high __smallconst
  5851   004376  6E0C               	movwf	(LCD_String_xy@msg+1)^0,c
  5852   004378  0E01               	movlw	1
  5853   00437A  ECFA  F039         	call	_LCD_String_xy
  5854   00437E  0E1A               	movlw	26
  5855   004380  0100               	movlb	0	; () banked
  5856   004382  6F93               	movwf	(??_main+1)& (0+255),b
  5857   004384  0E5E               	movlw	94
  5858   004386  6F92               	movwf	??_main& (0+255),b
  5859   004388  0E6E               	movlw	110
  5860   00438A                     u6887:
  5861   00438A  2EE8               	decfsz	wreg,f,c
  5862   00438C  D7FE               	bra	u6887
  5863   00438E  2F92               	decfsz	??_main& (0+255),f,b
  5864   004390  D7FC               	bra	u6887
  5865   004392  2F93               	decfsz	(??_main+1)& (0+255),f,b
  5866   004394  D7FA               	bra	u6887
  5867   004396  0000               	nop	
  5868   004398  0E00               	movlw	0
  5869   00439A  6E56               	movwf	_count1^0,c
  5870   00439C  0E00               	movlw	0
  5871   00439E  6E57               	movwf	(_count1+1)^0,c
  5872   0043A0  0E00               	movlw	0
  5873   0043A2  6E58               	movwf	(_count1+2)^0,c
  5874   0043A4  0E00               	movlw	0
  5875   0043A6  6E59               	movwf	(_count1+3)^0,c
  5876   0043A8                     l6451:
  5877   0043A8  ECCD  F03A         	call	_LCD_Clear	;wreg free
  5878   0043AC  0E00               	movlw	0
  5879   0043AE  6E0A               	movwf	LCD_String_xy@pos^0,c
  5880   0043B0  0E24               	movlw	low STR_14
  5881   0043B2  6E0B               	movwf	LCD_String_xy@msg^0,c
  5882   0043B4  500B               	movf	LCD_String_xy@msg^0,w,c
  5883   0043B6  A4D8               	btfss	status,2,c
  5884   0043B8  0E20               	movlw	high __smallconst
  5885   0043BA  6E0C               	movwf	(LCD_String_xy@msg+1)^0,c
  5886   0043BC  0E01               	movlw	1
  5887   0043BE  ECFA  F039         	call	_LCD_String_xy
  5888   0043C2  0E06               	movlw	6
  5889   0043C4  0100               	movlb	0	; () banked
  5890   0043C6  6F93               	movwf	(??_main+1)& (0+255),b
  5891   0043C8  0E13               	movlw	19
  5892   0043CA  6F92               	movwf	??_main& (0+255),b
  5893   0043CC  0EAD               	movlw	173
  5894   0043CE                     u6897:
  5895   0043CE  2EE8               	decfsz	wreg,f,c
  5896   0043D0  D7FE               	bra	u6897
  5897   0043D2  2F92               	decfsz	??_main& (0+255),f,b
  5898   0043D4  D7FC               	bra	u6897
  5899   0043D6  2F93               	decfsz	(??_main+1)& (0+255),f,b
  5900   0043D8  D7FA               	bra	u6897
  5901   0043DA  D000               	nop2	
  5902   0043DC  0E00               	movlw	0
  5903   0043DE  6E0A               	movwf	LCD_String_xy@pos^0,c
  5904   0043E0  0E35               	movlw	low STR_15
  5905   0043E2  6E0B               	movwf	LCD_String_xy@msg^0,c
  5906   0043E4  500B               	movf	LCD_String_xy@msg^0,w,c
  5907   0043E6  A4D8               	btfss	status,2,c
  5908   0043E8  0E20               	movlw	high __smallconst
  5909   0043EA  6E0C               	movwf	(LCD_String_xy@msg+1)^0,c
  5910   0043EC  0E01               	movlw	1
  5911   0043EE  ECFA  F039         	call	_LCD_String_xy
  5912   0043F2  0E06               	movlw	6
  5913   0043F4  0100               	movlb	0	; () banked
  5914   0043F6  6F93               	movwf	(??_main+1)& (0+255),b
  5915   0043F8  0E13               	movlw	19
  5916   0043FA  6F92               	movwf	??_main& (0+255),b
  5917   0043FC  0EAD               	movlw	173
  5918   0043FE                     u6907:
  5919   0043FE  2EE8               	decfsz	wreg,f,c
  5920   004400  D7FE               	bra	u6907
  5921   004402  2F92               	decfsz	??_main& (0+255),f,b
  5922   004404  D7FC               	bra	u6907
  5923   004406  2F93               	decfsz	(??_main+1)& (0+255),f,b
  5924   004408  D7FA               	bra	u6907
  5925   00440A  D000               	nop2	
  5926   00440C  0E00               	movlw	0
  5927   00440E  6E0A               	movwf	LCD_String_xy@pos^0,c
  5928   004410  0E13               	movlw	low STR_16
  5929   004412  6E0B               	movwf	LCD_String_xy@msg^0,c
  5930   004414  500B               	movf	LCD_String_xy@msg^0,w,c
  5931   004416  A4D8               	btfss	status,2,c
  5932   004418  0E20               	movlw	high __smallconst
  5933   00441A  6E0C               	movwf	(LCD_String_xy@msg+1)^0,c
  5934   00441C  0E01               	movlw	1
  5935   00441E  ECFA  F039         	call	_LCD_String_xy
  5936   004422  0E06               	movlw	6
  5937   004424  0100               	movlb	0	; () banked
  5938   004426  6F93               	movwf	(??_main+1)& (0+255),b
  5939   004428  0E13               	movlw	19
  5940   00442A  6F92               	movwf	??_main& (0+255),b
  5941   00442C  0EAD               	movlw	173
  5942   00442E                     u6917:
  5943   00442E  2EE8               	decfsz	wreg,f,c
  5944   004430  D7FE               	bra	u6917
  5945   004432  2F92               	decfsz	??_main& (0+255),f,b
  5946   004434  D7FC               	bra	u6917
  5947   004436  2F93               	decfsz	(??_main+1)& (0+255),f,b
  5948   004438  D7FA               	bra	u6917
  5949   00443A  D000               	nop2	
  5950   00443C  ECCD  F03A         	call	_LCD_Clear	;wreg free
  5951   004440  EC58  F038         	call	_rand	;wreg free
  5952   004444  0E0F               	movlw	15
  5953   004446  140D               	andwf	?_rand^0,w,c
  5954   004448  6E5A               	movwf	_num^0,c
  5955   00444A  6A5B               	clrf	(_num+1)^0,c
  5956   00444C  0060  F16B  FFCD   	movff	_num,16333	;volatile
  5957   004452  0E09               	movlw	9
  5958   004454  0100               	movlb	0	; () banked
  5959   004456  6F93               	movwf	(??_main+1)& (0+255),b
  5960   004458  0EE1               	movlw	225
  5961   00445A  6F92               	movwf	??_main& (0+255),b
  5962   00445C  0EB2               	movlw	178
  5963   00445E                     u6927:
  5964   00445E  2EE8               	decfsz	wreg,f,c
  5965   004460  D7FE               	bra	u6927
  5966   004462  2F92               	decfsz	??_main& (0+255),f,b
  5967   004464  D7FC               	bra	u6927
  5968   004466  2F93               	decfsz	(??_main+1)& (0+255),f,b
  5969   004468  D7FA               	bra	u6927
  5970   00446A  0000               	nop	
  5971   00446C  6ACD               	clrf	205,c	;volatile
  5972   00446E  0E82               	movlw	130
  5973   004470  0100               	movlb	0	; () banked
  5974   004472  6F92               	movwf	??_main& (0+255),b
  5975   004474  0EDD               	movlw	221
  5976   004476                     u6937:
  5977   004476  2EE8               	decfsz	wreg,f,c
  5978   004478  D7FE               	bra	u6937
  5979   00447A  2F92               	decfsz	??_main& (0+255),f,b
  5980   00447C  D7FC               	bra	u6937
  5981   00447E  D000               	nop2	
  5982   004480  0E00               	movlw	0
  5983   004482  6E0A               	movwf	LCD_String_xy@pos^0,c
  5984   004484  0E8C               	movlw	low STR_6
  5985   004486  6E0B               	movwf	LCD_String_xy@msg^0,c
  5986   004488  500B               	movf	LCD_String_xy@msg^0,w,c
  5987   00448A  A4D8               	btfss	status,2,c
  5988   00448C  0E20               	movlw	high __smallconst
  5989   00448E  6E0C               	movwf	(LCD_String_xy@msg+1)^0,c
  5990   004490  0E01               	movlw	1
  5991   004492  ECFA  F039         	call	_LCD_String_xy
  5992   004496  0E04               	movlw	4
  5993   004498  6E0A               	movwf	LCD_String_xy@pos^0,c
  5994   00449A  0EA9               	movlw	low STR_7
  5995   00449C  6E0B               	movwf	LCD_String_xy@msg^0,c
  5996   00449E  500B               	movf	LCD_String_xy@msg^0,w,c
  5997   0044A0  A4D8               	btfss	status,2,c
  5998   0044A2  0E20               	movlw	high __smallconst
  5999   0044A4  6E0C               	movwf	(LCD_String_xy@msg+1)^0,c
  6000   0044A6  0E02               	movlw	2
  6001   0044A8  ECFA  F039         	call	_LCD_String_xy
  6002   0044AC  EFF8  F022         	goto	l6503
  6003   0044B0                     l206:
  6004   0044B0  B2CE               	btfsc	206,1,c	;volatile
  6005   0044B2  EF5D  F022         	goto	u5981
  6006   0044B6  EF5F  F022         	goto	u5980
  6007   0044BA                     u5981:
  6008   0044BA  EFA8  F022         	goto	l6491
  6009   0044BE                     u5980:
  6010   0044BE  C056  F001         	movff	_count1,___fladd@b
  6011   0044C2  C057  F002         	movff	_count1+1,___fladd@b+1
  6012   0044C6  C058  F003         	movff	_count1+2,___fladd@b+2
  6013   0044CA  C059  F004         	movff	_count1+3,___fladd@b+3
  6014   0044CE  0E00               	movlw	0
  6015   0044D0  6E05               	movwf	___fladd@a^0,c
  6016   0044D2  0E00               	movlw	0
  6017   0044D4  6E06               	movwf	(___fladd@a+1)^0,c
  6018   0044D6  0E80               	movlw	128
  6019   0044D8  6E07               	movwf	(___fladd@a+2)^0,c
  6020   0044DA  0E3F               	movlw	63
  6021   0044DC  6E08               	movwf	(___fladd@a+3)^0,c
  6022   0044DE  EC48  F02A         	call	___fladd	;wreg free
  6023   0044E2  C001  F056         	movff	?___fladd,_count1
  6024   0044E6  C002  F057         	movff	?___fladd+1,_count1+1
  6025   0044EA  C003  F058         	movff	?___fladd+2,_count1+2
  6026   0044EE  C004  F059         	movff	?___fladd+3,_count1+3
  6027   0044F2  0E02               	movlw	2
  6028   0044F4  0100               	movlb	0	; () banked
  6029   0044F6  6F93               	movwf	(??_main+1)& (0+255),b
  6030   0044F8  0E45               	movlw	69
  6031   0044FA  6F92               	movwf	??_main& (0+255),b
  6032   0044FC  0EA9               	movlw	169
  6033   0044FE                     u6947:
  6034   0044FE  2EE8               	decfsz	wreg,f,c
  6035   004500  D7FE               	bra	u6947
  6036   004502  2F92               	decfsz	??_main& (0+255),f,b
  6037   004504  D7FC               	bra	u6947
  6038   004506  2F93               	decfsz	(??_main+1)& (0+255),f,b
  6039   004508  D7FA               	bra	u6947
  6040   00450A  D000               	nop2	
  6041   00450C  0EAC               	movlw	low _data
  6042   00450E  0100               	movlb	0	; () banked
  6043   004510  6F8C               	movwf	sprintf@s& (0+255),b
  6044   004512  0EAE               	movlw	low STR_1
  6045   004514  6F8D               	movwf	sprintf@fmt& (0+255),b
  6046   004516  C056  F08E         	movff	_count1,?_sprintf+2
  6047   00451A  C057  F08F         	movff	_count1+1,?_sprintf+3
  6048   00451E  C058  F090         	movff	_count1+2,?_sprintf+4
  6049   004522  C059  F091         	movff	_count1+3,?_sprintf+5
  6050   004526  EC36  F03A         	call	_sprintf	;wreg free
  6051   00452A  0E00               	movlw	0
  6052   00452C  6E0A               	movwf	LCD_String_xy@pos^0,c
  6053   00452E  0E8C               	movlw	low STR_6
  6054   004530  6E0B               	movwf	LCD_String_xy@msg^0,c
  6055   004532  500B               	movf	LCD_String_xy@msg^0,w,c
  6056   004534  A4D8               	btfss	status,2,c
  6057   004536  0E20               	movlw	high __smallconst
  6058   004538  6E0C               	movwf	(LCD_String_xy@msg+1)^0,c
  6059   00453A  0E01               	movlw	1
  6060   00453C  ECFA  F039         	call	_LCD_String_xy
  6061   004540  0E04               	movlw	4
  6062   004542  6E0A               	movwf	LCD_String_xy@pos^0,c
  6063   004544  0EAC               	movlw	low _data
  6064   004546  6E0B               	movwf	LCD_String_xy@msg^0,c
  6065   004548  6A0C               	clrf	(LCD_String_xy@msg+1)^0,c
  6066   00454A  0E02               	movlw	2
  6067   00454C  ECFA  F039         	call	_LCD_String_xy
  6068   004550                     l6491:
  6069   004550  B0CE               	btfsc	206,0,c	;volatile
  6070   004552  EFAD  F022         	goto	u5991
  6071   004556  EFAF  F022         	goto	u5990
  6072   00455A                     u5991:
  6073   00455A  EFF8  F022         	goto	l6503
  6074   00455E                     u5990:
  6075   00455E  C056  F028         	movff	_count1,___flsub@b
  6076   004562  C057  F029         	movff	_count1+1,___flsub@b+1
  6077   004566  C058  F02A         	movff	_count1+2,___flsub@b+2
  6078   00456A  C059  F02B         	movff	_count1+3,___flsub@b+3
  6079   00456E  0E00               	movlw	0
  6080   004570  6E2C               	movwf	___flsub@a^0,c
  6081   004572  0E00               	movlw	0
  6082   004574  6E2D               	movwf	(___flsub@a+1)^0,c
  6083   004576  0E80               	movlw	128
  6084   004578  6E2E               	movwf	(___flsub@a+2)^0,c
  6085   00457A  0E3F               	movlw	63
  6086   00457C  6E2F               	movwf	(___flsub@a+3)^0,c
  6087   00457E  EC95  F039         	call	___flsub	;wreg free
  6088   004582  C028  F056         	movff	?___flsub,_count1
  6089   004586  C029  F057         	movff	?___flsub+1,_count1+1
  6090   00458A  C02A  F058         	movff	?___flsub+2,_count1+2
  6091   00458E  C02B  F059         	movff	?___flsub+3,_count1+3
  6092   004592  0E02               	movlw	2
  6093   004594  0100               	movlb	0	; () banked
  6094   004596  6F93               	movwf	(??_main+1)& (0+255),b
  6095   004598  0E45               	movlw	69
  6096   00459A  6F92               	movwf	??_main& (0+255),b
  6097   00459C  0EA9               	movlw	169
  6098   00459E                     u6957:
  6099   00459E  2EE8               	decfsz	wreg,f,c
  6100   0045A0  D7FE               	bra	u6957
  6101   0045A2  2F92               	decfsz	??_main& (0+255),f,b
  6102   0045A4  D7FC               	bra	u6957
  6103   0045A6  2F93               	decfsz	(??_main+1)& (0+255),f,b
  6104   0045A8  D7FA               	bra	u6957
  6105   0045AA  D000               	nop2	
  6106   0045AC  0EAC               	movlw	low _data
  6107   0045AE  0100               	movlb	0	; () banked
  6108   0045B0  6F8C               	movwf	sprintf@s& (0+255),b
  6109   0045B2  0EAE               	movlw	low STR_1
  6110   0045B4  6F8D               	movwf	sprintf@fmt& (0+255),b
  6111   0045B6  C056  F08E         	movff	_count1,?_sprintf+2
  6112   0045BA  C057  F08F         	movff	_count1+1,?_sprintf+3
  6113   0045BE  C058  F090         	movff	_count1+2,?_sprintf+4
  6114   0045C2  C059  F091         	movff	_count1+3,?_sprintf+5
  6115   0045C6  EC36  F03A         	call	_sprintf	;wreg free
  6116   0045CA  0E00               	movlw	0
  6117   0045CC  6E0A               	movwf	LCD_String_xy@pos^0,c
  6118   0045CE  0E8C               	movlw	low STR_6
  6119   0045D0  6E0B               	movwf	LCD_String_xy@msg^0,c
  6120   0045D2  500B               	movf	LCD_String_xy@msg^0,w,c
  6121   0045D4  A4D8               	btfss	status,2,c
  6122   0045D6  0E20               	movlw	high __smallconst
  6123   0045D8  6E0C               	movwf	(LCD_String_xy@msg+1)^0,c
  6124   0045DA  0E01               	movlw	1
  6125   0045DC  ECFA  F039         	call	_LCD_String_xy
  6126   0045E0  0E04               	movlw	4
  6127   0045E2  6E0A               	movwf	LCD_String_xy@pos^0,c
  6128   0045E4  0EAC               	movlw	low _data
  6129   0045E6  6E0B               	movwf	LCD_String_xy@msg^0,c
  6130   0045E8  6A0C               	clrf	(LCD_String_xy@msg+1)^0,c
  6131   0045EA  0E02               	movlw	2
  6132   0045EC  ECFA  F039         	call	_LCD_String_xy
  6133   0045F0                     l6503:
  6134   0045F0  BCCD               	btfsc	205,6,c	;volatile
  6135   0045F2  EFFD  F022         	goto	u6001
  6136   0045F6  EFFF  F022         	goto	u6000
  6137   0045FA                     u6001:
  6138   0045FA  EF58  F022         	goto	l206
  6139   0045FE                     u6000:
  6140   0045FE  C05A  F001         	movff	_num,___xxtofl@val
  6141   004602  C05B  F002         	movff	_num+1,___xxtofl@val+1
  6142   004606  0E00               	movlw	0
  6143   004608  BE02               	btfsc	(___xxtofl@val+1)^0,7,c
  6144   00460A  0EFF               	movlw	-1
  6145   00460C  6E03               	movwf	(___xxtofl@val+2)^0,c
  6146   00460E  6E04               	movwf	(___xxtofl@val+3)^0,c
  6147   004610  0E01               	movlw	1
  6148   004612  ECFC  F032         	call	___xxtofl
  6149   004616  C001  F00F         	movff	?___xxtofl,___fleq@ff1
  6150   00461A  C002  F010         	movff	?___xxtofl+1,___fleq@ff1+1
  6151   00461E  C003  F011         	movff	?___xxtofl+2,___fleq@ff1+2
  6152   004622  C004  F012         	movff	?___xxtofl+3,___fleq@ff1+3
  6153   004626  C056  F013         	movff	_count1,___fleq@ff2
  6154   00462A  C057  F014         	movff	_count1+1,___fleq@ff2+1
  6155   00462E  C058  F015         	movff	_count1+2,___fleq@ff2+2
  6156   004632  C059  F016         	movff	_count1+3,___fleq@ff2+3
  6157   004636  EC81  F037         	call	___fleq	;wreg free
  6158   00463A  A0D8               	btfss	status,0,c
  6159   00463C  EF22  F023         	goto	u6011
  6160   004640  EF24  F023         	goto	u6010
  6161   004644                     u6011:
  6162   004644  EF4E  F023         	goto	l6517
  6163   004648                     u6010:
  6164   004648  ECCD  F03A         	call	_LCD_Clear	;wreg free
  6165   00464C  0E01               	movlw	1
  6166   00464E  245C               	addwf	_count2^0,w,c
  6167   004650  6E5C               	movwf	_count2^0,c
  6168   004652  0E00               	movlw	0
  6169   004654  205D               	addwfc	(_count2+1)^0,w,c
  6170   004656  6E5D               	movwf	(_count2+1)^0,c
  6171   004658  0E00               	movlw	0
  6172   00465A  6E0A               	movwf	LCD_String_xy@pos^0,c
  6173   00465C  0E99               	movlw	low STR_12
  6174   00465E  6E0B               	movwf	LCD_String_xy@msg^0,c
  6175   004660  500B               	movf	LCD_String_xy@msg^0,w,c
  6176   004662  A4D8               	btfss	status,2,c
  6177   004664  0E20               	movlw	high __smallconst
  6178   004666  6E0C               	movwf	(LCD_String_xy@msg+1)^0,c
  6179   004668  0E01               	movlw	1
  6180   00466A  ECFA  F039         	call	_LCD_String_xy
  6181   00466E  0E1A               	movlw	26
  6182   004670  0100               	movlb	0	; () banked
  6183   004672  6F93               	movwf	(??_main+1)& (0+255),b
  6184   004674  0E5E               	movlw	94
  6185   004676  6F92               	movwf	??_main& (0+255),b
  6186   004678  0E6E               	movlw	110
  6187   00467A                     u6967:
  6188   00467A  2EE8               	decfsz	wreg,f,c
  6189   00467C  D7FE               	bra	u6967
  6190   00467E  2F92               	decfsz	??_main& (0+255),f,b
  6191   004680  D7FC               	bra	u6967
  6192   004682  2F93               	decfsz	(??_main+1)& (0+255),f,b
  6193   004684  D7FA               	bra	u6967
  6194   004686  0000               	nop	
  6195   004688  0E00               	movlw	0
  6196   00468A  6E56               	movwf	_count1^0,c
  6197   00468C  0E00               	movlw	0
  6198   00468E  6E57               	movwf	(_count1+1)^0,c
  6199   004690  0E00               	movlw	0
  6200   004692  6E58               	movwf	(_count1+2)^0,c
  6201   004694  0E00               	movlw	0
  6202   004696  6E59               	movwf	(_count1+3)^0,c
  6203   004698  EF70  F023         	goto	l6525
  6204   00469C                     l6517:
  6205   00469C  ECCD  F03A         	call	_LCD_Clear	;wreg free
  6206   0046A0  0E00               	movlw	0
  6207   0046A2  6E0A               	movwf	LCD_String_xy@pos^0,c
  6208   0046A4  0E72               	movlw	low STR_13
  6209   0046A6  6E0B               	movwf	LCD_String_xy@msg^0,c
  6210   0046A8  500B               	movf	LCD_String_xy@msg^0,w,c
  6211   0046AA  A4D8               	btfss	status,2,c
  6212   0046AC  0E20               	movlw	high __smallconst
  6213   0046AE  6E0C               	movwf	(LCD_String_xy@msg+1)^0,c
  6214   0046B0  0E01               	movlw	1
  6215   0046B2  ECFA  F039         	call	_LCD_String_xy
  6216   0046B6  0E1A               	movlw	26
  6217   0046B8  0100               	movlb	0	; () banked
  6218   0046BA  6F93               	movwf	(??_main+1)& (0+255),b
  6219   0046BC  0E5E               	movlw	94
  6220   0046BE  6F92               	movwf	??_main& (0+255),b
  6221   0046C0  0E6E               	movlw	110
  6222   0046C2                     u6977:
  6223   0046C2  2EE8               	decfsz	wreg,f,c
  6224   0046C4  D7FE               	bra	u6977
  6225   0046C6  2F92               	decfsz	??_main& (0+255),f,b
  6226   0046C8  D7FC               	bra	u6977
  6227   0046CA  2F93               	decfsz	(??_main+1)& (0+255),f,b
  6228   0046CC  D7FA               	bra	u6977
  6229   0046CE  0000               	nop	
  6230   0046D0  0E00               	movlw	0
  6231   0046D2  6E56               	movwf	_count1^0,c
  6232   0046D4  0E00               	movlw	0
  6233   0046D6  6E57               	movwf	(_count1+1)^0,c
  6234   0046D8  0E00               	movlw	0
  6235   0046DA  6E58               	movwf	(_count1+2)^0,c
  6236   0046DC  0E00               	movlw	0
  6237   0046DE  6E59               	movwf	(_count1+3)^0,c
  6238   0046E0                     l6525:
  6239   0046E0  ECCD  F03A         	call	_LCD_Clear	;wreg free
  6240   0046E4  0E00               	movlw	0
  6241   0046E6  6E0A               	movwf	LCD_String_xy@pos^0,c
  6242   0046E8  0E24               	movlw	low STR_14
  6243   0046EA  6E0B               	movwf	LCD_String_xy@msg^0,c
  6244   0046EC  500B               	movf	LCD_String_xy@msg^0,w,c
  6245   0046EE  A4D8               	btfss	status,2,c
  6246   0046F0  0E20               	movlw	high __smallconst
  6247   0046F2  6E0C               	movwf	(LCD_String_xy@msg+1)^0,c
  6248   0046F4  0E01               	movlw	1
  6249   0046F6  ECFA  F039         	call	_LCD_String_xy
  6250   0046FA  0E06               	movlw	6
  6251   0046FC  0100               	movlb	0	; () banked
  6252   0046FE  6F93               	movwf	(??_main+1)& (0+255),b
  6253   004700  0E13               	movlw	19
  6254   004702  6F92               	movwf	??_main& (0+255),b
  6255   004704  0EAD               	movlw	173
  6256   004706                     u6987:
  6257   004706  2EE8               	decfsz	wreg,f,c
  6258   004708  D7FE               	bra	u6987
  6259   00470A  2F92               	decfsz	??_main& (0+255),f,b
  6260   00470C  D7FC               	bra	u6987
  6261   00470E  2F93               	decfsz	(??_main+1)& (0+255),f,b
  6262   004710  D7FA               	bra	u6987
  6263   004712  D000               	nop2	
  6264   004714  0E00               	movlw	0
  6265   004716  6E0A               	movwf	LCD_String_xy@pos^0,c
  6266   004718  0E35               	movlw	low STR_15
  6267   00471A  6E0B               	movwf	LCD_String_xy@msg^0,c
  6268   00471C  500B               	movf	LCD_String_xy@msg^0,w,c
  6269   00471E  A4D8               	btfss	status,2,c
  6270   004720  0E20               	movlw	high __smallconst
  6271   004722  6E0C               	movwf	(LCD_String_xy@msg+1)^0,c
  6272   004724  0E01               	movlw	1
  6273   004726  ECFA  F039         	call	_LCD_String_xy
  6274   00472A  0E06               	movlw	6
  6275   00472C  0100               	movlb	0	; () banked
  6276   00472E  6F93               	movwf	(??_main+1)& (0+255),b
  6277   004730  0E13               	movlw	19
  6278   004732  6F92               	movwf	??_main& (0+255),b
  6279   004734  0EAD               	movlw	173
  6280   004736                     u6997:
  6281   004736  2EE8               	decfsz	wreg,f,c
  6282   004738  D7FE               	bra	u6997
  6283   00473A  2F92               	decfsz	??_main& (0+255),f,b
  6284   00473C  D7FC               	bra	u6997
  6285   00473E  2F93               	decfsz	(??_main+1)& (0+255),f,b
  6286   004740  D7FA               	bra	u6997
  6287   004742  D000               	nop2	
  6288   004744  0E00               	movlw	0
  6289   004746  6E0A               	movwf	LCD_String_xy@pos^0,c
  6290   004748  0E13               	movlw	low STR_16
  6291   00474A  6E0B               	movwf	LCD_String_xy@msg^0,c
  6292   00474C  500B               	movf	LCD_String_xy@msg^0,w,c
  6293   00474E  A4D8               	btfss	status,2,c
  6294   004750  0E20               	movlw	high __smallconst
  6295   004752  6E0C               	movwf	(LCD_String_xy@msg+1)^0,c
  6296   004754  0E01               	movlw	1
  6297   004756  ECFA  F039         	call	_LCD_String_xy
  6298   00475A  0E06               	movlw	6
  6299   00475C  0100               	movlb	0	; () banked
  6300   00475E  6F93               	movwf	(??_main+1)& (0+255),b
  6301   004760  0E13               	movlw	19
  6302   004762  6F92               	movwf	??_main& (0+255),b
  6303   004764  0EAD               	movlw	173
  6304   004766                     u7007:
  6305   004766  2EE8               	decfsz	wreg,f,c
  6306   004768  D7FE               	bra	u7007
  6307   00476A  2F92               	decfsz	??_main& (0+255),f,b
  6308   00476C  D7FC               	bra	u7007
  6309   00476E  2F93               	decfsz	(??_main+1)& (0+255),f,b
  6310   004770  D7FA               	bra	u7007
  6311   004772  D000               	nop2	
  6312   004774  ECCD  F03A         	call	_LCD_Clear	;wreg free
  6313   004778  EC58  F038         	call	_rand	;wreg free
  6314   00477C  0E0F               	movlw	15
  6315   00477E  140D               	andwf	?_rand^0,w,c
  6316   004780  6E5A               	movwf	_num^0,c
  6317   004782  6A5B               	clrf	(_num+1)^0,c
  6318   004784  0060  F16B  FFCD   	movff	_num,16333	;volatile
  6319   00478A  0E08               	movlw	8
  6320   00478C  0100               	movlb	0	; () banked
  6321   00478E  6F93               	movwf	(??_main+1)& (0+255),b
  6322   004790  0E9D               	movlw	157
  6323   004792  6F92               	movwf	??_main& (0+255),b
  6324   004794  0E05               	movlw	5
  6325   004796                     u7017:
  6326   004796  2EE8               	decfsz	wreg,f,c
  6327   004798  D7FE               	bra	u7017
  6328   00479A  2F92               	decfsz	??_main& (0+255),f,b
  6329   00479C  D7FC               	bra	u7017
  6330   00479E  2F93               	decfsz	(??_main+1)& (0+255),f,b
  6331   0047A0  D7FA               	bra	u7017
  6332   0047A2  D000               	nop2	
  6333   0047A4  6ACD               	clrf	205,c	;volatile
  6334   0047A6  0E82               	movlw	130
  6335   0047A8  0100               	movlb	0	; () banked
  6336   0047AA  6F92               	movwf	??_main& (0+255),b
  6337   0047AC  0EDD               	movlw	221
  6338   0047AE                     u7027:
  6339   0047AE  2EE8               	decfsz	wreg,f,c
  6340   0047B0  D7FE               	bra	u7027
  6341   0047B2  2F92               	decfsz	??_main& (0+255),f,b
  6342   0047B4  D7FC               	bra	u7027
  6343   0047B6  D000               	nop2	
  6344   0047B8  0E00               	movlw	0
  6345   0047BA  6E0A               	movwf	LCD_String_xy@pos^0,c
  6346   0047BC  0E8C               	movlw	low STR_6
  6347   0047BE  6E0B               	movwf	LCD_String_xy@msg^0,c
  6348   0047C0  500B               	movf	LCD_String_xy@msg^0,w,c
  6349   0047C2  A4D8               	btfss	status,2,c
  6350   0047C4  0E20               	movlw	high __smallconst
  6351   0047C6  6E0C               	movwf	(LCD_String_xy@msg+1)^0,c
  6352   0047C8  0E01               	movlw	1
  6353   0047CA  ECFA  F039         	call	_LCD_String_xy
  6354   0047CE  0E04               	movlw	4
  6355   0047D0  6E0A               	movwf	LCD_String_xy@pos^0,c
  6356   0047D2  0EA9               	movlw	low STR_7
  6357   0047D4  6E0B               	movwf	LCD_String_xy@msg^0,c
  6358   0047D6  500B               	movf	LCD_String_xy@msg^0,w,c
  6359   0047D8  A4D8               	btfss	status,2,c
  6360   0047DA  0E20               	movlw	high __smallconst
  6361   0047DC  6E0C               	movwf	(LCD_String_xy@msg+1)^0,c
  6362   0047DE  0E02               	movlw	2
  6363   0047E0  ECFA  F039         	call	_LCD_String_xy
  6364   0047E4  EF94  F024         	goto	l6577
  6365   0047E8                     l213:
  6366   0047E8  B2CE               	btfsc	206,1,c	;volatile
  6367   0047EA  EFF9  F023         	goto	u6021
  6368   0047EE  EFFB  F023         	goto	u6020
  6369   0047F2                     u6021:
  6370   0047F2  EF44  F024         	goto	l6565
  6371   0047F6                     u6020:
  6372   0047F6  C056  F001         	movff	_count1,___fladd@b
  6373   0047FA  C057  F002         	movff	_count1+1,___fladd@b+1
  6374   0047FE  C058  F003         	movff	_count1+2,___fladd@b+2
  6375   004802  C059  F004         	movff	_count1+3,___fladd@b+3
  6376   004806  0E00               	movlw	0
  6377   004808  6E05               	movwf	___fladd@a^0,c
  6378   00480A  0E00               	movlw	0
  6379   00480C  6E06               	movwf	(___fladd@a+1)^0,c
  6380   00480E  0E80               	movlw	128
  6381   004810  6E07               	movwf	(___fladd@a+2)^0,c
  6382   004812  0E3F               	movlw	63
  6383   004814  6E08               	movwf	(___fladd@a+3)^0,c
  6384   004816  EC48  F02A         	call	___fladd	;wreg free
  6385   00481A  C001  F056         	movff	?___fladd,_count1
  6386   00481E  C002  F057         	movff	?___fladd+1,_count1+1
  6387   004822  C003  F058         	movff	?___fladd+2,_count1+2
  6388   004826  C004  F059         	movff	?___fladd+3,_count1+3
  6389   00482A  0E02               	movlw	2
  6390   00482C  0100               	movlb	0	; () banked
  6391   00482E  6F93               	movwf	(??_main+1)& (0+255),b
  6392   004830  0E45               	movlw	69
  6393   004832  6F92               	movwf	??_main& (0+255),b
  6394   004834  0EA9               	movlw	169
  6395   004836                     u7037:
  6396   004836  2EE8               	decfsz	wreg,f,c
  6397   004838  D7FE               	bra	u7037
  6398   00483A  2F92               	decfsz	??_main& (0+255),f,b
  6399   00483C  D7FC               	bra	u7037
  6400   00483E  2F93               	decfsz	(??_main+1)& (0+255),f,b
  6401   004840  D7FA               	bra	u7037
  6402   004842  D000               	nop2	
  6403   004844  0EAC               	movlw	low _data
  6404   004846  0100               	movlb	0	; () banked
  6405   004848  6F8C               	movwf	sprintf@s& (0+255),b
  6406   00484A  0EAE               	movlw	low STR_1
  6407   00484C  6F8D               	movwf	sprintf@fmt& (0+255),b
  6408   00484E  C056  F08E         	movff	_count1,?_sprintf+2
  6409   004852  C057  F08F         	movff	_count1+1,?_sprintf+3
  6410   004856  C058  F090         	movff	_count1+2,?_sprintf+4
  6411   00485A  C059  F091         	movff	_count1+3,?_sprintf+5
  6412   00485E  EC36  F03A         	call	_sprintf	;wreg free
  6413   004862  0E00               	movlw	0
  6414   004864  6E0A               	movwf	LCD_String_xy@pos^0,c
  6415   004866  0E8C               	movlw	low STR_6
  6416   004868  6E0B               	movwf	LCD_String_xy@msg^0,c
  6417   00486A  500B               	movf	LCD_String_xy@msg^0,w,c
  6418   00486C  A4D8               	btfss	status,2,c
  6419   00486E  0E20               	movlw	high __smallconst
  6420   004870  6E0C               	movwf	(LCD_String_xy@msg+1)^0,c
  6421   004872  0E01               	movlw	1
  6422   004874  ECFA  F039         	call	_LCD_String_xy
  6423   004878  0E04               	movlw	4
  6424   00487A  6E0A               	movwf	LCD_String_xy@pos^0,c
  6425   00487C  0EAC               	movlw	low _data
  6426   00487E  6E0B               	movwf	LCD_String_xy@msg^0,c
  6427   004880  6A0C               	clrf	(LCD_String_xy@msg+1)^0,c
  6428   004882  0E02               	movlw	2
  6429   004884  ECFA  F039         	call	_LCD_String_xy
  6430   004888                     l6565:
  6431   004888  B0CE               	btfsc	206,0,c	;volatile
  6432   00488A  EF49  F024         	goto	u6031
  6433   00488E  EF4B  F024         	goto	u6030
  6434   004892                     u6031:
  6435   004892  EF94  F024         	goto	l6577
  6436   004896                     u6030:
  6437   004896  C056  F028         	movff	_count1,___flsub@b
  6438   00489A  C057  F029         	movff	_count1+1,___flsub@b+1
  6439   00489E  C058  F02A         	movff	_count1+2,___flsub@b+2
  6440   0048A2  C059  F02B         	movff	_count1+3,___flsub@b+3
  6441   0048A6  0E00               	movlw	0
  6442   0048A8  6E2C               	movwf	___flsub@a^0,c
  6443   0048AA  0E00               	movlw	0
  6444   0048AC  6E2D               	movwf	(___flsub@a+1)^0,c
  6445   0048AE  0E80               	movlw	128
  6446   0048B0  6E2E               	movwf	(___flsub@a+2)^0,c
  6447   0048B2  0E3F               	movlw	63
  6448   0048B4  6E2F               	movwf	(___flsub@a+3)^0,c
  6449   0048B6  EC95  F039         	call	___flsub	;wreg free
  6450   0048BA  C028  F056         	movff	?___flsub,_count1
  6451   0048BE  C029  F057         	movff	?___flsub+1,_count1+1
  6452   0048C2  C02A  F058         	movff	?___flsub+2,_count1+2
  6453   0048C6  C02B  F059         	movff	?___flsub+3,_count1+3
  6454   0048CA  0E02               	movlw	2
  6455   0048CC  0100               	movlb	0	; () banked
  6456   0048CE  6F93               	movwf	(??_main+1)& (0+255),b
  6457   0048D0  0E45               	movlw	69
  6458   0048D2  6F92               	movwf	??_main& (0+255),b
  6459   0048D4  0EA9               	movlw	169
  6460   0048D6                     u7047:
  6461   0048D6  2EE8               	decfsz	wreg,f,c
  6462   0048D8  D7FE               	bra	u7047
  6463   0048DA  2F92               	decfsz	??_main& (0+255),f,b
  6464   0048DC  D7FC               	bra	u7047
  6465   0048DE  2F93               	decfsz	(??_main+1)& (0+255),f,b
  6466   0048E0  D7FA               	bra	u7047
  6467   0048E2  D000               	nop2	
  6468   0048E4  0EAC               	movlw	low _data
  6469   0048E6  0100               	movlb	0	; () banked
  6470   0048E8  6F8C               	movwf	sprintf@s& (0+255),b
  6471   0048EA  0EAE               	movlw	low STR_1
  6472   0048EC  6F8D               	movwf	sprintf@fmt& (0+255),b
  6473   0048EE  C056  F08E         	movff	_count1,?_sprintf+2
  6474   0048F2  C057  F08F         	movff	_count1+1,?_sprintf+3
  6475   0048F6  C058  F090         	movff	_count1+2,?_sprintf+4
  6476   0048FA  C059  F091         	movff	_count1+3,?_sprintf+5
  6477   0048FE  EC36  F03A         	call	_sprintf	;wreg free
  6478   004902  0E00               	movlw	0
  6479   004904  6E0A               	movwf	LCD_String_xy@pos^0,c
  6480   004906  0E8C               	movlw	low STR_6
  6481   004908  6E0B               	movwf	LCD_String_xy@msg^0,c
  6482   00490A  500B               	movf	LCD_String_xy@msg^0,w,c
  6483   00490C  A4D8               	btfss	status,2,c
  6484   00490E  0E20               	movlw	high __smallconst
  6485   004910  6E0C               	movwf	(LCD_String_xy@msg+1)^0,c
  6486   004912  0E01               	movlw	1
  6487   004914  ECFA  F039         	call	_LCD_String_xy
  6488   004918  0E04               	movlw	4
  6489   00491A  6E0A               	movwf	LCD_String_xy@pos^0,c
  6490   00491C  0EAC               	movlw	low _data
  6491   00491E  6E0B               	movwf	LCD_String_xy@msg^0,c
  6492   004920  6A0C               	clrf	(LCD_String_xy@msg+1)^0,c
  6493   004922  0E02               	movlw	2
  6494   004924  ECFA  F039         	call	_LCD_String_xy
  6495   004928                     l6577:
  6496   004928  BCCD               	btfsc	205,6,c	;volatile
  6497   00492A  EF99  F024         	goto	u6041
  6498   00492E  EF9B  F024         	goto	u6040
  6499   004932                     u6041:
  6500   004932  EFF4  F023         	goto	l213
  6501   004936                     u6040:
  6502   004936  C05A  F001         	movff	_num,___xxtofl@val
  6503   00493A  C05B  F002         	movff	_num+1,___xxtofl@val+1
  6504   00493E  0E00               	movlw	0
  6505   004940  BE02               	btfsc	(___xxtofl@val+1)^0,7,c
  6506   004942  0EFF               	movlw	-1
  6507   004944  6E03               	movwf	(___xxtofl@val+2)^0,c
  6508   004946  6E04               	movwf	(___xxtofl@val+3)^0,c
  6509   004948  0E01               	movlw	1
  6510   00494A  ECFC  F032         	call	___xxtofl
  6511   00494E  C001  F00F         	movff	?___xxtofl,___fleq@ff1
  6512   004952  C002  F010         	movff	?___xxtofl+1,___fleq@ff1+1
  6513   004956  C003  F011         	movff	?___xxtofl+2,___fleq@ff1+2
  6514   00495A  C004  F012         	movff	?___xxtofl+3,___fleq@ff1+3
  6515   00495E  C056  F013         	movff	_count1,___fleq@ff2
  6516   004962  C057  F014         	movff	_count1+1,___fleq@ff2+1
  6517   004966  C058  F015         	movff	_count1+2,___fleq@ff2+2
  6518   00496A  C059  F016         	movff	_count1+3,___fleq@ff2+3
  6519   00496E  EC81  F037         	call	___fleq	;wreg free
  6520   004972  A0D8               	btfss	status,0,c
  6521   004974  EFBE  F024         	goto	u6051
  6522   004978  EFC0  F024         	goto	u6050
  6523   00497C                     u6051:
  6524   00497C  EFEA  F024         	goto	l6591
  6525   004980                     u6050:
  6526   004980  ECCD  F03A         	call	_LCD_Clear	;wreg free
  6527   004984  0E01               	movlw	1
  6528   004986  245C               	addwf	_count2^0,w,c
  6529   004988  6E5C               	movwf	_count2^0,c
  6530   00498A  0E00               	movlw	0
  6531   00498C  205D               	addwfc	(_count2+1)^0,w,c
  6532   00498E  6E5D               	movwf	(_count2+1)^0,c
  6533   004990  0E00               	movlw	0
  6534   004992  6E0A               	movwf	LCD_String_xy@pos^0,c
  6535   004994  0E99               	movlw	low STR_12
  6536   004996  6E0B               	movwf	LCD_String_xy@msg^0,c
  6537   004998  500B               	movf	LCD_String_xy@msg^0,w,c
  6538   00499A  A4D8               	btfss	status,2,c
  6539   00499C  0E20               	movlw	high __smallconst
  6540   00499E  6E0C               	movwf	(LCD_String_xy@msg+1)^0,c
  6541   0049A0  0E01               	movlw	1
  6542   0049A2  ECFA  F039         	call	_LCD_String_xy
  6543   0049A6  0E1A               	movlw	26
  6544   0049A8  0100               	movlb	0	; () banked
  6545   0049AA  6F93               	movwf	(??_main+1)& (0+255),b
  6546   0049AC  0E5E               	movlw	94
  6547   0049AE  6F92               	movwf	??_main& (0+255),b
  6548   0049B0  0E6E               	movlw	110
  6549   0049B2                     u7057:
  6550   0049B2  2EE8               	decfsz	wreg,f,c
  6551   0049B4  D7FE               	bra	u7057
  6552   0049B6  2F92               	decfsz	??_main& (0+255),f,b
  6553   0049B8  D7FC               	bra	u7057
  6554   0049BA  2F93               	decfsz	(??_main+1)& (0+255),f,b
  6555   0049BC  D7FA               	bra	u7057
  6556   0049BE  0000               	nop	
  6557   0049C0  0E00               	movlw	0
  6558   0049C2  6E56               	movwf	_count1^0,c
  6559   0049C4  0E00               	movlw	0
  6560   0049C6  6E57               	movwf	(_count1+1)^0,c
  6561   0049C8  0E00               	movlw	0
  6562   0049CA  6E58               	movwf	(_count1+2)^0,c
  6563   0049CC  0E00               	movlw	0
  6564   0049CE  6E59               	movwf	(_count1+3)^0,c
  6565   0049D0  EF0C  F025         	goto	l6599
  6566   0049D4                     l6591:
  6567   0049D4  ECCD  F03A         	call	_LCD_Clear	;wreg free
  6568   0049D8  0E00               	movlw	0
  6569   0049DA  6E0A               	movwf	LCD_String_xy@pos^0,c
  6570   0049DC  0E72               	movlw	low STR_13
  6571   0049DE  6E0B               	movwf	LCD_String_xy@msg^0,c
  6572   0049E0  500B               	movf	LCD_String_xy@msg^0,w,c
  6573   0049E2  A4D8               	btfss	status,2,c
  6574   0049E4  0E20               	movlw	high __smallconst
  6575   0049E6  6E0C               	movwf	(LCD_String_xy@msg+1)^0,c
  6576   0049E8  0E01               	movlw	1
  6577   0049EA  ECFA  F039         	call	_LCD_String_xy
  6578   0049EE  0E1A               	movlw	26
  6579   0049F0  0100               	movlb	0	; () banked
  6580   0049F2  6F93               	movwf	(??_main+1)& (0+255),b
  6581   0049F4  0E5E               	movlw	94
  6582   0049F6  6F92               	movwf	??_main& (0+255),b
  6583   0049F8  0E6E               	movlw	110
  6584   0049FA                     u7067:
  6585   0049FA  2EE8               	decfsz	wreg,f,c
  6586   0049FC  D7FE               	bra	u7067
  6587   0049FE  2F92               	decfsz	??_main& (0+255),f,b
  6588   004A00  D7FC               	bra	u7067
  6589   004A02  2F93               	decfsz	(??_main+1)& (0+255),f,b
  6590   004A04  D7FA               	bra	u7067
  6591   004A06  0000               	nop	
  6592   004A08  0E00               	movlw	0
  6593   004A0A  6E56               	movwf	_count1^0,c
  6594   004A0C  0E00               	movlw	0
  6595   004A0E  6E57               	movwf	(_count1+1)^0,c
  6596   004A10  0E00               	movlw	0
  6597   004A12  6E58               	movwf	(_count1+2)^0,c
  6598   004A14  0E00               	movlw	0
  6599   004A16  6E59               	movwf	(_count1+3)^0,c
  6600   004A18                     l6599:
  6601   004A18  505C               	movf	_count2^0,w,c
  6602   004A1A  105D               	iorwf	(_count2+1)^0,w,c
  6603   004A1C  A4D8               	btfss	status,2,c
  6604   004A1E  EF13  F025         	goto	u6061
  6605   004A22  EF15  F025         	goto	u6060
  6606   004A26                     u6061:
  6607   004A26  EF2D  F025         	goto	l6605
  6608   004A2A                     u6060:
  6609   004A2A  0E00               	movlw	0
  6610   004A2C  6E0A               	movwf	LCD_String_xy@pos^0,c
  6611   004A2E  0E7F               	movlw	low STR_36
  6612   004A30  6E0B               	movwf	LCD_String_xy@msg^0,c
  6613   004A32  500B               	movf	LCD_String_xy@msg^0,w,c
  6614   004A34  A4D8               	btfss	status,2,c
  6615   004A36  0E20               	movlw	high __smallconst
  6616   004A38  6E0C               	movwf	(LCD_String_xy@msg+1)^0,c
  6617   004A3A  0E01               	movlw	1
  6618   004A3C  ECFA  F039         	call	_LCD_String_xy
  6619   004A40  0E04               	movlw	4
  6620   004A42  6E0A               	movwf	LCD_String_xy@pos^0,c
  6621   004A44  0EBB               	movlw	low STR_37
  6622   004A46  6E0B               	movwf	LCD_String_xy@msg^0,c
  6623   004A48  500B               	movf	LCD_String_xy@msg^0,w,c
  6624   004A4A  A4D8               	btfss	status,2,c
  6625   004A4C  0E20               	movlw	high __smallconst
  6626   004A4E  6E0C               	movwf	(LCD_String_xy@msg+1)^0,c
  6627   004A50  0E02               	movlw	2
  6628   004A52  ECFA  F039         	call	_LCD_String_xy
  6629   004A56  EF66  F016         	goto	l5931
  6630   004A5A                     l6605:
  6631   004A5A  0EAC               	movlw	low _data
  6632   004A5C  0100               	movlb	0	; () banked
  6633   004A5E  6F8C               	movwf	sprintf@s& (0+255),b
  6634   004A60  0EA3               	movlw	low STR_38
  6635   004A62  6F8D               	movwf	sprintf@fmt& (0+255),b
  6636   004A64  C05C  F08E         	movff	_count2,?_sprintf+2
  6637   004A68  C05D  F08F         	movff	_count2+1,?_sprintf+3
  6638   004A6C  EC36  F03A         	call	_sprintf	;wreg free
  6639   004A70  0E00               	movlw	0
  6640   004A72  6E0A               	movwf	LCD_String_xy@pos^0,c
  6641   004A74  0E7F               	movlw	low STR_36
  6642   004A76  6E0B               	movwf	LCD_String_xy@msg^0,c
  6643   004A78  500B               	movf	LCD_String_xy@msg^0,w,c
  6644   004A7A  A4D8               	btfss	status,2,c
  6645   004A7C  0E20               	movlw	high __smallconst
  6646   004A7E  6E0C               	movwf	(LCD_String_xy@msg+1)^0,c
  6647   004A80  0E01               	movlw	1
  6648   004A82  ECFA  F039         	call	_LCD_String_xy
  6649   004A86  0EAC               	movlw	low _data
  6650   004A88  6E01               	movwf	strcat@dest^0,c
  6651   004A8A  0EBC               	movlw	low (STR_37+1)
  6652   004A8C  6E02               	movwf	strcat@src^0,c
  6653   004A8E  ECC4  F038         	call	_strcat	;wreg free
  6654   004A92  0E04               	movlw	4
  6655   004A94  6E0A               	movwf	LCD_String_xy@pos^0,c
  6656   004A96  0EAC               	movlw	low _data
  6657   004A98  6E0B               	movwf	LCD_String_xy@msg^0,c
  6658   004A9A  6A0C               	clrf	(LCD_String_xy@msg+1)^0,c
  6659   004A9C  0E02               	movlw	2
  6660   004A9E  ECFA  F039         	call	_LCD_String_xy
  6661   004AA2  EF66  F016         	goto	l5931
  6662   004AA6  EFFE  F0FF         	goto	start
  6663   004AAA                     __end_of_main:
  6664                           	callstack 0
  6665                           
  6666 ;; *************** function _strcat *****************
  6667 ;; Defined at:
  6668 ;;		line 3 in file "C:\Program Files\Microchip\xc8\v3.00\pic\sources\c99\common\strcat.c"
  6669 ;; Parameters:    Size  Location     Type
  6670 ;;  dest            1    0[COMRAM] PTR unsigned char 
  6671 ;;		 -> data(10), 
  6672 ;;  src             1    1[COMRAM] PTR const unsigned char 
  6673 ;;		 -> STR_145(3), STR_110(3), STR_75(3), STR_40(3), 
  6674 ;; Auto vars:     Size  Location     Type
  6675 ;;  i               2    2[COMRAM] unsigned int 
  6676 ;; Return value:  Size  Location     Type
  6677 ;;                  1    0[COMRAM] PTR unsigned char 
  6678 ;; Registers used:
  6679 ;;		wreg, fsr2l, fsr2h, status,2, status,0, tblptrl, tblptrh, tblptru
  6680 ;; Tracked objects:
  6681 ;;		On entry : 0/0
  6682 ;;		On exit  : 0/0
  6683 ;;		Unchanged: 0/0
  6684 ;; Data sizes:     COMRAM   BANK0   BANK1   BANK2   BANK3   BANK4   BANK5   BANK6   BANK7   BANK8   BANK9  BANK10  BANK1
      +1  BANK12  BANK13  BANK14  BANK15  BANK16  BANK17  BANK18  BANK19  BANK20  BANK21  BANK22  BANK23  BANK24  BANK25  BANK2
      +6  BANK27  BANK28  BANK29  BANK30  BANK31
  6685 ;;      Params:         2       0       0       0       0       0       0       0       0       0       0       0       
      +0       0       0       0       0       0       0       0       0       0       0       0       0       0       0       
      +0       0       0       0       0       0
  6686 ;;      Locals:         2       0       0       0       0       0       0       0       0       0       0       0       
      +0       0       0       0       0       0       0       0       0       0       0       0       0       0       0       
      +0       0       0       0       0       0
  6687 ;;      Temps:          0       0       0       0       0       0       0       0       0       0       0       0       
      +0       0       0       0       0       0       0       0       0       0       0       0       0       0       0       
      +0       0       0       0       0       0
  6688 ;;      Totals:         4       0       0       0       0       0       0       0       0       0       0       0       
      +0       0       0       0       0       0       0       0       0       0       0       0       0       0       0       
      +0       0       0       0       0       0
  6689 ;;Total ram usage:        4 bytes
  6690 ;; Hardware stack levels used: 1
  6691 ;; This function calls:
  6692 ;;		Nothing
  6693 ;; This function is called by:
  6694 ;;		_main
  6695 ;; This function uses a non-reentrant model
  6696 ;;
  6697                           
  6698                           	psect	text1
  6699   007188                     __ptext1:
  6700                           	callstack 0
  6701   007188                     _strcat:
  6702                           	callstack 30
  6703   007188  0E00               	movlw	0
  6704   00718A  6E04               	movwf	(strcat@i+1)^0,c
  6705   00718C  0E00               	movlw	0
  6706   00718E  6E03               	movwf	strcat@i^0,c
  6707   007190  EFCC  F038         	goto	l4659
  6708   007194                     l4657:
  6709   007194  4A03               	infsnz	strcat@i^0,f,c
  6710   007196  2A04               	incf	(strcat@i+1)^0,f,c
  6711   007198                     l4659:
  6712   007198  5001               	movf	strcat@dest^0,w,c
  6713   00719A  2403               	addwf	strcat@i^0,w,c
  6714   00719C  6ED9               	movwf	fsr2l,c
  6715   00719E  6ADA               	clrf	fsr2h,c
  6716   0071A0  50DF               	movf	indf2,w,c
  6717   0071A2  A4D8               	btfss	status,2,c
  6718   0071A4  EFD6  F038         	goto	u4711
  6719   0071A8  EFD8  F038         	goto	u4710
  6720   0071AC                     u4711:
  6721   0071AC  EFCA  F038         	goto	l4657
  6722   0071B0                     u4710:
  6723   0071B0  EFDD  F038         	goto	l4663
  6724   0071B4                     l4661:
  6725   0071B4  4A03               	infsnz	strcat@i^0,f,c
  6726   0071B6  2A04               	incf	(strcat@i+1)^0,f,c
  6727   0071B8  2A02               	incf	strcat@src^0,f,c
  6728   0071BA                     l4663:
  6729   0071BA  0060  F00B  FFF6   	movff	strcat@src,tblptrl
  6730   0071C0                     	if	1	;There is more than 1 active tblptr byte
  6731   0071C0  0E20               	movlw	high __smallconst
  6732   0071C2  6EF7               	movwf	tblptrh,c
  6733   0071C4                     	endif
  6734   0071C4                     	if	0	;tblptru may be non-zero
  6735   0071C4                     	endif
  6736   0071C4                     	if	1	;Program memory is > 0xFFFF, there are 3 active tblptr bytes
  6737   0071C4  0E00               	movlw	low (__smallconst shr (0+16))
  6738   0071C6  6EF8               	movwf	tblptru,c
  6739   0071C8                     	endif
  6740   0071C8  5001               	movf	strcat@dest^0,w,c
  6741   0071CA  2403               	addwf	strcat@i^0,w,c
  6742   0071CC  6ED9               	movwf	fsr2l,c
  6743   0071CE  6ADA               	clrf	fsr2h,c
  6744   0071D0  0008               	tblrd		*
  6745   0071D2  006F FFD7 FFDF     	movff	tablat,indf2
  6746   0071D8  50DF               	movf	indf2,w,c
  6747   0071DA  A4D8               	btfss	status,2,c
  6748   0071DC  EFF2  F038         	goto	u4721
  6749   0071E0  EFF4  F038         	goto	u4720
  6750   0071E4                     u4721:
  6751   0071E4  EFDA  F038         	goto	l4661
  6752   0071E8                     u4720:
  6753   0071E8  0012               	return		;funcret
  6754   0071EA                     __end_of_strcat:
  6755                           	callstack 0
  6756                           
  6757 ;; *************** function _sprintf *****************
  6758 ;; Defined at:
  6759 ;;		line 9 in file "C:\Program Files\Microchip\xc8\v3.00\pic\sources\c99\common\nf_sprintf.c"
  6760 ;; Parameters:    Size  Location     Type
  6761 ;;  s               1   44[BANK0 ] PTR unsigned char 
  6762 ;;		 -> data(10), 
  6763 ;;  fmt             1   45[BANK0 ] PTR const unsigned char 
  6764 ;;		 -> STR_143(6), STR_137(5), STR_135(5), STR_126(5), 
  6765 ;;		 -> STR_124(5), STR_115(5), STR_113(5), STR_108(6), 
  6766 ;;		 -> STR_102(5), STR_100(5), STR_91(5), STR_89(5), 
  6767 ;;		 -> STR_80(5), STR_78(5), STR_73(6), STR_67(5), 
  6768 ;;		 -> STR_65(5), STR_56(5), STR_54(5), STR_45(5), 
  6769 ;;		 -> STR_43(5), STR_38(6), STR_32(5), STR_30(5), 
  6770 ;;		 -> STR_21(5), STR_19(5), STR_10(5), STR_8(5), 
  6771 ;;		 -> STR_1(5), 
  6772 ;; Auto vars:     Size  Location     Type
  6773 ;;  f              11   74[COMRAM] struct _IO_FILE
  6774 ;;  ret             2    0        int 
  6775 ;;  ap              1   73[COMRAM] PTR void [1]
  6776 ;;		 -> ?_sprintf(2), 
  6777 ;; Return value:  Size  Location     Type
  6778 ;;                  2   44[BANK0 ] int 
  6779 ;; Registers used:
  6780 ;;		wreg, fsr1l, fsr1h, fsr2l, fsr2h, status,2, status,0, tblptrl, tblptrh, tblptru, prodl, prodh, cstack
  6781 ;; Tracked objects:
  6782 ;;		On entry : 0/0
  6783 ;;		On exit  : 0/0
  6784 ;;		Unchanged: 0/0
  6785 ;; Data sizes:     COMRAM   BANK0   BANK1   BANK2   BANK3   BANK4   BANK5   BANK6   BANK7   BANK8   BANK9  BANK10  BANK1
      +1  BANK12  BANK13  BANK14  BANK15  BANK16  BANK17  BANK18  BANK19  BANK20  BANK21  BANK22  BANK23  BANK24  BANK25  BANK2
      +6  BANK27  BANK28  BANK29  BANK30  BANK31
  6786 ;;      Params:         0       6       0       0       0       0       0       0       0       0       0       0       
      +0       0       0       0       0       0       0       0       0       0       0       0       0       0       0       
      +0       0       0       0       0       0
  6787 ;;      Locals:        12       0       0       0       0       0       0       0       0       0       0       0       
      +0       0       0       0       0       0       0       0       0       0       0       0       0       0       0       
      +0       0       0       0       0       0
  6788 ;;      Temps:          0       0       0       0       0       0       0       0       0       0       0       0       
      +0       0       0       0       0       0       0       0       0       0       0       0       0       0       0       
      +0       0       0       0       0       0
  6789 ;;      Totals:        12       6       0       0       0       0       0       0       0       0       0       0       
      +0       0       0       0       0       0       0       0       0       0       0       0       0       0       0       
      +0       0       0       0       0       0
  6790 ;;Total ram usage:       18 bytes
  6791 ;; Hardware stack levels used: 1
  6792 ;; Hardware stack levels required when called: 7
  6793 ;; This function calls:
  6794 ;;		_vfprintf
  6795 ;; This function is called by:
  6796 ;;		_main
  6797 ;; This function uses a non-reentrant model
  6798 ;;
  6799                           
  6800                           	psect	text2
  6801   00746C                     __ptext2:
  6802                           	callstack 0
  6803   00746C                     _sprintf:
  6804                           	callstack 23
  6805   00746C  0E8E               	movlw	low (?_sprintf+2)
  6806   00746E  6E4A               	movwf	sprintf@ap^0,c
  6807   007470  C08C  F04B         	movff	sprintf@s,sprintf@f
  6808   007474  0E00               	movlw	0
  6809   007476  6E4E               	movwf	(sprintf@f+3)^0,c
  6810   007478  0E00               	movlw	0
  6811   00747A  6E4D               	movwf	(sprintf@f+2)^0,c
  6812   00747C  0E00               	movlw	0
  6813   00747E  6E55               	movwf	(sprintf@f+10)^0,c
  6814   007480  0E00               	movlw	0
  6815   007482  6E54               	movwf	(sprintf@f+9)^0,c
  6816   007484  0E4B               	movlw	low sprintf@f
  6817   007486  6E46               	movwf	vfprintf@fp^0,c
  6818   007488  C08D  F047         	movff	sprintf@fmt,vfprintf@fmt
  6819   00748C  0E4A               	movlw	low sprintf@ap
  6820   00748E  6E48               	movwf	vfprintf@ap^0,c
  6821   007490  ECB8  F039         	call	_vfprintf	;wreg free
  6822   007494  0100               	movlb	0	; () banked
  6823   007496  518C               	movf	sprintf@s& (0+255),w,b
  6824   007498  244D               	addwf	(sprintf@f+2)^0,w,c
  6825   00749A  6ED9               	movwf	fsr2l,c
  6826   00749C  6ADA               	clrf	fsr2h,c
  6827   00749E  6ADF               	clrf	indf2,c
  6828   0074A0                     
  6829                           ; BSR set to: 0
  6830   0074A0  0012               	return		;funcret
  6831   0074A2                     __end_of_sprintf:
  6832                           	callstack 0
  6833                           
  6834 ;; *************** function _vfprintf *****************
  6835 ;; Defined at:
  6836 ;;		line 1817 in file "C:\Program Files\Microchip\xc8\v3.00\pic\sources\c99\common\doprnt.c"
  6837 ;; Parameters:    Size  Location     Type
  6838 ;;  fp              1   69[COMRAM] PTR struct _IO_FILE
  6839 ;;		 -> sprintf@f(11), 
  6840 ;;  fmt             1   70[COMRAM] PTR const unsigned char 
  6841 ;;		 -> STR_143(6), STR_137(5), STR_135(5), STR_126(5), 
  6842 ;;		 -> STR_124(5), STR_115(5), STR_113(5), STR_108(6), 
  6843 ;;		 -> STR_102(5), STR_100(5), STR_91(5), STR_89(5), 
  6844 ;;		 -> STR_80(5), STR_78(5), STR_73(6), STR_67(5), 
  6845 ;;		 -> STR_65(5), STR_56(5), STR_54(5), STR_45(5), 
  6846 ;;		 -> STR_43(5), STR_38(6), STR_32(5), STR_30(5), 
  6847 ;;		 -> STR_21(5), STR_19(5), STR_10(5), STR_8(5), 
  6848 ;;		 -> STR_1(5), 
  6849 ;;  ap              1   71[COMRAM] PTR PTR void 
  6850 ;;		 -> sprintf@ap(1), 
  6851 ;; Auto vars:     Size  Location     Type
  6852 ;;  cfmt            1   72[COMRAM] PTR unsigned char 
  6853 ;;		 -> STR_143(6), STR_137(5), STR_135(5), STR_126(5), 
  6854 ;;		 -> STR_124(5), STR_115(5), STR_113(5), STR_108(6), 
  6855 ;;		 -> STR_102(5), STR_100(5), STR_91(5), STR_89(5), 
  6856 ;;		 -> STR_80(5), STR_78(5), STR_73(6), STR_67(5), 
  6857 ;;		 -> STR_65(5), STR_56(5), STR_54(5), STR_45(5), 
  6858 ;;		 -> STR_43(5), STR_38(6), STR_32(5), STR_30(5), 
  6859 ;;		 -> STR_21(5), STR_19(5), STR_10(5), STR_8(5), 
  6860 ;;		 -> STR_1(5), 
  6861 ;; Return value:  Size  Location     Type
  6862 ;;                  2   69[COMRAM] int 
  6863 ;; Registers used:
  6864 ;;		wreg, fsr1l, fsr1h, fsr2l, fsr2h, status,2, status,0, tblptrl, tblptrh, tblptru, prodl, prodh, cstack
  6865 ;; Tracked objects:
  6866 ;;		On entry : 0/0
  6867 ;;		On exit  : 0/0
  6868 ;;		Unchanged: 0/0
  6869 ;; Data sizes:     COMRAM   BANK0   BANK1   BANK2   BANK3   BANK4   BANK5   BANK6   BANK7   BANK8   BANK9  BANK10  BANK1
      +1  BANK12  BANK13  BANK14  BANK15  BANK16  BANK17  BANK18  BANK19  BANK20  BANK21  BANK22  BANK23  BANK24  BANK25  BANK2
      +6  BANK27  BANK28  BANK29  BANK30  BANK31
  6870 ;;      Params:         3       0       0       0       0       0       0       0       0       0       0       0       
      +0       0       0       0       0       0       0       0       0       0       0       0       0       0       0       
      +0       0       0       0       0       0
  6871 ;;      Locals:         1       0       0       0       0       0       0       0       0       0       0       0       
      +0       0       0       0       0       0       0       0       0       0       0       0       0       0       0       
      +0       0       0       0       0       0
  6872 ;;      Temps:          0       0       0       0       0       0       0       0       0       0       0       0       
      +0       0       0       0       0       0       0       0       0       0       0       0       0       0       0       
      +0       0       0       0       0       0
  6873 ;;      Totals:         4       0       0       0       0       0       0       0       0       0       0       0       
      +0       0       0       0       0       0       0       0       0       0       0       0       0       0       0       
      +0       0       0       0       0       0
  6874 ;;Total ram usage:        4 bytes
  6875 ;; Hardware stack levels used: 1
  6876 ;; Hardware stack levels required when called: 6
  6877 ;; This function calls:
  6878 ;;		_vfpfcnvrt
  6879 ;; This function is called by:
  6880 ;;		_sprintf
  6881 ;; This function uses a non-reentrant model
  6882 ;;
  6883                           
  6884                           	psect	text3
  6885   007370                     __ptext3:
  6886                           	callstack 0
  6887   007370                     _vfprintf:
  6888                           	callstack 23
  6889   007370                     
  6890                           ;C:\Program Files\Microchip\xc8\v3.00\pic\sources\c99\common\doprnt.c: 1817: int vfprint
      +                          f(FILE *fp, const char *fmt, va_list ap);C:\Program Files\Microchip\xc8\v3.00\pic\source
      +                          s\c99\common\doprnt.c: 1818: {;C:\Program Files\Microchip\xc8\v3.00\pic\sources\c99\comm
      +                          on\doprnt.c: 1820:     char *cfmt;;C:\Program Files\Microchip\xc8\v3.00\pic\sources\c99\
      +                          common\doprnt.c: 1822:     cfmt = (char *)fmt;
  6891   007370  C047  F049         	movff	vfprintf@fmt,vfprintf@cfmt
  6892                           
  6893                           ;C:\Program Files\Microchip\xc8\v3.00\pic\sources\c99\common\doprnt.c: 1826:     while (
      +                          *cfmt) {
  6894   007374  EFC4  F039         	goto	l4567
  6895   007378                     l4565:
  6896                           
  6897                           ;C:\Program Files\Microchip\xc8\v3.00\pic\sources\c99\common\doprnt.c: 1830:    vfpfcnvr
      +                          t(fp, &cfmt, ap);
  6898   007378  C046  F03C         	movff	vfprintf@fp,vfpfcnvrt@fp
  6899   00737C  0E49               	movlw	low vfprintf@cfmt
  6900   00737E  6E3D               	movwf	vfpfcnvrt@fmt^0,c
  6901   007380  C048  F03E         	movff	vfprintf@ap,vfpfcnvrt@ap
  6902   007384  EC90  F030         	call	_vfpfcnvrt	;wreg free
  6903   007388                     l4567:
  6904                           
  6905                           ;C:\Program Files\Microchip\xc8\v3.00\pic\sources\c99\common\doprnt.c: 1826:     while (
      +                          *cfmt) {
  6906   007388  0060  F127  FFF6   	movff	vfprintf@cfmt,tblptrl
  6907   00738E                     	if	1	;There is more than 1 active tblptr byte
  6908   00738E  0E20               	movlw	high __smallconst
  6909   007390  6EF7               	movwf	tblptrh,c
  6910   007392                     	endif
  6911   007392                     	if	0	;tblptru may be non-zero
  6912   007392                     	endif
  6913   007392                     	if	1	;Program memory is > 0xFFFF, there are 3 active tblptr bytes
  6914   007392  0E00               	movlw	low (__smallconst shr (0+16))
  6915   007394  6EF8               	movwf	tblptru,c
  6916   007396                     	endif
  6917   007396  0008               	tblrd		*
  6918   007398  50F5               	movf	tablat,w,c
  6919   00739A  0900               	iorlw	0
  6920   00739C  A4D8               	btfss	status,2,c
  6921   00739E  EFD3  F039         	goto	u4681
  6922   0073A2  EFD5  F039         	goto	u4680
  6923   0073A6                     u4681:
  6924   0073A6  EFBC  F039         	goto	l4565
  6925   0073AA                     u4680:
  6926   0073AA                     
  6927                           ;C:\Program Files\Microchip\xc8\v3.00\pic\sources\c99\common\doprnt.c: 1835:  return 0;
  6928   0073AA  0E00               	movlw	0
  6929   0073AC  6E47               	movwf	(?_vfprintf+1)^0,c
  6930   0073AE  0E00               	movlw	0
  6931   0073B0  6E46               	movwf	?_vfprintf^0,c
  6932   0073B2  0012               	return		;funcret
  6933   0073B4                     __end_of_vfprintf:
  6934                           	callstack 0
  6935                           
  6936 ;; *************** function _vfpfcnvrt *****************
  6937 ;; Defined at:
  6938 ;;		line 1177 in file "C:\Program Files\Microchip\xc8\v3.00\pic\sources\c99\common\doprnt.c"
  6939 ;; Parameters:    Size  Location     Type
  6940 ;;  fp              1   59[COMRAM] PTR struct _IO_FILE
  6941 ;;		 -> sprintf@f(11), 
  6942 ;;  fmt             1   60[COMRAM] PTR PTR unsigned char 
  6943 ;;		 -> vfprintf@cfmt(1), 
  6944 ;;  ap              1   61[COMRAM] PTR PTR void 
  6945 ;;		 -> sprintf@ap(1), 
  6946 ;; Auto vars:     Size  Location     Type
  6947 ;;  convarg         4   63[COMRAM] struct .
  6948 ;;  cp              1   68[COMRAM] PTR unsigned char 
  6949 ;;		 -> STR_143(6), STR_137(5), STR_135(5), STR_126(5), 
  6950 ;;		 -> STR_124(5), STR_115(5), STR_113(5), STR_108(6), 
  6951 ;;		 -> STR_102(5), STR_100(5), STR_91(5), STR_89(5), 
  6952 ;;		 -> STR_80(5), STR_78(5), STR_73(6), STR_67(5), 
  6953 ;;		 -> STR_65(5), STR_56(5), STR_54(5), STR_45(5), 
  6954 ;;		 -> STR_43(5), STR_38(6), STR_32(5), STR_30(5), 
  6955 ;;		 -> STR_21(5), STR_19(5), STR_10(5), STR_8(5), 
  6956 ;;		 -> STR_1(5), 
  6957 ;;  c               1   67[COMRAM] unsigned char 
  6958 ;;  done            1    0        _Bool 
  6959 ;; Return value:  Size  Location     Type
  6960 ;;                  1    wreg      void 
  6961 ;; Registers used:
  6962 ;;		wreg, fsr1l, fsr1h, fsr2l, fsr2h, status,2, status,0, tblptrl, tblptrh, tblptru, prodl, prodh, cstack
  6963 ;; Tracked objects:
  6964 ;;		On entry : 0/0
  6965 ;;		On exit  : 0/0
  6966 ;;		Unchanged: 0/0
  6967 ;; Data sizes:     COMRAM   BANK0   BANK1   BANK2   BANK3   BANK4   BANK5   BANK6   BANK7   BANK8   BANK9  BANK10  BANK1
      +1  BANK12  BANK13  BANK14  BANK15  BANK16  BANK17  BANK18  BANK19  BANK20  BANK21  BANK22  BANK23  BANK24  BANK25  BANK2
      +6  BANK27  BANK28  BANK29  BANK30  BANK31
  6968 ;;      Params:         3       0       0       0       0       0       0       0       0       0       0       0       
      +0       0       0       0       0       0       0       0       0       0       0       0       0       0       0       
      +0       0       0       0       0       0
  6969 ;;      Locals:         6       0       0       0       0       0       0       0       0       0       0       0       
      +0       0       0       0       0       0       0       0       0       0       0       0       0       0       0       
      +0       0       0       0       0       0
  6970 ;;      Temps:          1       0       0       0       0       0       0       0       0       0       0       0       
      +0       0       0       0       0       0       0       0       0       0       0       0       0       0       0       
      +0       0       0       0       0       0
  6971 ;;      Totals:        10       0       0       0       0       0       0       0       0       0       0       0       
      +0       0       0       0       0       0       0       0       0       0       0       0       0       0       0       
      +0       0       0       0       0       0
  6972 ;;Total ram usage:       10 bytes
  6973 ;; Hardware stack levels used: 1
  6974 ;; Hardware stack levels required when called: 5
  6975 ;; This function calls:
  6976 ;;		_dtoa
  6977 ;;		_efgtoa
  6978 ;;		_fputc
  6979 ;;		_read_prec_or_width
  6980 ;; This function is called by:
  6981 ;;		_vfprintf
  6982 ;; This function uses a non-reentrant model
  6983 ;;
  6984                           
  6985                           	psect	text4
  6986   006120                     __ptext4:
  6987                           	callstack 0
  6988   006120                     _vfpfcnvrt:
  6989                           	callstack 23
  6990   006120                     
  6991                           ;C:\Program Files\Microchip\xc8\v3.00\pic\sources\c99\common\doprnt.c: 1177: vfpfcnvrt(F
      +                          ILE *fp, char *fmt[], va_list ap);C:\Program Files\Microchip\xc8\v3.00\pic\sources\c99\c
      +                          ommon\doprnt.c: 1178: {;C:\Program Files\Microchip\xc8\v3.00\pic\sources\c99\common\dopr
      +                          nt.c: 1179:     char c, *cp;;C:\Program Files\Microchip\xc8\v3.00\pic\sources\c99\common
      +                          \doprnt.c: 1180:     _Bool done;;C:\Program Files\Microchip\xc8\v3.00\pic\sources\c99\co
      +                          mmon\doprnt.c: 1188:  } convarg;;C:\Program Files\Microchip\xc8\v3.00\pic\sources\c99\co
      +                          mmon\doprnt.c: 1201:     if ((*fmt)[0] == '%') {
  6992   006120  503D               	movf	vfpfcnvrt@fmt^0,w,c
  6993   006122  6ED9               	movwf	fsr2l,c
  6994   006124  6ADA               	clrf	fsr2h,c
  6995   006126  006F FF7F FFF6     	movff	indf2,tblptrl
  6996   00612C                     	if	1	;There is more than 1 active tblptr byte
  6997   00612C  0E20               	movlw	high __smallconst
  6998   00612E  6EF7               	movwf	tblptrh,c
  6999   006130                     	endif
  7000   006130                     	if	0	;tblptru may be non-zero
  7001   006130                     	endif
  7002   006130                     	if	1	;Program memory is > 0xFFFF, there are 3 active tblptr bytes
  7003   006130  0E00               	movlw	low (__smallconst shr (0+16))
  7004   006132  6EF8               	movwf	tblptru,c
  7005   006134                     	endif
  7006   006134  0008               	tblrd		*
  7007   006136  50F5               	movf	tablat,w,c
  7008   006138  0A25               	xorlw	37
  7009   00613A  A4D8               	btfss	status,2,c
  7010   00613C  EFA2  F030         	goto	u4571
  7011   006140  EFA4  F030         	goto	u4570
  7012   006144                     u4571:
  7013   006144  EFDE  F031         	goto	l4527
  7014   006148                     u4570:
  7015   006148                     
  7016                           ;C:\Program Files\Microchip\xc8\v3.00\pic\sources\c99\common\doprnt.c: 1202:         ++*
      +                          fmt;
  7017   006148  503D               	movf	vfpfcnvrt@fmt^0,w,c
  7018   00614A  6ED9               	movwf	fsr2l,c
  7019   00614C  6ADA               	clrf	fsr2h,c
  7020   00614E  2ADF               	incf	indf2,f,c
  7021   006150                     
  7022                           ;C:\Program Files\Microchip\xc8\v3.00\pic\sources\c99\common\doprnt.c: 1204:         fla
      +                          gs = width = 0;
  7023   006150  0E00               	movlw	0
  7024   006152  0100               	movlb	0	; () banked
  7025   006154  6FA5               	movwf	(_width+1)& (0+255),b
  7026   006156  0E00               	movlw	0
  7027   006158  6FA4               	movwf	_width& (0+255),b
  7028   00615A  C0A4  F05E         	movff	_width,_flags
  7029   00615E                     
  7030                           ; BSR set to: 0
  7031                           ;C:\Program Files\Microchip\xc8\v3.00\pic\sources\c99\common\doprnt.c: 1205:         pre
      +                          c = -1;
  7032   00615E  69A6               	setf	_prec& (0+255),b
  7033   006160  69A7               	setf	(_prec+1)& (0+255),b
  7034   006162                     
  7035                           ; BSR set to: 0
  7036                           ;C:\Program Files\Microchip\xc8\v3.00\pic\sources\c99\common\doprnt.c: 1256:   width = r
      +                          ead_prec_or_width(fmt, ap);
  7037   006162  C03D  F001         	movff	vfpfcnvrt@fmt,read_prec_or_width@fmt
  7038   006166  C03E  F002         	movff	vfpfcnvrt@ap,read_prec_or_width@ap
  7039   00616A  EC78  F036         	call	_read_prec_or_width	;wreg free
  7040   00616E  C001  F0A4         	movff	?_read_prec_or_width,_width
  7041   006172  C002  F0A5         	movff	?_read_prec_or_width+1,_width+1
  7042   006176                     
  7043                           ;C:\Program Files\Microchip\xc8\v3.00\pic\sources\c99\common\doprnt.c: 1257:   if (width
      +                           < 0) {
  7044   006176  0100               	movlb	0	; () banked
  7045   006178  BFA5               	btfsc	(_width+1)& (0+255),7,b
  7046   00617A  EFC3  F030         	goto	u4580
  7047   00617E  EFC1  F030         	goto	u4581
  7048   006182                     u4581:
  7049   006182  EFC8  F030         	goto	l4471
  7050   006186                     u4580:
  7051   006186                     
  7052                           ; BSR set to: 0
  7053                           ;C:\Program Files\Microchip\xc8\v3.00\pic\sources\c99\common\doprnt.c: 1258:    flags |=
      +                           (1 << 0);
  7054   006186  805E               	bsf	_flags^0,0,c
  7055                           
  7056                           ;C:\Program Files\Microchip\xc8\v3.00\pic\sources\c99\common\doprnt.c: 1259:    width = 
      +                          -width;
  7057   006188  6DA4               	negf	_width& (0+255),b
  7058   00618A  1FA5               	comf	(_width+1)& (0+255),f,b
  7059   00618C  B0D8               	btfsc	status,0,c
  7060   00618E  2BA5               	incf	(_width+1)& (0+255),f,b
  7061   006190                     l4471:
  7062                           
  7063                           ; BSR set to: 0
  7064                           ;C:\Program Files\Microchip\xc8\v3.00\pic\sources\c99\common\doprnt.c: 1265:         if 
      +                          ((*fmt)[0] == '.') {
  7065   006190  503D               	movf	vfpfcnvrt@fmt^0,w,c
  7066   006192  6ED9               	movwf	fsr2l,c
  7067   006194  6ADA               	clrf	fsr2h,c
  7068   006196  006F FF7F FFF6     	movff	indf2,tblptrl
  7069   00619C                     	if	1	;There is more than 1 active tblptr byte
  7070   00619C  0E20               	movlw	high __smallconst
  7071   00619E  6EF7               	movwf	tblptrh,c
  7072   0061A0                     	endif
  7073   0061A0                     	if	0	;tblptru may be non-zero
  7074   0061A0                     	endif
  7075   0061A0                     	if	1	;Program memory is > 0xFFFF, there are 3 active tblptr bytes
  7076   0061A0  0E00               	movlw	low (__smallconst shr (0+16))
  7077   0061A2  6EF8               	movwf	tblptru,c
  7078   0061A4                     	endif
  7079   0061A4  0008               	tblrd		*
  7080   0061A6  50F5               	movf	tablat,w,c
  7081   0061A8  0A2E               	xorlw	46
  7082   0061AA  A4D8               	btfss	status,2,c
  7083   0061AC  EFDA  F030         	goto	u4591
  7084   0061B0  EFDC  F030         	goto	u4590
  7085   0061B4                     u4591:
  7086   0061B4  EFEA  F030         	goto	l4477
  7087   0061B8                     u4590:
  7088   0061B8                     
  7089                           ; BSR set to: 0
  7090                           ;C:\Program Files\Microchip\xc8\v3.00\pic\sources\c99\common\doprnt.c: 1266:            
      +                           ++*fmt;
  7091   0061B8  503D               	movf	vfpfcnvrt@fmt^0,w,c
  7092   0061BA  6ED9               	movwf	fsr2l,c
  7093   0061BC  6ADA               	clrf	fsr2h,c
  7094   0061BE  2ADF               	incf	indf2,f,c
  7095   0061C0                     
  7096                           ; BSR set to: 0
  7097                           ;C:\Program Files\Microchip\xc8\v3.00\pic\sources\c99\common\doprnt.c: 1267:    prec = r
      +                          ead_prec_or_width(fmt, ap);
  7098   0061C0  C03D  F001         	movff	vfpfcnvrt@fmt,read_prec_or_width@fmt
  7099   0061C4  C03E  F002         	movff	vfpfcnvrt@ap,read_prec_or_width@ap
  7100   0061C8  EC78  F036         	call	_read_prec_or_width	;wreg free
  7101   0061CC  C001  F0A6         	movff	?_read_prec_or_width,_prec
  7102   0061D0  C002  F0A7         	movff	?_read_prec_or_width+1,_prec+1
  7103   0061D4                     l4477:
  7104                           
  7105                           ;C:\Program Files\Microchip\xc8\v3.00\pic\sources\c99\common\doprnt.c: 1291:   cp = *fmt
      +                          ;
  7106   0061D4  503D               	movf	vfpfcnvrt@fmt^0,w,c
  7107   0061D6  6ED9               	movwf	fsr2l,c
  7108   0061D8  6ADA               	clrf	fsr2h,c
  7109   0061DA  50DF               	movf	indf2,w,c
  7110   0061DC  6E45               	movwf	vfpfcnvrt@cp^0,c
  7111   0061DE                     
  7112                           ;C:\Program Files\Microchip\xc8\v3.00\pic\sources\c99\common\doprnt.c: 1361:   if (*cp =
      +                          = 'd' || *cp == 'i') {
  7113   0061DE  0060  F117  FFF6   	movff	vfpfcnvrt@cp,tblptrl
  7114   0061E4                     	if	1	;There is more than 1 active tblptr byte
  7115   0061E4  0E20               	movlw	high __smallconst
  7116   0061E6  6EF7               	movwf	tblptrh,c
  7117   0061E8                     	endif
  7118   0061E8                     	if	0	;tblptru may be non-zero
  7119   0061E8                     	endif
  7120   0061E8                     	if	1	;Program memory is > 0xFFFF, there are 3 active tblptr bytes
  7121   0061E8  0E00               	movlw	low (__smallconst shr (0+16))
  7122   0061EA  6EF8               	movwf	tblptru,c
  7123   0061EC                     	endif
  7124   0061EC  0008               	tblrd		*
  7125   0061EE  50F5               	movf	tablat,w,c
  7126   0061F0  0A64               	xorlw	100
  7127   0061F2  B4D8               	btfsc	status,2,c
  7128   0061F4  EFFE  F030         	goto	u4601
  7129   0061F8  EF00  F031         	goto	u4600
  7130   0061FC                     u4601:
  7131   0061FC  EF11  F031         	goto	l4483
  7132   006200                     u4600:
  7133   006200  0060  F117  FFF6   	movff	vfpfcnvrt@cp,tblptrl
  7134   006206                     	if	1	;There is more than 1 active tblptr byte
  7135   006206  0E20               	movlw	high __smallconst
  7136   006208  6EF7               	movwf	tblptrh,c
  7137   00620A                     	endif
  7138   00620A                     	if	0	;tblptru may be non-zero
  7139   00620A                     	endif
  7140   00620A                     	if	1	;Program memory is > 0xFFFF, there are 3 active tblptr bytes
  7141   00620A  0E00               	movlw	low (__smallconst shr (0+16))
  7142   00620C  6EF8               	movwf	tblptru,c
  7143   00620E                     	endif
  7144   00620E  0008               	tblrd		*
  7145   006210  50F5               	movf	tablat,w,c
  7146   006212  0A69               	xorlw	105
  7147   006214  A4D8               	btfss	status,2,c
  7148   006216  EF0F  F031         	goto	u4611
  7149   00621A  EF11  F031         	goto	u4610
  7150   00621E                     u4611:
  7151   00621E  EF2E  F031         	goto	l4491
  7152   006222                     u4610:
  7153   006222                     l4483:
  7154                           
  7155                           ;C:\Program Files\Microchip\xc8\v3.00\pic\sources\c99\common\doprnt.c: 1404:    convarg.
      +                          sint = (vfpf_sint_t)(int)(*(int *)__va_arg(*(int **)ap, (int)0));
  7156   006222  503E               	movf	vfpfcnvrt@ap^0,w,c
  7157   006224  6ED9               	movwf	fsr2l,c
  7158   006226  6ADA               	clrf	fsr2h,c
  7159   006228  0E02               	movlw	2
  7160   00622A  26DF               	addwf	indf2,f,c
  7161   00622C  5CDF               	subwf	indf2,w,c
  7162   00622E  6ED9               	movwf	fsr2l,c
  7163   006230  6ADA               	clrf	fsr2h,c
  7164   006232  006F FF78  F040    	movff	postinc2,vfpfcnvrt@convarg
  7165   006238  006F FF78  F041    	movff	postinc2,vfpfcnvrt@convarg+1
  7166   00623E                     
  7167                           ;C:\Program Files\Microchip\xc8\v3.00\pic\sources\c99\common\doprnt.c: 1406:    *fmt = c
      +                          p+1;
  7168   00623E  503D               	movf	vfpfcnvrt@fmt^0,w,c
  7169   006240  6ED9               	movwf	fsr2l,c
  7170   006242  6ADA               	clrf	fsr2h,c
  7171   006244  2845               	incf	vfpfcnvrt@cp^0,w,c
  7172   006246  6EDF               	movwf	indf2,c
  7173   006248                     
  7174                           ;C:\Program Files\Microchip\xc8\v3.00\pic\sources\c99\common\doprnt.c: 1432:    return (
      +                          void) dtoa(fp, convarg.sint);;	Return value of _vfpfcnvrt is never used
  7175   006248  C03C  F017         	movff	vfpfcnvrt@fp,dtoa@fp
  7176   00624C  C040  F018         	movff	vfpfcnvrt@convarg,dtoa@d
  7177   006250  C041  F019         	movff	vfpfcnvrt@convarg+1,dtoa@d+1
  7178   006254  ECD6  F033         	call	_dtoa	;wreg free
  7179   006258  EFF2  F031         	goto	l1027
  7180   00625C                     l4491:
  7181                           
  7182                           ;C:\Program Files\Microchip\xc8\v3.00\pic\sources\c99\common\doprnt.c: 1689:   cp = *fmt
      +                          ;
  7183   00625C  503D               	movf	vfpfcnvrt@fmt^0,w,c
  7184   00625E  6ED9               	movwf	fsr2l,c
  7185   006260  6ADA               	clrf	fsr2h,c
  7186   006262  50DF               	movf	indf2,w,c
  7187   006264  6E45               	movwf	vfpfcnvrt@cp^0,c
  7188   006266                     
  7189                           ;C:\Program Files\Microchip\xc8\v3.00\pic\sources\c99\common\doprnt.c: 1690:   c = *cp;
  7190   006266  0060  F117  FFF6   	movff	vfpfcnvrt@cp,tblptrl
  7191   00626C                     	if	1	;There is more than 1 active tblptr byte
  7192   00626C  0E20               	movlw	high __smallconst
  7193   00626E  6EF7               	movwf	tblptrh,c
  7194   006270                     	endif
  7195   006270                     	if	0	;tblptru may be non-zero
  7196   006270                     	endif
  7197   006270                     	if	1	;Program memory is > 0xFFFF, there are 3 active tblptr bytes
  7198   006270  0E00               	movlw	low (__smallconst shr (0+16))
  7199   006272  6EF8               	movwf	tblptru,c
  7200   006274                     	endif
  7201   006274  0008               	tblrd		*
  7202   006276  006F FFD4  F044    	movff	tablat,vfpfcnvrt@c
  7203                           
  7204                           ;C:\Program Files\Microchip\xc8\v3.00\pic\sources\c99\common\doprnt.c: 1691:   switch(c)
      +                           {
  7205   00627C  EF4A  F031         	goto	l4501
  7206   006280                     l4495:
  7207                           
  7208                           ;C:\Program Files\Microchip\xc8\v3.00\pic\sources\c99\common\doprnt.c: 1695:     cp++;
  7209   006280  2A45               	incf	vfpfcnvrt@cp^0,f,c
  7210                           
  7211                           ;C:\Program Files\Microchip\xc8\v3.00\pic\sources\c99\common\doprnt.c: 1696:     break;
  7212   006282  EF59  F031         	goto	l4503
  7213   006286                     l4497:
  7214                           
  7215                           ;C:\Program Files\Microchip\xc8\v3.00\pic\sources\c99\common\doprnt.c: 1721:     c = 'l'
      +                          ;
  7216   006286  0E6C               	movlw	108
  7217   006288  6E44               	movwf	vfpfcnvrt@c^0,c
  7218                           
  7219                           ;C:\Program Files\Microchip\xc8\v3.00\pic\sources\c99\common\doprnt.c: 1722:     break;
  7220   00628A  EF59  F031         	goto	l4503
  7221   00628E                     l1033:
  7222                           
  7223                           ;C:\Program Files\Microchip\xc8\v3.00\pic\sources\c99\common\doprnt.c: 1724:     c = 0;
  7224   00628E  6A44               	clrf	vfpfcnvrt@c^0,c
  7225                           
  7226                           ;C:\Program Files\Microchip\xc8\v3.00\pic\sources\c99\common\doprnt.c: 1725:     break;
  7227   006290  EF59  F031         	goto	l4503
  7228   006294                     l4501:
  7229   006294  5044               	movf	vfpfcnvrt@c^0,w,c
  7230                           
  7231                           ; Switch size 1, requested type "simple"
  7232                           ; Number of cases is 3, Range of values is 76 to 108
  7233                           ; switch strategies available:
  7234                           ; Name         Instructions Cycles
  7235                           ; simple_byte           10     6 (average)
  7236                           ;	Chosen strategy is simple_byte
  7237   006296  0A4C               	xorlw	76	; case 76
  7238   006298  B4D8               	btfsc	status,2,c
  7239   00629A  EF40  F031         	goto	l4495
  7240   00629E  0A2A               	xorlw	42	; case 102
  7241   0062A0  B4D8               	btfsc	status,2,c
  7242   0062A2  EF43  F031         	goto	l4497
  7243   0062A6  0A0A               	xorlw	10	; case 108
  7244   0062A8  B4D8               	btfsc	status,2,c
  7245   0062AA  EF40  F031         	goto	l4495
  7246   0062AE  EF47  F031         	goto	l1033
  7247   0062B2                     l4503:
  7248   0062B2  0060  F117  FFF6   	movff	vfpfcnvrt@cp,tblptrl
  7249   0062B8                     	if	1	;There is more than 1 active tblptr byte
  7250   0062B8  0E20               	movlw	high __smallconst
  7251   0062BA  6EF7               	movwf	tblptrh,c
  7252   0062BC                     	endif
  7253   0062BC                     	if	0	;tblptru may be non-zero
  7254   0062BC                     	endif
  7255   0062BC                     	if	1	;Program memory is > 0xFFFF, there are 3 active tblptr bytes
  7256   0062BC  0E00               	movlw	low (__smallconst shr (0+16))
  7257   0062BE  6EF8               	movwf	tblptru,c
  7258   0062C0                     	endif
  7259   0062C0  0008               	tblrd		*
  7260   0062C2  50F5               	movf	tablat,w,c
  7261   0062C4  0A66               	xorlw	102
  7262   0062C6  A4D8               	btfss	status,2,c
  7263   0062C8  EF68  F031         	goto	u4621
  7264   0062CC  EF6A  F031         	goto	u4620
  7265   0062D0                     u4621:
  7266   0062D0  EFD8  F031         	goto	l4523
  7267   0062D4                     u4620:
  7268   0062D4  EF9E  F031         	goto	l4511
  7269   0062D8                     l4505:
  7270                           
  7271                           ;C:\Program Files\Microchip\xc8\v3.00\pic\sources\c99\common\doprnt.c: 1756:      convar
      +                          g.f = (long double)(*(double *)__va_arg(*(double **)ap, (double)0));
  7272   0062D8  503E               	movf	vfpfcnvrt@ap^0,w,c
  7273   0062DA  6ED9               	movwf	fsr2l,c
  7274   0062DC  6ADA               	clrf	fsr2h,c
  7275   0062DE  006F FF7C  F03F    	movff	indf2,??_vfpfcnvrt
  7276   0062E4  0E04               	movlw	4
  7277   0062E6  26DF               	addwf	indf2,f,c
  7278   0062E8  503F               	movf	??_vfpfcnvrt^0,w,c
  7279   0062EA  6ED9               	movwf	fsr2l,c
  7280   0062EC  6ADA               	clrf	fsr2h,c
  7281   0062EE  006F FF78  F040    	movff	postinc2,vfpfcnvrt@convarg
  7282   0062F4  006F FF78  F041    	movff	postinc2,vfpfcnvrt@convarg+1
  7283   0062FA  006F FF78  F042    	movff	postinc2,vfpfcnvrt@convarg+2
  7284   006300  006F FF78  F043    	movff	postinc2,vfpfcnvrt@convarg+3
  7285                           
  7286                           ;C:\Program Files\Microchip\xc8\v3.00\pic\sources\c99\common\doprnt.c: 1757:      break;
  7287   006306  EFA9  F031         	goto	l4513
  7288   00630A                     l4507:
  7289                           
  7290                           ;C:\Program Files\Microchip\xc8\v3.00\pic\sources\c99\common\doprnt.c: 1759:      convar
      +                          g.f = (long double)(*(long double *)__va_arg(*(long double **)ap, (long double)0));
  7291   00630A  503E               	movf	vfpfcnvrt@ap^0,w,c
  7292   00630C  6ED9               	movwf	fsr2l,c
  7293   00630E  6ADA               	clrf	fsr2h,c
  7294   006310  006F FF7C  F03F    	movff	indf2,??_vfpfcnvrt
  7295   006316  0E04               	movlw	4
  7296   006318  26DF               	addwf	indf2,f,c
  7297   00631A  503F               	movf	??_vfpfcnvrt^0,w,c
  7298   00631C  6ED9               	movwf	fsr2l,c
  7299   00631E  6ADA               	clrf	fsr2h,c
  7300   006320  006F FF78  F040    	movff	postinc2,vfpfcnvrt@convarg
  7301   006326  006F FF78  F041    	movff	postinc2,vfpfcnvrt@convarg+1
  7302   00632C  006F FF78  F042    	movff	postinc2,vfpfcnvrt@convarg+2
  7303   006332  006F FF78  F043    	movff	postinc2,vfpfcnvrt@convarg+3
  7304                           
  7305                           ;C:\Program Files\Microchip\xc8\v3.00\pic\sources\c99\common\doprnt.c: 1760:      break;
  7306   006338  EFA9  F031         	goto	l4513
  7307   00633C                     l4511:
  7308   00633C  5044               	movf	vfpfcnvrt@c^0,w,c
  7309                           
  7310                           ; Switch size 1, requested type "simple"
  7311                           ; Number of cases is 2, Range of values is 76 to 108
  7312                           ; switch strategies available:
  7313                           ; Name         Instructions Cycles
  7314                           ; simple_byte            7     4 (average)
  7315                           ;	Chosen strategy is simple_byte
  7316   00633E  0A4C               	xorlw	76	; case 76
  7317   006340  B4D8               	btfsc	status,2,c
  7318   006342  EF85  F031         	goto	l4507
  7319   006346  0A20               	xorlw	32	; case 108
  7320   006348  B4D8               	btfsc	status,2,c
  7321   00634A  EF6C  F031         	goto	l4505
  7322   00634E  EFA9  F031         	goto	l4513
  7323   006352                     l4513:
  7324                           
  7325                           ;C:\Program Files\Microchip\xc8\v3.00\pic\sources\c99\common\doprnt.c: 1762:    *fmt = c
      +                          p+1;
  7326   006352  503D               	movf	vfpfcnvrt@fmt^0,w,c
  7327   006354  6ED9               	movwf	fsr2l,c
  7328   006356  6ADA               	clrf	fsr2h,c
  7329   006358  2845               	incf	vfpfcnvrt@cp^0,w,c
  7330   00635A  6EDF               	movwf	indf2,c
  7331                           
  7332                           ;C:\Program Files\Microchip\xc8\v3.00\pic\sources\c99\common\doprnt.c: 1763:    switch (
      +                          *cp) {
  7333   00635C  EFC9  F031         	goto	l4521
  7334   006360                     l4515:
  7335                           
  7336                           ;C:\Program Files\Microchip\xc8\v3.00\pic\sources\c99\common\doprnt.c: 1790:      return
      +                           (void) efgtoa(fp, convarg.f, *cp);;	Return value of _vfpfcnvrt is never used
  7337   006360  C03C  F034         	movff	vfpfcnvrt@fp,efgtoa@fp
  7338   006364  C040  F035         	movff	vfpfcnvrt@convarg,efgtoa@f
  7339   006368  C041  F036         	movff	vfpfcnvrt@convarg+1,efgtoa@f+1
  7340   00636C  C042  F037         	movff	vfpfcnvrt@convarg+2,efgtoa@f+2
  7341   006370  C043  F038         	movff	vfpfcnvrt@convarg+3,efgtoa@f+3
  7342   006374  0060  F117  FFF6   	movff	vfpfcnvrt@cp,tblptrl
  7343   00637A                     	if	1	;There is more than 1 active tblptr byte
  7344   00637A  0E20               	movlw	high __smallconst
  7345   00637C  6EF7               	movwf	tblptrh,c
  7346   00637E                     	endif
  7347   00637E                     	if	0	;tblptru may be non-zero
  7348   00637E                     	endif
  7349   00637E                     	if	1	;Program memory is > 0xFFFF, there are 3 active tblptr bytes
  7350   00637E  0E00               	movlw	low (__smallconst shr (0+16))
  7351   006380  6EF8               	movwf	tblptru,c
  7352   006382                     	endif
  7353   006382  0008               	tblrd		*
  7354   006384  006F FFD4  F039    	movff	tablat,efgtoa@c
  7355   00638A  EC55  F025         	call	_efgtoa	;wreg free
  7356   00638E  EFF2  F031         	goto	l1027
  7357   006392                     l4521:
  7358   006392  0060  F117  FFF6   	movff	vfpfcnvrt@cp,tblptrl
  7359   006398                     	if	1	;There is more than 1 active tblptr byte
  7360   006398  0E20               	movlw	high __smallconst
  7361   00639A  6EF7               	movwf	tblptrh,c
  7362   00639C                     	endif
  7363   00639C                     	if	0	;tblptru may be non-zero
  7364   00639C                     	endif
  7365   00639C                     	if	1	;Program memory is > 0xFFFF, there are 3 active tblptr bytes
  7366   00639C  0E00               	movlw	low (__smallconst shr (0+16))
  7367   00639E  6EF8               	movwf	tblptru,c
  7368   0063A0                     	endif
  7369   0063A0  0008               	tblrd		*
  7370   0063A2  50F5               	movf	tablat,w,c
  7371                           
  7372                           ; Switch size 1, requested type "simple"
  7373                           ; Number of cases is 1, Range of values is 102 to 102
  7374                           ; switch strategies available:
  7375                           ; Name         Instructions Cycles
  7376                           ; simple_byte            4     3 (average)
  7377                           ;	Chosen strategy is simple_byte
  7378   0063A4  0A66               	xorlw	102	; case 102
  7379   0063A6  B4D8               	btfsc	status,2,c
  7380   0063A8  EFB0  F031         	goto	l4515
  7381   0063AC  EFD8  F031         	goto	l4523
  7382   0063B0                     l4523:
  7383                           
  7384                           ;C:\Program Files\Microchip\xc8\v3.00\pic\sources\c99\common\doprnt.c: 1806:         ++*
      +                          fmt;
  7385   0063B0  503D               	movf	vfpfcnvrt@fmt^0,w,c
  7386   0063B2  6ED9               	movwf	fsr2l,c
  7387   0063B4  6ADA               	clrf	fsr2h,c
  7388   0063B6  2ADF               	incf	indf2,f,c
  7389   0063B8  EFF2  F031         	goto	l1027
  7390   0063BC                     l4527:
  7391                           
  7392                           ;C:\Program Files\Microchip\xc8\v3.00\pic\sources\c99\common\doprnt.c: 1811:     fputc((
      +                          int)(*fmt)[0], fp);
  7393   0063BC  503D               	movf	vfpfcnvrt@fmt^0,w,c
  7394   0063BE  6ED9               	movwf	fsr2l,c
  7395   0063C0  6ADA               	clrf	fsr2h,c
  7396   0063C2  006F FF7F FFF6     	movff	indf2,tblptrl
  7397   0063C8                     	if	1	;There is more than 1 active tblptr byte
  7398   0063C8  0E20               	movlw	high __smallconst
  7399   0063CA  6EF7               	movwf	tblptrh,c
  7400   0063CC                     	endif
  7401   0063CC                     	if	0	;tblptru may be non-zero
  7402   0063CC                     	endif
  7403   0063CC                     	if	1	;Program memory is > 0xFFFF, there are 3 active tblptr bytes
  7404   0063CC  0E00               	movlw	low (__smallconst shr (0+16))
  7405   0063CE  6EF8               	movwf	tblptru,c
  7406   0063D0                     	endif
  7407   0063D0  0008               	tblrd		*
  7408   0063D2  50F5               	movf	tablat,w,c
  7409   0063D4  6E01               	movwf	fputc@c^0,c
  7410   0063D6  6A02               	clrf	(fputc@c+1)^0,c
  7411   0063D8  C03C  F003         	movff	vfpfcnvrt@fp,fputc@fp
  7412   0063DC  EC2B  F037         	call	_fputc	;wreg free
  7413   0063E0  EFD8  F031         	goto	l4523
  7414   0063E4                     l1027:
  7415   0063E4  0012               	return		;funcret
  7416   0063E6                     __end_of_vfpfcnvrt:
  7417                           	callstack 0
  7418                           
  7419 ;; *************** function _read_prec_or_width *****************
  7420 ;; Defined at:
  7421 ;;		line 1158 in file "C:\Program Files\Microchip\xc8\v3.00\pic\sources\c99\common\doprnt.c"
  7422 ;; Parameters:    Size  Location     Type
  7423 ;;  fmt             1    0[COMRAM] PTR PTR const unsigned c
  7424 ;;		 -> vfprintf@cfmt(1), 
  7425 ;;  ap              1    1[COMRAM] PTR PTR void [1]
  7426 ;;		 -> sprintf@ap(1), 
  7427 ;; Auto vars:     Size  Location     Type
  7428 ;;  c               1    4[COMRAM] unsigned char 
  7429 ;;  n               2    5[COMRAM] int 
  7430 ;; Return value:  Size  Location     Type
  7431 ;;                  2    0[COMRAM] int 
  7432 ;; Registers used:
  7433 ;;		wreg, fsr2l, fsr2h, status,2, status,0, tblptrl, tblptrh, tblptru, prodl, prodh
  7434 ;; Tracked objects:
  7435 ;;		On entry : 0/0
  7436 ;;		On exit  : 0/0
  7437 ;;		Unchanged: 0/0
  7438 ;; Data sizes:     COMRAM   BANK0   BANK1   BANK2   BANK3   BANK4   BANK5   BANK6   BANK7   BANK8   BANK9  BANK10  BANK1
      +1  BANK12  BANK13  BANK14  BANK15  BANK16  BANK17  BANK18  BANK19  BANK20  BANK21  BANK22  BANK23  BANK24  BANK25  BANK2
      +6  BANK27  BANK28  BANK29  BANK30  BANK31
  7439 ;;      Params:         2       0       0       0       0       0       0       0       0       0       0       0       
      +0       0       0       0       0       0       0       0       0       0       0       0       0       0       0       
      +0       0       0       0       0       0
  7440 ;;      Locals:         3       0       0       0       0       0       0       0       0       0       0       0       
      +0       0       0       0       0       0       0       0       0       0       0       0       0       0       0       
      +0       0       0       0       0       0
  7441 ;;      Temps:          2       0       0       0       0       0       0       0       0       0       0       0       
      +0       0       0       0       0       0       0       0       0       0       0       0       0       0       0       
      +0       0       0       0       0       0
  7442 ;;      Totals:         7       0       0       0       0       0       0       0       0       0       0       0       
      +0       0       0       0       0       0       0       0       0       0       0       0       0       0       0       
      +0       0       0       0       0       0
  7443 ;;Total ram usage:        7 bytes
  7444 ;; Hardware stack levels used: 1
  7445 ;; This function calls:
  7446 ;;		Nothing
  7447 ;; This function is called by:
  7448 ;;		_vfpfcnvrt
  7449 ;; This function uses a non-reentrant model
  7450 ;;
  7451                           
  7452                           	psect	text5
  7453   006CF0                     __ptext5:
  7454                           	callstack 0
  7455   006CF0                     _read_prec_or_width:
  7456                           	callstack 27
  7457   006CF0                     
  7458                           ;C:\Program Files\Microchip\xc8\v3.00\pic\sources\c99\common\doprnt.c: 1159:     int n =
      +                           0;
  7459   006CF0  0E00               	movlw	0
  7460   006CF2  6E07               	movwf	(read_prec_or_width@n+1)^0,c
  7461   006CF4  0E00               	movlw	0
  7462   006CF6  6E06               	movwf	read_prec_or_width@n^0,c
  7463   006CF8                     
  7464                           ;C:\Program Files\Microchip\xc8\v3.00\pic\sources\c99\common\doprnt.c: 1160:     if ((*f
      +                          mt)[0] == '*') {
  7465   006CF8  5001               	movf	read_prec_or_width@fmt^0,w,c
  7466   006CFA  6ED9               	movwf	fsr2l,c
  7467   006CFC  6ADA               	clrf	fsr2h,c
  7468   006CFE  006F FF7F FFF6     	movff	indf2,tblptrl
  7469   006D04                     	if	1	;There is more than 1 active tblptr byte
  7470   006D04  0E20               	movlw	high __smallconst
  7471   006D06  6EF7               	movwf	tblptrh,c
  7472   006D08                     	endif
  7473   006D08                     	if	0	;tblptru may be non-zero
  7474   006D08                     	endif
  7475   006D08                     	if	1	;Program memory is > 0xFFFF, there are 3 active tblptr bytes
  7476   006D08  0E00               	movlw	low (__smallconst shr (0+16))
  7477   006D0A  6EF8               	movwf	tblptru,c
  7478   006D0C                     	endif
  7479   006D0C  0008               	tblrd		*
  7480   006D0E  50F5               	movf	tablat,w,c
  7481   006D10  0A2A               	xorlw	42
  7482   006D12  A4D8               	btfss	status,2,c
  7483   006D14  EF8E  F036         	goto	u4551
  7484   006D18  EF90  F036         	goto	u4550
  7485   006D1C                     u4551:
  7486   006D1C  EFB9  F036         	goto	l4443
  7487   006D20                     u4550:
  7488   006D20                     
  7489                           ;C:\Program Files\Microchip\xc8\v3.00\pic\sources\c99\common\doprnt.c: 1161:         ++*
      +                          fmt;
  7490   006D20  5001               	movf	read_prec_or_width@fmt^0,w,c
  7491   006D22  6ED9               	movwf	fsr2l,c
  7492   006D24  6ADA               	clrf	fsr2h,c
  7493   006D26  2ADF               	incf	indf2,f,c
  7494   006D28                     
  7495                           ;C:\Program Files\Microchip\xc8\v3.00\pic\sources\c99\common\doprnt.c: 1162:         n =
      +                           (*(int *)__va_arg(*(int **)*ap, (int)0));
  7496   006D28  5002               	movf	read_prec_or_width@ap^0,w,c
  7497   006D2A  6ED9               	movwf	fsr2l,c
  7498   006D2C  6ADA               	clrf	fsr2h,c
  7499   006D2E  0E02               	movlw	2
  7500   006D30  26DF               	addwf	indf2,f,c
  7501   006D32  5CDF               	subwf	indf2,w,c
  7502   006D34  6ED9               	movwf	fsr2l,c
  7503   006D36  6ADA               	clrf	fsr2h,c
  7504   006D38  006F FF78  F006    	movff	postinc2,read_prec_or_width@n
  7505   006D3E  006F FF78  F007    	movff	postinc2,read_prec_or_width@n+1
  7506                           
  7507                           ;C:\Program Files\Microchip\xc8\v3.00\pic\sources\c99\common\doprnt.c: 1163:     } else 
      +                          {
  7508   006D44  EFCF  F036         	goto	l1014
  7509   006D48                     l4439:
  7510                           
  7511                           ;C:\Program Files\Microchip\xc8\v3.00\pic\sources\c99\common\doprnt.c: 1166:            
      +                           n = n * 10 + c;
  7512   006D48  0E0A               	movlw	10
  7513   006D4A  0206               	mulwf	read_prec_or_width@n^0,c
  7514   006D4C  006F FFCC  F003    	movff	prodl,??_read_prec_or_width
  7515   006D52  006F FFD0  F004    	movff	prodh,??_read_prec_or_width+1
  7516   006D58  0207               	mulwf	(read_prec_or_width@n+1)^0,c
  7517   006D5A  50F3               	movf	prodl,w,c
  7518   006D5C  2604               	addwf	(??_read_prec_or_width+1)^0,f,c
  7519   006D5E  5005               	movf	read_prec_or_width@c^0,w,c
  7520   006D60  2403               	addwf	??_read_prec_or_width^0,w,c
  7521   006D62  6E06               	movwf	read_prec_or_width@n^0,c
  7522   006D64  0E00               	movlw	0
  7523   006D66  2004               	addwfc	(??_read_prec_or_width+1)^0,w,c
  7524   006D68  6E07               	movwf	(read_prec_or_width@n+1)^0,c
  7525   006D6A                     
  7526                           ;C:\Program Files\Microchip\xc8\v3.00\pic\sources\c99\common\doprnt.c: 1167:            
      +                           ++*fmt;
  7527   006D6A  5001               	movf	read_prec_or_width@fmt^0,w,c
  7528   006D6C  6ED9               	movwf	fsr2l,c
  7529   006D6E  6ADA               	clrf	fsr2h,c
  7530   006D70  2ADF               	incf	indf2,f,c
  7531   006D72                     l4443:
  7532                           
  7533                           ;C:\Program Files\Microchip\xc8\v3.00\pic\sources\c99\common\doprnt.c: 1165:         whi
      +                          le ((c = ((unsigned)(*fmt)[0]) - '0') < 10) {
  7534   006D72  5001               	movf	read_prec_or_width@fmt^0,w,c
  7535   006D74  6ED9               	movwf	fsr2l,c
  7536   006D76  6ADA               	clrf	fsr2h,c
  7537   006D78  006F FF7F FFF6     	movff	indf2,tblptrl
  7538   006D7E                     	if	1	;There is more than 1 active tblptr byte
  7539   006D7E  0E20               	movlw	high __smallconst
  7540   006D80  6EF7               	movwf	tblptrh,c
  7541   006D82                     	endif
  7542   006D82                     	if	0	;tblptru may be non-zero
  7543   006D82                     	endif
  7544   006D82                     	if	1	;Program memory is > 0xFFFF, there are 3 active tblptr bytes
  7545   006D82  0E00               	movlw	low (__smallconst shr (0+16))
  7546   006D84  6EF8               	movwf	tblptru,c
  7547   006D86                     	endif
  7548   006D86  0008               	tblrd		*
  7549   006D88  50F5               	movf	tablat,w,c
  7550   006D8A  0FD0               	addlw	208
  7551   006D8C  6E05               	movwf	read_prec_or_width@c^0,c
  7552   006D8E  0E09               	movlw	9
  7553   006D90  6405               	cpfsgt	read_prec_or_width@c^0,c
  7554   006D92  EFCD  F036         	goto	u4561
  7555   006D96  EFCF  F036         	goto	u4560
  7556   006D9A                     u4561:
  7557   006D9A  EFA4  F036         	goto	l4439
  7558   006D9E                     u4560:
  7559   006D9E                     l1014:
  7560                           
  7561                           ;C:\Program Files\Microchip\xc8\v3.00\pic\sources\c99\common\doprnt.c: 1170:     return 
      +                          n;
  7562   006D9E  C006  F001         	movff	read_prec_or_width@n,?_read_prec_or_width
  7563   006DA2  C007  F002         	movff	read_prec_or_width@n+1,?_read_prec_or_width+1
  7564   006DA6  0012               	return		;funcret
  7565   006DA8                     __end_of_read_prec_or_width:
  7566                           	callstack 0
  7567                           
  7568 ;; *************** function _efgtoa *****************
  7569 ;; Defined at:
  7570 ;;		line 587 in file "C:\Program Files\Microchip\xc8\v3.00\pic\sources\c99\common\doprnt.c"
  7571 ;; Parameters:    Size  Location     Type
  7572 ;;  fp              1   51[COMRAM] PTR struct _IO_FILE
  7573 ;;		 -> sprintf@f(11), 
  7574 ;;  f               4   52[COMRAM] PTR struct _IO_FILE
  7575 ;;  c               1   56[COMRAM] unsigned char 
  7576 ;; Auto vars:     Size  Location     Type
  7577 ;;  u               4   40[BANK0 ] struct flui
  7578 ;;  g               4   36[BANK0 ] struct flui
  7579 ;;  l               4   29[BANK0 ] struct flui
  7580 ;;  h               4   25[BANK0 ] struct flui
  7581 ;;  ou              4   19[BANK0 ] struct flui
  7582 ;;  n               2   34[BANK0 ] int 
  7583 ;;  i               2   23[BANK0 ] int 
  7584 ;;  w               2   17[BANK0 ] int 
  7585 ;;  e               2   15[BANK0 ] int 
  7586 ;;  m               2   13[BANK0 ] int 
  7587 ;;  d               2   11[BANK0 ] int 
  7588 ;;  t               2    4[BANK0 ] int 
  7589 ;;  p               2    2[BANK0 ] int 
  7590 ;;  ne              2    0[BANK0 ] int 
  7591 ;;  sign            1   33[BANK0 ] unsigned char 
  7592 ;;  nmode           1   10[BANK0 ] unsigned char 
  7593 ;;  mode            1    9[BANK0 ] unsigned char 
  7594 ;;  pp              1    8[BANK0 ] unsigned char 
  7595 ;;  esign           1    0        unsigned char 
  7596 ;; Return value:  Size  Location     Type
  7597 ;;                  1    wreg      void 
  7598 ;; Registers used:
  7599 ;;		wreg, fsr1l, fsr1h, fsr2l, fsr2h, status,2, status,0, tblptrl, tblptrh, tblptru, prodl, prodh, cstack
  7600 ;; Tracked objects:
  7601 ;;		On entry : 0/0
  7602 ;;		On exit  : 0/0
  7603 ;;		Unchanged: 0/0
  7604 ;; Data sizes:     COMRAM   BANK0   BANK1   BANK2   BANK3   BANK4   BANK5   BANK6   BANK7   BANK8   BANK9  BANK10  BANK1
      +1  BANK12  BANK13  BANK14  BANK15  BANK16  BANK17  BANK18  BANK19  BANK20  BANK21  BANK22  BANK23  BANK24  BANK25  BANK2
      +6  BANK27  BANK28  BANK29  BANK30  BANK31
  7605 ;;      Params:         6       0       0       0       0       0       0       0       0       0       0       0       
      +0       0       0       0       0       0       0       0       0       0       0       0       0       0       0       
      +0       0       0       0       0       0
  7606 ;;      Locals:         0      44       0       0       0       0       0       0       0       0       0       0       
      +0       0       0       0       0       0       0       0       0       0       0       0       0       0       0       
      +0       0       0       0       0       0
  7607 ;;      Temps:          2       0       0       0       0       0       0       0       0       0       0       0       
      +0       0       0       0       0       0       0       0       0       0       0       0       0       0       0       
      +0       0       0       0       0       0
  7608 ;;      Totals:         8      44       0       0       0       0       0       0       0       0       0       0       
      +0       0       0       0       0       0       0       0       0       0       0       0       0       0       0       
      +0       0       0       0       0       0
  7609 ;;Total ram usage:       52 bytes
  7610 ;; Hardware stack levels used: 1
  7611 ;; Hardware stack levels required when called: 4
  7612 ;; This function calls:
  7613 ;;		___fladd
  7614 ;;		___fldiv
  7615 ;;		___fleq
  7616 ;;		___flge
  7617 ;;		___flmul
  7618 ;;		___flneg
  7619 ;;		___flsub
  7620 ;;		___fltol
  7621 ;;		___fpclassifyf
  7622 ;;		_floorf
  7623 ;;		_labs
  7624 ;;		_memcpy
  7625 ;;		_pad
  7626 ;;		_strcpy
  7627 ;; This function is called by:
  7628 ;;		_vfpfcnvrt
  7629 ;; This function uses a non-reentrant model
  7630 ;;
  7631                           
  7632                           	psect	text6
  7633   004AAA                     __ptext6:
  7634                           	callstack 0
  7635   004AAA                     _efgtoa:
  7636                           	callstack 23
  7637   004AAA                     
  7638                           ;C:\Program Files\Microchip\xc8\v3.00\pic\sources\c99\common\doprnt.c: 587: static void 
      +                          efgtoa(FILE *fp, long double f, char c);C:\Program Files\Microchip\xc8\v3.00\pic\sources
      +                          \c99\common\doprnt.c: 588: {;C:\Program Files\Microchip\xc8\v3.00\pic\sources\c99\common
      +                          \doprnt.c: 589:     char mode, nmode, pp, sign, esign;;C:\Program Files\Microchip\xc8\v3
      +                          .00\pic\sources\c99\common\doprnt.c: 590:     int d, e, i, m, n, ne, p, t, w;;C:\Program
      +                           Files\Microchip\xc8\v3.00\pic\sources\c99\common\doprnt.c: 591:     long double h, l;
  7639   004AAA  0100               	movlb	0	; () banked
  7640   004AAC  6B81               	clrf	efgtoa@sign& (0+255),b
  7641                           
  7642                           ;C:\Program Files\Microchip\xc8\v3.00\pic\sources\c99\common\doprnt.c: 596:     g.f = f;
  7643   004AAE  C035  F084         	movff	efgtoa@f,efgtoa@g
  7644   004AB2  C036  F085         	movff	efgtoa@f+1,efgtoa@g+1
  7645   004AB6  C037  F086         	movff	efgtoa@f+2,efgtoa@g+2
  7646   004ABA  C038  F087         	movff	efgtoa@f+3,efgtoa@g+3
  7647   004ABE                     
  7648                           ; BSR set to: 0
  7649                           ;C:\Program Files\Microchip\xc8\v3.00\pic\sources\c99\common\doprnt.c: 597:     if (g.f 
      +                          < 0.0) {
  7650   004ABE  BF87               	btfsc	(efgtoa@g+3)& (0+255),7,b
  7651   004AC0  EF66  F025         	goto	u4230
  7652   004AC4  EF64  F025         	goto	u4231
  7653   004AC8                     u4231:
  7654   004AC8  EF7A  F025         	goto	l4219
  7655   004ACC                     u4230:
  7656   004ACC                     
  7657                           ; BSR set to: 0
  7658                           ;C:\Program Files\Microchip\xc8\v3.00\pic\sources\c99\common\doprnt.c: 598:         sign
      +                           = 1;
  7659   004ACC  0E01               	movlw	1
  7660   004ACE  6F81               	movwf	efgtoa@sign& (0+255),b
  7661   004AD0                     
  7662                           ; BSR set to: 0
  7663                           ;C:\Program Files\Microchip\xc8\v3.00\pic\sources\c99\common\doprnt.c: 599:         g.f 
      +                          = -g.f;
  7664   004AD0  C084  F001         	movff	efgtoa@g,___flneg@f1
  7665   004AD4  C085  F002         	movff	efgtoa@g+1,___flneg@f1+1
  7666   004AD8  C086  F003         	movff	efgtoa@g+2,___flneg@f1+2
  7667   004ADC  C087  F004         	movff	efgtoa@g+3,___flneg@f1+3
  7668   004AE0  EC1A  F03A         	call	___flneg	;wreg free
  7669   004AE4  C001  F084         	movff	?___flneg,efgtoa@g
  7670   004AE8  C002  F085         	movff	?___flneg+1,efgtoa@g+1
  7671   004AEC  C003  F086         	movff	?___flneg+2,efgtoa@g+2
  7672   004AF0  C004  F087         	movff	?___flneg+3,efgtoa@g+3
  7673   004AF4                     l4219:
  7674                           
  7675                           ;C:\Program Files\Microchip\xc8\v3.00\pic\sources\c99\common\doprnt.c: 603:     n = 0;
  7676   004AF4  0E00               	movlw	0
  7677   004AF6  0100               	movlb	0	; () banked
  7678   004AF8  6F83               	movwf	(efgtoa@n+1)& (0+255),b
  7679   004AFA  0E00               	movlw	0
  7680   004AFC  6F82               	movwf	efgtoa@n& (0+255),b
  7681   004AFE                     
  7682                           ; BSR set to: 0
  7683                           ;C:\Program Files\Microchip\xc8\v3.00\pic\sources\c99\common\doprnt.c: 604:     w = widt
      +                          h;
  7684   004AFE  C0A4  F071         	movff	_width,efgtoa@w
  7685   004B02  C0A5  F072         	movff	_width+1,efgtoa@w+1
  7686   004B06                     
  7687                           ; BSR set to: 0
  7688                           ;C:\Program Files\Microchip\xc8\v3.00\pic\sources\c99\common\doprnt.c: 605:     if (sign
  7689   004B06  5181               	movf	efgtoa@sign& (0+255),w,b
  7690   004B08  B4D8               	btfsc	status,2,c
  7691   004B0A  EF89  F025         	goto	u4241
  7692   004B0E  EF8B  F025         	goto	u4240
  7693   004B12                     u4241:
  7694   004B12  EF9F  F025         	goto	l4233
  7695   004B16                     u4240:
  7696   004B16                     
  7697                           ; BSR set to: 0
  7698                           ;C:\Program Files\Microchip\xc8\v3.00\pic\sources\c99\common\doprnt.c: 609:    ) {;C:\Pr
      +                          ogram Files\Microchip\xc8\v3.00\pic\sources\c99\common\doprnt.c: 610:   sign = sign ? '-
      +                          ' : '+';
  7699   004B16  5181               	movf	efgtoa@sign& (0+255),w,b
  7700   004B18  A4D8               	btfss	status,2,c
  7701   004B1A  EF91  F025         	goto	u4251
  7702   004B1E  EF93  F025         	goto	u4250
  7703   004B22                     u4251:
  7704   004B22  EF99  F025         	goto	l4229
  7705   004B26                     u4250:
  7706   004B26                     
  7707                           ; BSR set to: 0
  7708   004B26  0E00               	movlw	0
  7709   004B28  6F67               	movwf	(_efgtoa$1056+1)& (0+255),b
  7710   004B2A  0E2B               	movlw	43
  7711   004B2C  6F66               	movwf	_efgtoa$1056& (0+255),b
  7712   004B2E  EF9D  F025         	goto	l4231
  7713   004B32                     l4229:
  7714                           
  7715                           ; BSR set to: 0
  7716   004B32  0E00               	movlw	0
  7717   004B34  6F67               	movwf	(_efgtoa$1056+1)& (0+255),b
  7718   004B36  0E2D               	movlw	45
  7719   004B38  6F66               	movwf	_efgtoa$1056& (0+255),b
  7720   004B3A                     l4231:
  7721                           
  7722                           ; BSR set to: 0
  7723   004B3A  C066  F081         	movff	_efgtoa$1056,efgtoa@sign
  7724   004B3E                     l4233:
  7725                           
  7726                           ; BSR set to: 0
  7727                           ;C:\Program Files\Microchip\xc8\v3.00\pic\sources\c99\common\doprnt.c: 619:     if (( __
      +                          fpclassifyf(g.f) == 1 )) {
  7728   004B3E  C084  F001         	movff	efgtoa@g,___fpclassifyf@x
  7729   004B42  C085  F002         	movff	efgtoa@g+1,___fpclassifyf@x+1
  7730   004B46  C086  F003         	movff	efgtoa@g+2,___fpclassifyf@x+2
  7731   004B4A  C087  F004         	movff	efgtoa@g+3,___fpclassifyf@x+3
  7732   004B4E  EC98  F035         	call	___fpclassifyf	;wreg free
  7733   004B52  0401               	decf	?___fpclassifyf^0,w,c
  7734   004B54  1002               	iorwf	(?___fpclassifyf+1)^0,w,c
  7735   004B56  A4D8               	btfss	status,2,c
  7736   004B58  EFB0  F025         	goto	u4261
  7737   004B5C  EFB2  F025         	goto	u4260
  7738   004B60                     u4261:
  7739   004B60  EFE1  F025         	goto	l4251
  7740   004B64                     u4260:
  7741   004B64                     
  7742                           ;C:\Program Files\Microchip\xc8\v3.00\pic\sources\c99\common\doprnt.c: 620:   if (sign) 
      +                          {
  7743   004B64  0100               	movlb	0	; () banked
  7744   004B66  5181               	movf	efgtoa@sign& (0+255),w,b
  7745   004B68  B4D8               	btfsc	status,2,c
  7746   004B6A  EFB9  F025         	goto	u4271
  7747   004B6E  EFBB  F025         	goto	u4270
  7748   004B72                     u4271:
  7749   004B72  EFC4  F025         	goto	l4243
  7750   004B76                     u4270:
  7751   004B76                     
  7752                           ; BSR set to: 0
  7753                           ;C:\Program Files\Microchip\xc8\v3.00\pic\sources\c99\common\doprnt.c: 621:    dbuf[0] =
      +                           sign;
  7754   004B76  C081  F100         	movff	efgtoa@sign,_dbuf
  7755   004B7A                     
  7756                           ; BSR set to: 0
  7757                           ;C:\Program Files\Microchip\xc8\v3.00\pic\sources\c99\common\doprnt.c: 622:    w--;
  7758   004B7A  0771               	decf	efgtoa@w& (0+255),f,b
  7759   004B7C  A0D8               	btfss	status,0,c
  7760   004B7E  0772               	decf	(efgtoa@w+1)& (0+255),f,b
  7761   004B80                     
  7762                           ; BSR set to: 0
  7763                           ;C:\Program Files\Microchip\xc8\v3.00\pic\sources\c99\common\doprnt.c: 623:    n = 1;
  7764   004B80  0E00               	movlw	0
  7765   004B82  6F83               	movwf	(efgtoa@n+1)& (0+255),b
  7766   004B84  0E01               	movlw	1
  7767   004B86  6F82               	movwf	efgtoa@n& (0+255),b
  7768   004B88                     l4243:
  7769                           
  7770                           ; BSR set to: 0
  7771                           ;C:\Program Files\Microchip\xc8\v3.00\pic\sources\c99\common\doprnt.c: 631:   {;C:\Progr
      +                          am Files\Microchip\xc8\v3.00\pic\sources\c99\common\doprnt.c: 632:             strcpy(&d
      +                          buf[n], "inf");
  7772   004B88  0E00               	movlw	low _dbuf
  7773   004B8A  2582               	addwf	efgtoa@n& (0+255),w,b
  7774   004B8C  6E01               	movwf	strcpy@dest^0,c
  7775   004B8E  0E01               	movlw	high _dbuf
  7776   004B90  2183               	addwfc	(efgtoa@n+1)& (0+255),w,b
  7777   004B92  6E02               	movwf	(strcpy@dest+1)^0,c
  7778   004B94  0EB3               	movlw	low STR_146
  7779   004B96  6E03               	movwf	strcpy@src^0,c
  7780   004B98  EC72  F039         	call	_strcpy	;wreg free
  7781   004B9C                     l4245:
  7782                           
  7783                           ;C:\Program Files\Microchip\xc8\v3.00\pic\sources\c99\common\doprnt.c: 633:         };C:
      +                          \Program Files\Microchip\xc8\v3.00\pic\sources\c99\common\doprnt.c: 634:         w -= ((
      +                          sizeof("inf")/sizeof("inf"[0]))-1);
  7784   004B9C  0100               	movlb	0	; () banked
  7785   004B9E  0EFD               	movlw	253
  7786   004BA0  2771               	addwf	efgtoa@w& (0+255),f,b
  7787   004BA2  0EFF               	movlw	255
  7788   004BA4  2372               	addwfc	(efgtoa@w+1)& (0+255),f,b
  7789   004BA6                     
  7790                           ; BSR set to: 0
  7791                           ;C:\Program Files\Microchip\xc8\v3.00\pic\sources\c99\common\doprnt.c: 635:         retu
      +                          rn (void) pad(fp, &dbuf[0], w);
  7792   004BA6  C034  F00F         	movff	efgtoa@fp,pad@fp
  7793   004BAA  0E00               	movlw	low _dbuf
  7794   004BAC  6E10               	movwf	pad@buf^0,c
  7795   004BAE  0E01               	movlw	high _dbuf
  7796   004BB0  6E11               	movwf	(pad@buf+1)^0,c
  7797   004BB2  C071  F012         	movff	efgtoa@w,pad@p
  7798   004BB6  C072  F013         	movff	efgtoa@w+1,pad@p+1
  7799   004BBA  ECD6  F037         	call	_pad	;wreg free
  7800   004BBE  EF47  F02A         	goto	l969
  7801   004BC2                     l4251:
  7802                           
  7803                           ;C:\Program Files\Microchip\xc8\v3.00\pic\sources\c99\common\doprnt.c: 637:     if (( __
      +                          fpclassifyf(g.f) == 0 )) {
  7804   004BC2  C084  F001         	movff	efgtoa@g,___fpclassifyf@x
  7805   004BC6  C085  F002         	movff	efgtoa@g+1,___fpclassifyf@x+1
  7806   004BCA  C086  F003         	movff	efgtoa@g+2,___fpclassifyf@x+2
  7807   004BCE  C087  F004         	movff	efgtoa@g+3,___fpclassifyf@x+3
  7808   004BD2  EC98  F035         	call	___fpclassifyf	;wreg free
  7809   004BD6  5001               	movf	?___fpclassifyf^0,w,c
  7810   004BD8  1002               	iorwf	(?___fpclassifyf+1)^0,w,c
  7811   004BDA  A4D8               	btfss	status,2,c
  7812   004BDC  EFF2  F025         	goto	u4281
  7813   004BE0  EFF4  F025         	goto	u4280
  7814   004BE4                     u4281:
  7815   004BE4  EF12  F026         	goto	l4269
  7816   004BE8                     u4280:
  7817   004BE8                     
  7818                           ;C:\Program Files\Microchip\xc8\v3.00\pic\sources\c99\common\doprnt.c: 638:   if (sign) 
      +                          {
  7819   004BE8  0100               	movlb	0	; () banked
  7820   004BEA  5181               	movf	efgtoa@sign& (0+255),w,b
  7821   004BEC  B4D8               	btfsc	status,2,c
  7822   004BEE  EFFB  F025         	goto	u4291
  7823   004BF2  EFFD  F025         	goto	u4290
  7824   004BF6                     u4291:
  7825   004BF6  EF06  F026         	goto	l4261
  7826   004BFA                     u4290:
  7827   004BFA                     
  7828                           ; BSR set to: 0
  7829                           ;C:\Program Files\Microchip\xc8\v3.00\pic\sources\c99\common\doprnt.c: 639:    dbuf[0] =
      +                           sign;
  7830   004BFA  C081  F100         	movff	efgtoa@sign,_dbuf
  7831   004BFE                     
  7832                           ; BSR set to: 0
  7833                           ;C:\Program Files\Microchip\xc8\v3.00\pic\sources\c99\common\doprnt.c: 640:    w--;
  7834   004BFE  0771               	decf	efgtoa@w& (0+255),f,b
  7835   004C00  A0D8               	btfss	status,0,c
  7836   004C02  0772               	decf	(efgtoa@w+1)& (0+255),f,b
  7837   004C04                     
  7838                           ; BSR set to: 0
  7839                           ;C:\Program Files\Microchip\xc8\v3.00\pic\sources\c99\common\doprnt.c: 641:    n = 1;
  7840   004C04  0E00               	movlw	0
  7841   004C06  6F83               	movwf	(efgtoa@n+1)& (0+255),b
  7842   004C08  0E01               	movlw	1
  7843   004C0A  6F82               	movwf	efgtoa@n& (0+255),b
  7844   004C0C                     l4261:
  7845                           
  7846                           ; BSR set to: 0
  7847                           ;C:\Program Files\Microchip\xc8\v3.00\pic\sources\c99\common\doprnt.c: 649:   {;C:\Progr
      +                          am Files\Microchip\xc8\v3.00\pic\sources\c99\common\doprnt.c: 650:             strcpy(&d
      +                          buf[n], "nan");
  7848   004C0C  0E00               	movlw	low _dbuf
  7849   004C0E  2582               	addwf	efgtoa@n& (0+255),w,b
  7850   004C10  6E01               	movwf	strcpy@dest^0,c
  7851   004C12  0E01               	movlw	high _dbuf
  7852   004C14  2183               	addwfc	(efgtoa@n+1)& (0+255),w,b
  7853   004C16  6E02               	movwf	(strcpy@dest+1)^0,c
  7854   004C18  0EB7               	movlw	low STR_149
  7855   004C1A  6E03               	movwf	strcpy@src^0,c
  7856   004C1C  EC72  F039         	call	_strcpy	;wreg free
  7857   004C20  EFCE  F025         	goto	l4245
  7858   004C24                     l4269:
  7859                           
  7860                           ;C:\Program Files\Microchip\xc8\v3.00\pic\sources\c99\common\doprnt.c: 657:     u.f = 1.
      +                          0;
  7861   004C24  0E00               	movlw	0
  7862   004C26  0100               	movlb	0	; () banked
  7863   004C28  6F88               	movwf	efgtoa@u& (0+255),b
  7864   004C2A  0E00               	movlw	0
  7865   004C2C  6F89               	movwf	(efgtoa@u+1)& (0+255),b
  7866   004C2E  0E80               	movlw	128
  7867   004C30  6F8A               	movwf	(efgtoa@u+2)& (0+255),b
  7868   004C32  0E3F               	movlw	63
  7869   004C34  6F8B               	movwf	(efgtoa@u+3)& (0+255),b
  7870                           
  7871                           ;C:\Program Files\Microchip\xc8\v3.00\pic\sources\c99\common\doprnt.c: 658:     e = 0;
  7872   004C36  0E00               	movlw	0
  7873   004C38  6F70               	movwf	(efgtoa@e+1)& (0+255),b
  7874   004C3A  0E00               	movlw	0
  7875   004C3C  6F6F               	movwf	efgtoa@e& (0+255),b
  7876   004C3E                     
  7877                           ; BSR set to: 0
  7878                           ;C:\Program Files\Microchip\xc8\v3.00\pic\sources\c99\common\doprnt.c: 659:  if (!(g.f =
      +                          = 0.0)) {
  7879   004C3E  C084  F00F         	movff	efgtoa@g,___fleq@ff1
  7880   004C42  C085  F010         	movff	efgtoa@g+1,___fleq@ff1+1
  7881   004C46  C086  F011         	movff	efgtoa@g+2,___fleq@ff1+2
  7882   004C4A  C087  F012         	movff	efgtoa@g+3,___fleq@ff1+3
  7883   004C4E  0E00               	movlw	0
  7884   004C50  6E13               	movwf	___fleq@ff2^0,c
  7885   004C52  0E00               	movlw	0
  7886   004C54  6E14               	movwf	(___fleq@ff2+1)^0,c
  7887   004C56  0E00               	movlw	0
  7888   004C58  6E15               	movwf	(___fleq@ff2+2)^0,c
  7889   004C5A  0E00               	movlw	0
  7890   004C5C  6E16               	movwf	(___fleq@ff2+3)^0,c
  7891   004C5E  EC81  F037         	call	___fleq	;wreg free
  7892   004C62  B0D8               	btfsc	status,0,c
  7893   004C64  EF36  F026         	goto	u4301
  7894   004C68  EF38  F026         	goto	u4300
  7895   004C6C                     u4301:
  7896   004C6C  EF17  F027         	goto	l972
  7897   004C70                     u4300:
  7898   004C70  EF45  F026         	goto	l4277
  7899   004C74                     l974:
  7900                           
  7901                           ;C:\Program Files\Microchip\xc8\v3.00\pic\sources\c99\common\doprnt.c: 661:    u = ou;
  7902   004C74  C073  F088         	movff	efgtoa@ou,efgtoa@u
  7903   004C78  C074  F089         	movff	efgtoa@ou+1,efgtoa@u+1
  7904   004C7C  C075  F08A         	movff	efgtoa@ou+2,efgtoa@u+2
  7905   004C80  C076  F08B         	movff	efgtoa@ou+3,efgtoa@u+3
  7906   004C84                     
  7907                           ;C:\Program Files\Microchip\xc8\v3.00\pic\sources\c99\common\doprnt.c: 662:    ++e;
  7908   004C84  0100               	movlb	0	; () banked
  7909   004C86  4B6F               	infsnz	efgtoa@e& (0+255),f,b
  7910   004C88  2B70               	incf	(efgtoa@e+1)& (0+255),f,b
  7911   004C8A                     l4277:
  7912                           
  7913                           ;C:\Program Files\Microchip\xc8\v3.00\pic\sources\c99\common\doprnt.c: 660:   while ((la
      +                          bs((g).u-((ou.f = u.f*10.0,ou)).u) <= 1) || g.f > ou.f) {
  7914   004C8A  C088  F00F         	movff	efgtoa@u,___flmul@b
  7915   004C8E  C089  F010         	movff	efgtoa@u+1,___flmul@b+1
  7916   004C92  C08A  F011         	movff	efgtoa@u+2,___flmul@b+2
  7917   004C96  C08B  F012         	movff	efgtoa@u+3,___flmul@b+3
  7918   004C9A  0E00               	movlw	0
  7919   004C9C  6E13               	movwf	___flmul@a^0,c
  7920   004C9E  0E00               	movlw	0
  7921   004CA0  6E14               	movwf	(___flmul@a+1)^0,c
  7922   004CA2  0E20               	movlw	32
  7923   004CA4  6E15               	movwf	(___flmul@a+2)^0,c
  7924   004CA6  0E41               	movlw	65
  7925   004CA8  6E16               	movwf	(___flmul@a+3)^0,c
  7926   004CAA  ECA3  F02C         	call	___flmul	;wreg free
  7927   004CAE  C00F  F073         	movff	?___flmul,efgtoa@ou
  7928   004CB2  C010  F074         	movff	?___flmul+1,efgtoa@ou+1
  7929   004CB6  C011  F075         	movff	?___flmul+2,efgtoa@ou+2
  7930   004CBA  C012  F076         	movff	?___flmul+3,efgtoa@ou+3
  7931   004CBE  0100               	movlb	0	; () banked
  7932   004CC0  5173               	movf	efgtoa@ou& (0+255),w,b
  7933   004CC2  5D84               	subwf	efgtoa@g& (0+255),w,b
  7934   004CC4  6E01               	movwf	labs@a^0,c
  7935   004CC6  5174               	movf	(efgtoa@ou+1)& (0+255),w,b
  7936   004CC8  5985               	subwfb	(efgtoa@g+1)& (0+255),w,b
  7937   004CCA  6E02               	movwf	(labs@a+1)^0,c
  7938   004CCC  5175               	movf	(efgtoa@ou+2)& (0+255),w,b
  7939   004CCE  5986               	subwfb	(efgtoa@g+2)& (0+255),w,b
  7940   004CD0  6E03               	movwf	(labs@a+2)^0,c
  7941   004CD2  5176               	movf	(efgtoa@ou+3)& (0+255),w,b
  7942   004CD4  5987               	subwfb	(efgtoa@g+3)& (0+255),w,b
  7943   004CD6  6E04               	movwf	(labs@a+3)^0,c
  7944   004CD8  EC22  F039         	call	_labs	;wreg free
  7945   004CDC  BE04               	btfsc	(?_labs+3)^0,7,c
  7946   004CDE  EF7C  F026         	goto	u4311
  7947   004CE2  5004               	movf	(?_labs+3)^0,w,c
  7948   004CE4  1003               	iorwf	(?_labs+2)^0,w,c
  7949   004CE6  1002               	iorwf	(?_labs+1)^0,w,c
  7950   004CE8  E109               	bnz	u4310
  7951   004CEA  0E02               	movlw	2
  7952   004CEC  5C01               	subwf	?_labs^0,w,c
  7953   004CEE  A0D8               	btfss	status,0,c
  7954   004CF0  EF7C  F026         	goto	u4311
  7955   004CF4  EF7E  F026         	goto	u4310
  7956   004CF8                     u4311:
  7957   004CF8  EF3A  F026         	goto	l974
  7958   004CFC                     u4310:
  7959   004CFC  C073  F028         	movff	efgtoa@ou,___flge@ff1
  7960   004D00  C074  F029         	movff	efgtoa@ou+1,___flge@ff1+1
  7961   004D04  C075  F02A         	movff	efgtoa@ou+2,___flge@ff1+2
  7962   004D08  C076  F02B         	movff	efgtoa@ou+3,___flge@ff1+3
  7963   004D0C  C084  F02C         	movff	efgtoa@g,___flge@ff2
  7964   004D10  C085  F02D         	movff	efgtoa@g+1,___flge@ff2+1
  7965   004D14  C086  F02E         	movff	efgtoa@g+2,___flge@ff2+2
  7966   004D18  C087  F02F         	movff	efgtoa@g+3,___flge@ff2+3
  7967   004D1C  EC16  F035         	call	___flge	;wreg free
  7968   004D20  A0D8               	btfss	status,0,c
  7969   004D22  EF95  F026         	goto	u4321
  7970   004D26  EF97  F026         	goto	u4320
  7971   004D2A                     u4321:
  7972   004D2A  EF3A  F026         	goto	l974
  7973   004D2E                     u4320:
  7974   004D2E                     
  7975                           ;C:\Program Files\Microchip\xc8\v3.00\pic\sources\c99\common\doprnt.c: 664:   if ((labs(
      +                          (g).u-(u).u) <= 1)) {
  7976   004D2E  0100               	movlb	0	; () banked
  7977   004D30  5188               	movf	efgtoa@u& (0+255),w,b
  7978   004D32  5D84               	subwf	efgtoa@g& (0+255),w,b
  7979   004D34  6E01               	movwf	labs@a^0,c
  7980   004D36  5189               	movf	(efgtoa@u+1)& (0+255),w,b
  7981   004D38  5985               	subwfb	(efgtoa@g+1)& (0+255),w,b
  7982   004D3A  6E02               	movwf	(labs@a+1)^0,c
  7983   004D3C  518A               	movf	(efgtoa@u+2)& (0+255),w,b
  7984   004D3E  5986               	subwfb	(efgtoa@g+2)& (0+255),w,b
  7985   004D40  6E03               	movwf	(labs@a+2)^0,c
  7986   004D42  518B               	movf	(efgtoa@u+3)& (0+255),w,b
  7987   004D44  5987               	subwfb	(efgtoa@g+3)& (0+255),w,b
  7988   004D46  6E04               	movwf	(labs@a+3)^0,c
  7989   004D48  EC22  F039         	call	_labs	;wreg free
  7990   004D4C  BE04               	btfsc	(?_labs+3)^0,7,c
  7991   004D4E  EFB6  F026         	goto	u4330
  7992   004D52  5004               	movf	(?_labs+3)^0,w,c
  7993   004D54  1003               	iorwf	(?_labs+2)^0,w,c
  7994   004D56  1002               	iorwf	(?_labs+1)^0,w,c
  7995   004D58  E107               	bnz	u4331
  7996   004D5A  0E02               	movlw	2
  7997   004D5C  5C01               	subwf	?_labs^0,w,c
  7998   004D5E  B0D8               	btfsc	status,0,c
  7999   004D60  EFB4  F026         	goto	u4331
  8000   004D64  EFB6  F026         	goto	u4330
  8001   004D68                     u4331:
  8002   004D68  EFFE  F026         	goto	l4295
  8003   004D6C                     u4330:
  8004   004D6C                     l4285:
  8005                           
  8006                           ;C:\Program Files\Microchip\xc8\v3.00\pic\sources\c99\common\doprnt.c: 665:    g = u;
  8007   004D6C  C088  F084         	movff	efgtoa@u,efgtoa@g
  8008   004D70  C089  F085         	movff	efgtoa@u+1,efgtoa@g+1
  8009   004D74  C08A  F086         	movff	efgtoa@u+2,efgtoa@g+2
  8010   004D78  C08B  F087         	movff	efgtoa@u+3,efgtoa@g+3
  8011                           
  8012                           ;C:\Program Files\Microchip\xc8\v3.00\pic\sources\c99\common\doprnt.c: 666:   }
  8013   004D7C  EF17  F027         	goto	l972
  8014   004D80                     l4287:
  8015                           
  8016                           ;C:\Program Files\Microchip\xc8\v3.00\pic\sources\c99\common\doprnt.c: 669:     u.f = u.
      +                          f/10.0;
  8017   004D80  C088  F001         	movff	efgtoa@u,___fldiv@b
  8018   004D84  C089  F002         	movff	efgtoa@u+1,___fldiv@b+1
  8019   004D88  C08A  F003         	movff	efgtoa@u+2,___fldiv@b+2
  8020   004D8C  C08B  F004         	movff	efgtoa@u+3,___fldiv@b+3
  8021   004D90  0E00               	movlw	0
  8022   004D92  6E05               	movwf	___fldiv@a^0,c
  8023   004D94  0E00               	movlw	0
  8024   004D96  6E06               	movwf	(___fldiv@a+1)^0,c
  8025   004D98  0E20               	movlw	32
  8026   004D9A  6E07               	movwf	(___fldiv@a+2)^0,c
  8027   004D9C  0E41               	movlw	65
  8028   004D9E  6E08               	movwf	(___fldiv@a+3)^0,c
  8029   004DA0  ECC8  F02E         	call	___fldiv	;wreg free
  8030   004DA4  C001  F088         	movff	?___fldiv,efgtoa@u
  8031   004DA8  C002  F089         	movff	?___fldiv+1,efgtoa@u+1
  8032   004DAC  C003  F08A         	movff	?___fldiv+2,efgtoa@u+2
  8033   004DB0  C004  F08B         	movff	?___fldiv+3,efgtoa@u+3
  8034   004DB4                     
  8035                           ;C:\Program Files\Microchip\xc8\v3.00\pic\sources\c99\common\doprnt.c: 670:     --e;
  8036   004DB4  0100               	movlb	0	; () banked
  8037   004DB6  076F               	decf	efgtoa@e& (0+255),f,b
  8038   004DB8  A0D8               	btfss	status,0,c
  8039   004DBA  0770               	decf	(efgtoa@e+1)& (0+255),f,b
  8040   004DBC                     
  8041                           ; BSR set to: 0
  8042                           ;C:\Program Files\Microchip\xc8\v3.00\pic\sources\c99\common\doprnt.c: 671:     if ((lab
      +                          s((g).u-(u).u) <= 1)) {
  8043   004DBC  5188               	movf	efgtoa@u& (0+255),w,b
  8044   004DBE  5D84               	subwf	efgtoa@g& (0+255),w,b
  8045   004DC0  6E01               	movwf	labs@a^0,c
  8046   004DC2  5189               	movf	(efgtoa@u+1)& (0+255),w,b
  8047   004DC4  5985               	subwfb	(efgtoa@g+1)& (0+255),w,b
  8048   004DC6  6E02               	movwf	(labs@a+1)^0,c
  8049   004DC8  518A               	movf	(efgtoa@u+2)& (0+255),w,b
  8050   004DCA  5986               	subwfb	(efgtoa@g+2)& (0+255),w,b
  8051   004DCC  6E03               	movwf	(labs@a+2)^0,c
  8052   004DCE  518B               	movf	(efgtoa@u+3)& (0+255),w,b
  8053   004DD0  5987               	subwfb	(efgtoa@g+3)& (0+255),w,b
  8054   004DD2  6E04               	movwf	(labs@a+3)^0,c
  8055   004DD4  EC22  F039         	call	_labs	;wreg free
  8056   004DD8  BE04               	btfsc	(?_labs+3)^0,7,c
  8057   004DDA  EFFC  F026         	goto	u4340
  8058   004DDE  5004               	movf	(?_labs+3)^0,w,c
  8059   004DE0  1003               	iorwf	(?_labs+2)^0,w,c
  8060   004DE2  1002               	iorwf	(?_labs+1)^0,w,c
  8061   004DE4  E107               	bnz	u4341
  8062   004DE6  0E02               	movlw	2
  8063   004DE8  5C01               	subwf	?_labs^0,w,c
  8064   004DEA  B0D8               	btfsc	status,0,c
  8065   004DEC  EFFA  F026         	goto	u4341
  8066   004DF0  EFFC  F026         	goto	u4340
  8067   004DF4                     u4341:
  8068   004DF4  EFFE  F026         	goto	l4295
  8069   004DF8                     u4340:
  8070   004DF8  EFB6  F026         	goto	l4285
  8071   004DFC                     l4295:
  8072                           
  8073                           ;C:\Program Files\Microchip\xc8\v3.00\pic\sources\c99\common\doprnt.c: 668:    while (g.
      +                          f < u.f) {
  8074   004DFC  C084  F028         	movff	efgtoa@g,___flge@ff1
  8075   004E00  C085  F029         	movff	efgtoa@g+1,___flge@ff1+1
  8076   004E04  C086  F02A         	movff	efgtoa@g+2,___flge@ff1+2
  8077   004E08  C087  F02B         	movff	efgtoa@g+3,___flge@ff1+3
  8078   004E0C  C088  F02C         	movff	efgtoa@u,___flge@ff2
  8079   004E10  C089  F02D         	movff	efgtoa@u+1,___flge@ff2+1
  8080   004E14  C08A  F02E         	movff	efgtoa@u+2,___flge@ff2+2
  8081   004E18  C08B  F02F         	movff	efgtoa@u+3,___flge@ff2+3
  8082   004E1C  EC16  F035         	call	___flge	;wreg free
  8083   004E20  A0D8               	btfss	status,0,c
  8084   004E22  EF15  F027         	goto	u4351
  8085   004E26  EF17  F027         	goto	u4350
  8086   004E2A                     u4351:
  8087   004E2A  EFC0  F026         	goto	l4287
  8088   004E2E                     u4350:
  8089   004E2E                     l972:
  8090                           
  8091                           ;C:\Program Files\Microchip\xc8\v3.00\pic\sources\c99\common\doprnt.c: 683:  mode = c;
  8092   004E2E  C039  F069         	movff	efgtoa@c,efgtoa@mode
  8093                           
  8094                           ;C:\Program Files\Microchip\xc8\v3.00\pic\sources\c99\common\doprnt.c: 685:     nmode = 
      +                          mode;
  8095   004E32  C069  F06A         	movff	efgtoa@mode,efgtoa@nmode
  8096   004E36                     
  8097                           ;C:\Program Files\Microchip\xc8\v3.00\pic\sources\c99\common\doprnt.c: 695:  {;C:\Progra
      +                          m Files\Microchip\xc8\v3.00\pic\sources\c99\common\doprnt.c: 696:         p = (prec < 0)
      +                           ? 6 : prec;
  8098   004E36  0100               	movlb	0	; () banked
  8099   004E38  BFA7               	btfsc	(_prec+1)& (0+255),7,b
  8100   004E3A  EF21  F027         	goto	u4361
  8101   004E3E  EF23  F027         	goto	u4360
  8102   004E42                     u4361:
  8103   004E42  EF29  F027         	goto	l4301
  8104   004E46                     u4360:
  8105   004E46                     
  8106                           ; BSR set to: 0
  8107   004E46  C0A6  F062         	movff	_prec,efgtoa@p
  8108   004E4A  C0A7  F063         	movff	_prec+1,efgtoa@p+1
  8109   004E4E  EF2D  F027         	goto	l4303
  8110   004E52                     l4301:
  8111                           
  8112                           ; BSR set to: 0
  8113   004E52  0E00               	movlw	0
  8114   004E54  6F63               	movwf	(efgtoa@p+1)& (0+255),b
  8115   004E56  0E06               	movlw	6
  8116   004E58  6F62               	movwf	efgtoa@p& (0+255),b
  8117   004E5A                     l4303:
  8118                           
  8119                           ; BSR set to: 0
  8120                           ;C:\Program Files\Microchip\xc8\v3.00\pic\sources\c99\common\doprnt.c: 697:     };C:\Pro
      +                          gram Files\Microchip\xc8\v3.00\pic\sources\c99\common\doprnt.c: 711:     m = p;
  8121   004E5A  C062  F06D         	movff	efgtoa@p,efgtoa@m
  8122   004E5E  C063  F06E         	movff	efgtoa@p+1,efgtoa@m+1
  8123   004E62                     
  8124                           ; BSR set to: 0
  8125                           ;C:\Program Files\Microchip\xc8\v3.00\pic\sources\c99\common\doprnt.c: 715:  {;C:\Progra
      +                          m Files\Microchip\xc8\v3.00\pic\sources\c99\common\doprnt.c: 716:         ++m;
  8126   004E62  4B6D               	infsnz	efgtoa@m& (0+255),f,b
  8127   004E64  2B6E               	incf	(efgtoa@m+1)& (0+255),f,b
  8128   004E66                     
  8129                           ; BSR set to: 0
  8130                           ;C:\Program Files\Microchip\xc8\v3.00\pic\sources\c99\common\doprnt.c: 717:     };C:\Pro
      +                          gram Files\Microchip\xc8\v3.00\pic\sources\c99\common\doprnt.c: 721:     if (nmode == 'f
      +                          ') {
  8131   004E66  0E66               	movlw	102
  8132   004E68  196A               	xorwf	efgtoa@nmode& (0+255),w,b
  8133   004E6A  A4D8               	btfss	status,2,c
  8134   004E6C  EF3A  F027         	goto	u4371
  8135   004E70  EF3C  F027         	goto	u4370
  8136   004E74                     u4371:
  8137   004E74  EF5C  F027         	goto	l4317
  8138   004E78                     u4370:
  8139   004E78                     
  8140                           ; BSR set to: 0
  8141                           ;C:\Program Files\Microchip\xc8\v3.00\pic\sources\c99\common\doprnt.c: 722:         if (
      +                          e < 0) {
  8142   004E78  BF70               	btfsc	(efgtoa@e+1)& (0+255),7,b
  8143   004E7A  EF43  F027         	goto	u4380
  8144   004E7E  EF41  F027         	goto	u4381
  8145   004E82                     u4381:
  8146   004E82  EF4F  F027         	goto	l4313
  8147   004E86                     u4380:
  8148   004E86                     
  8149                           ; BSR set to: 0
  8150                           ;C:\Program Files\Microchip\xc8\v3.00\pic\sources\c99\common\doprnt.c: 723:             
      +                          u.f = 1.0;
  8151   004E86  0E00               	movlw	0
  8152   004E88  6F88               	movwf	efgtoa@u& (0+255),b
  8153   004E8A  0E00               	movlw	0
  8154   004E8C  6F89               	movwf	(efgtoa@u+1)& (0+255),b
  8155   004E8E  0E80               	movlw	128
  8156   004E90  6F8A               	movwf	(efgtoa@u+2)& (0+255),b
  8157   004E92  0E3F               	movlw	63
  8158   004E94  6F8B               	movwf	(efgtoa@u+3)& (0+255),b
  8159                           
  8160                           ;C:\Program Files\Microchip\xc8\v3.00\pic\sources\c99\common\doprnt.c: 724:             
      +                          e = 0;
  8161   004E96  0E00               	movlw	0
  8162   004E98  6F70               	movwf	(efgtoa@e+1)& (0+255),b
  8163   004E9A  0E00               	movlw	0
  8164   004E9C  6F6F               	movwf	efgtoa@e& (0+255),b
  8165   004E9E                     l4313:
  8166                           
  8167                           ; BSR set to: 0
  8168                           ;C:\Program Files\Microchip\xc8\v3.00\pic\sources\c99\common\doprnt.c: 726:         if (
      +                          !(mode == 'g')) {
  8169   004E9E  0E67               	movlw	103
  8170   004EA0  1969               	xorwf	efgtoa@mode& (0+255),w,b
  8171   004EA2  B4D8               	btfsc	status,2,c
  8172   004EA4  EF56  F027         	goto	u4391
  8173   004EA8  EF58  F027         	goto	u4390
  8174   004EAC                     u4391:
  8175   004EAC  EF5C  F027         	goto	l4317
  8176   004EB0                     u4390:
  8177   004EB0                     
  8178                           ; BSR set to: 0
  8179                           ;C:\Program Files\Microchip\xc8\v3.00\pic\sources\c99\common\doprnt.c: 727:             
      +                          m += e;
  8180   004EB0  516F               	movf	efgtoa@e& (0+255),w,b
  8181   004EB2  276D               	addwf	efgtoa@m& (0+255),f,b
  8182   004EB4  5170               	movf	(efgtoa@e+1)& (0+255),w,b
  8183   004EB6  236E               	addwfc	(efgtoa@m+1)& (0+255),f,b
  8184   004EB8                     l4317:
  8185                           
  8186                           ; BSR set to: 0
  8187                           ;C:\Program Files\Microchip\xc8\v3.00\pic\sources\c99\common\doprnt.c: 733:     i = 0;
  8188   004EB8  0E00               	movlw	0
  8189   004EBA  6F78               	movwf	(efgtoa@i+1)& (0+255),b
  8190   004EBC  0E00               	movlw	0
  8191   004EBE  6F77               	movwf	efgtoa@i& (0+255),b
  8192   004EC0                     
  8193                           ; BSR set to: 0
  8194                           ;C:\Program Files\Microchip\xc8\v3.00\pic\sources\c99\common\doprnt.c: 734:     h = g.f;
  8195   004EC0  C084  F079         	movff	efgtoa@g,efgtoa@h
  8196   004EC4  C085  F07A         	movff	efgtoa@g+1,efgtoa@h+1
  8197   004EC8  C086  F07B         	movff	efgtoa@g+2,efgtoa@h+2
  8198   004ECC  C087  F07C         	movff	efgtoa@g+3,efgtoa@h+3
  8199   004ED0                     
  8200                           ; BSR set to: 0
  8201                           ;C:\Program Files\Microchip\xc8\v3.00\pic\sources\c99\common\doprnt.c: 735:     ou = u;
  8202   004ED0  C088  F073         	movff	efgtoa@u,efgtoa@ou
  8203   004ED4  C089  F074         	movff	efgtoa@u+1,efgtoa@ou+1
  8204   004ED8  C08A  F075         	movff	efgtoa@u+2,efgtoa@ou+2
  8205   004EDC  C08B  F076         	movff	efgtoa@u+3,efgtoa@ou+3
  8206                           
  8207                           ;C:\Program Files\Microchip\xc8\v3.00\pic\sources\c99\common\doprnt.c: 736:     while (i
      +                           < m) {
  8208   004EE0  EFED  F027         	goto	l4331
  8209   004EE4                     l4323:
  8210                           
  8211                           ; BSR set to: 0
  8212                           ;C:\Program Files\Microchip\xc8\v3.00\pic\sources\c99\common\doprnt.c: 737:         l = 
      +                          floorf(h/u.f);
  8213   004EE4  C079  F001         	movff	efgtoa@h,___fldiv@b
  8214   004EE8  C07A  F002         	movff	efgtoa@h+1,___fldiv@b+1
  8215   004EEC  C07B  F003         	movff	efgtoa@h+2,___fldiv@b+2
  8216   004EF0  C07C  F004         	movff	efgtoa@h+3,___fldiv@b+3
  8217   004EF4  C088  F005         	movff	efgtoa@u,___fldiv@a
  8218   004EF8  C089  F006         	movff	efgtoa@u+1,___fldiv@a+1
  8219   004EFC  C08A  F007         	movff	efgtoa@u+2,___fldiv@a+2
  8220   004F00  C08B  F008         	movff	efgtoa@u+3,___fldiv@a+3
  8221   004F04  ECC8  F02E         	call	___fldiv	;wreg free
  8222   004F08  C001  F01A         	movff	?___fldiv,floorf@x
  8223   004F0C  C002  F01B         	movff	?___fldiv+1,floorf@x+1
  8224   004F10  C003  F01C         	movff	?___fldiv+2,floorf@x+2
  8225   004F14  C004  F01D         	movff	?___fldiv+3,floorf@x+3
  8226   004F18  ECF3  F031         	call	_floorf	;wreg free
  8227   004F1C  C01A  F07D         	movff	?_floorf,efgtoa@l
  8228   004F20  C01B  F07E         	movff	?_floorf+1,efgtoa@l+1
  8229   004F24  C01C  F07F         	movff	?_floorf+2,efgtoa@l+2
  8230   004F28  C01D  F080         	movff	?_floorf+3,efgtoa@l+3
  8231                           
  8232                           ;C:\Program Files\Microchip\xc8\v3.00\pic\sources\c99\common\doprnt.c: 738:         d = 
      +                          (int)l;
  8233   004F2C  C07D  F001         	movff	efgtoa@l,___fltol@f1
  8234   004F30  C07E  F002         	movff	efgtoa@l+1,___fltol@f1+1
  8235   004F34  C07F  F003         	movff	efgtoa@l+2,___fltol@f1+2
  8236   004F38  C080  F004         	movff	efgtoa@l+3,___fltol@f1+3
  8237   004F3C  EC93  F034         	call	___fltol	;wreg free
  8238   004F40  C001  F06B         	movff	?___fltol,efgtoa@d
  8239   004F44  C002  F06C         	movff	?___fltol+1,efgtoa@d+1
  8240   004F48                     
  8241                           ;C:\Program Files\Microchip\xc8\v3.00\pic\sources\c99\common\doprnt.c: 739:         h -=
      +                           l*u.f;
  8242   004F48  C079  F028         	movff	efgtoa@h,___flsub@b
  8243   004F4C  C07A  F029         	movff	efgtoa@h+1,___flsub@b+1
  8244   004F50  C07B  F02A         	movff	efgtoa@h+2,___flsub@b+2
  8245   004F54  C07C  F02B         	movff	efgtoa@h+3,___flsub@b+3
  8246   004F58  C07D  F013         	movff	efgtoa@l,___flmul@a
  8247   004F5C  C07E  F014         	movff	efgtoa@l+1,___flmul@a+1
  8248   004F60  C07F  F015         	movff	efgtoa@l+2,___flmul@a+2
  8249   004F64  C080  F016         	movff	efgtoa@l+3,___flmul@a+3
  8250   004F68  C088  F00F         	movff	efgtoa@u,___flmul@b
  8251   004F6C  C089  F010         	movff	efgtoa@u+1,___flmul@b+1
  8252   004F70  C08A  F011         	movff	efgtoa@u+2,___flmul@b+2
  8253   004F74  C08B  F012         	movff	efgtoa@u+3,___flmul@b+3
  8254   004F78  ECA3  F02C         	call	___flmul	;wreg free
  8255   004F7C  C00F  F02C         	movff	?___flmul,___flsub@a
  8256   004F80  C010  F02D         	movff	?___flmul+1,___flsub@a+1
  8257   004F84  C011  F02E         	movff	?___flmul+2,___flsub@a+2
  8258   004F88  C012  F02F         	movff	?___flmul+3,___flsub@a+3
  8259   004F8C  EC95  F039         	call	___flsub	;wreg free
  8260   004F90  C028  F079         	movff	?___flsub,efgtoa@h
  8261   004F94  C029  F07A         	movff	?___flsub+1,efgtoa@h+1
  8262   004F98  C02A  F07B         	movff	?___flsub+2,efgtoa@h+2
  8263   004F9C  C02B  F07C         	movff	?___flsub+3,efgtoa@h+3
  8264   004FA0                     
  8265                           ;C:\Program Files\Microchip\xc8\v3.00\pic\sources\c99\common\doprnt.c: 740:         u.f 
      +                          = u.f/10.0;
  8266   004FA0  C088  F001         	movff	efgtoa@u,___fldiv@b
  8267   004FA4  C089  F002         	movff	efgtoa@u+1,___fldiv@b+1
  8268   004FA8  C08A  F003         	movff	efgtoa@u+2,___fldiv@b+2
  8269   004FAC  C08B  F004         	movff	efgtoa@u+3,___fldiv@b+3
  8270   004FB0  0E00               	movlw	0
  8271   004FB2  6E05               	movwf	___fldiv@a^0,c
  8272   004FB4  0E00               	movlw	0
  8273   004FB6  6E06               	movwf	(___fldiv@a+1)^0,c
  8274   004FB8  0E20               	movlw	32
  8275   004FBA  6E07               	movwf	(___fldiv@a+2)^0,c
  8276   004FBC  0E41               	movlw	65
  8277   004FBE  6E08               	movwf	(___fldiv@a+3)^0,c
  8278   004FC0  ECC8  F02E         	call	___fldiv	;wreg free
  8279   004FC4  C001  F088         	movff	?___fldiv,efgtoa@u
  8280   004FC8  C002  F089         	movff	?___fldiv+1,efgtoa@u+1
  8281   004FCC  C003  F08A         	movff	?___fldiv+2,efgtoa@u+2
  8282   004FD0  C004  F08B         	movff	?___fldiv+3,efgtoa@u+3
  8283   004FD4                     
  8284                           ;C:\Program Files\Microchip\xc8\v3.00\pic\sources\c99\common\doprnt.c: 741:         ++i;
  8285   004FD4  0100               	movlb	0	; () banked
  8286   004FD6  4B77               	infsnz	efgtoa@i& (0+255),f,b
  8287   004FD8  2B78               	incf	(efgtoa@i+1)& (0+255),f,b
  8288   004FDA                     l4331:
  8289                           
  8290                           ; BSR set to: 0
  8291                           ;C:\Program Files\Microchip\xc8\v3.00\pic\sources\c99\common\doprnt.c: 736:     while (i
      +                           < m) {
  8292   004FDA  516D               	movf	efgtoa@m& (0+255),w,b
  8293   004FDC  5D77               	subwf	efgtoa@i& (0+255),w,b
  8294   004FDE  5178               	movf	(efgtoa@i+1)& (0+255),w,b
  8295   004FE0  0A80               	xorlw	128
  8296   004FE2  6E3A               	movwf	??_efgtoa^0,c
  8297   004FE4  516E               	movf	(efgtoa@m+1)& (0+255),w,b
  8298   004FE6  0A80               	xorlw	128
  8299   004FE8  583A               	subwfb	??_efgtoa^0,w,c
  8300   004FEA  A0D8               	btfss	status,0,c
  8301   004FEC  EFFA  F027         	goto	u4401
  8302   004FF0  EFFC  F027         	goto	u4400
  8303   004FF4                     u4401:
  8304   004FF4  EF72  F027         	goto	l4323
  8305   004FF8                     u4400:
  8306   004FF8                     
  8307                           ; BSR set to: 0
  8308                           ;C:\Program Files\Microchip\xc8\v3.00\pic\sources\c99\common\doprnt.c: 745:     l = u.f*
      +                          5.0;
  8309   004FF8  C088  F00F         	movff	efgtoa@u,___flmul@b
  8310   004FFC  C089  F010         	movff	efgtoa@u+1,___flmul@b+1
  8311   005000  C08A  F011         	movff	efgtoa@u+2,___flmul@b+2
  8312   005004  C08B  F012         	movff	efgtoa@u+3,___flmul@b+3
  8313   005008  0E00               	movlw	0
  8314   00500A  6E13               	movwf	___flmul@a^0,c
  8315   00500C  0E00               	movlw	0
  8316   00500E  6E14               	movwf	(___flmul@a+1)^0,c
  8317   005010  0EA0               	movlw	160
  8318   005012  6E15               	movwf	(___flmul@a+2)^0,c
  8319   005014  0E40               	movlw	64
  8320   005016  6E16               	movwf	(___flmul@a+3)^0,c
  8321   005018  ECA3  F02C         	call	___flmul	;wreg free
  8322   00501C  C00F  F07D         	movff	?___flmul,efgtoa@l
  8323   005020  C010  F07E         	movff	?___flmul+1,efgtoa@l+1
  8324   005024  C011  F07F         	movff	?___flmul+2,efgtoa@l+2
  8325   005028  C012  F080         	movff	?___flmul+3,efgtoa@l+3
  8326   00502C                     
  8327                           ;C:\Program Files\Microchip\xc8\v3.00\pic\sources\c99\common\doprnt.c: 746:     if (h < 
      +                          l) {
  8328   00502C  C079  F028         	movff	efgtoa@h,___flge@ff1
  8329   005030  C07A  F029         	movff	efgtoa@h+1,___flge@ff1+1
  8330   005034  C07B  F02A         	movff	efgtoa@h+2,___flge@ff1+2
  8331   005038  C07C  F02B         	movff	efgtoa@h+3,___flge@ff1+3
  8332   00503C  C07D  F02C         	movff	efgtoa@l,___flge@ff2
  8333   005040  C07E  F02D         	movff	efgtoa@l+1,___flge@ff2+1
  8334   005044  C07F  F02E         	movff	efgtoa@l+2,___flge@ff2+2
  8335   005048  C080  F02F         	movff	efgtoa@l+3,___flge@ff2+3
  8336   00504C  EC16  F035         	call	___flge	;wreg free
  8337   005050  B0D8               	btfsc	status,0,c
  8338   005052  EF2D  F028         	goto	u4411
  8339   005056  EF2F  F028         	goto	u4410
  8340   00505A                     u4411:
  8341   00505A  EF3A  F028         	goto	l4339
  8342   00505E                     u4410:
  8343   00505E                     
  8344                           ;C:\Program Files\Microchip\xc8\v3.00\pic\sources\c99\common\doprnt.c: 747:         l = 
      +                          0.0;
  8345   00505E  0E00               	movlw	0
  8346   005060  0100               	movlb	0	; () banked
  8347   005062  6F7D               	movwf	efgtoa@l& (0+255),b
  8348   005064  0E00               	movlw	0
  8349   005066  6F7E               	movwf	(efgtoa@l+1)& (0+255),b
  8350   005068  0E00               	movlw	0
  8351   00506A  6F7F               	movwf	(efgtoa@l+2)& (0+255),b
  8352   00506C  0E00               	movlw	0
  8353   00506E  6F80               	movwf	(efgtoa@l+3)& (0+255),b
  8354                           
  8355                           ;C:\Program Files\Microchip\xc8\v3.00\pic\sources\c99\common\doprnt.c: 748:     } else {
  8356   005070  EF63  F028         	goto	l4345
  8357   005074                     l4339:
  8358                           
  8359                           ;C:\Program Files\Microchip\xc8\v3.00\pic\sources\c99\common\doprnt.c: 750:         if (
      +                          (h == l) && !(d % 2)) {
  8360   005074  C079  F00F         	movff	efgtoa@h,___fleq@ff1
  8361   005078  C07A  F010         	movff	efgtoa@h+1,___fleq@ff1+1
  8362   00507C  C07B  F011         	movff	efgtoa@h+2,___fleq@ff1+2
  8363   005080  C07C  F012         	movff	efgtoa@h+3,___fleq@ff1+3
  8364   005084  C07D  F013         	movff	efgtoa@l,___fleq@ff2
  8365   005088  C07E  F014         	movff	efgtoa@l+1,___fleq@ff2+1
  8366   00508C  C07F  F015         	movff	efgtoa@l+2,___fleq@ff2+2
  8367   005090  C080  F016         	movff	efgtoa@l+3,___fleq@ff2+3
  8368   005094  EC81  F037         	call	___fleq	;wreg free
  8369   005098  A0D8               	btfss	status,0,c
  8370   00509A  EF51  F028         	goto	u4421
  8371   00509E  EF53  F028         	goto	u4420
  8372   0050A2                     u4421:
  8373   0050A2  EF63  F028         	goto	l4345
  8374   0050A6                     u4420:
  8375   0050A6  0100               	movlb	0	; () banked
  8376   0050A8  B16B               	btfsc	efgtoa@d& (0+255),0,b
  8377   0050AA  EF59  F028         	goto	u4431
  8378   0050AE  EF5B  F028         	goto	u4430
  8379   0050B2                     u4431:
  8380   0050B2  EF63  F028         	goto	l4345
  8381   0050B6                     u4430:
  8382   0050B6                     
  8383                           ; BSR set to: 0
  8384                           ;C:\Program Files\Microchip\xc8\v3.00\pic\sources\c99\common\doprnt.c: 751:             
      +                          l = 0.0;
  8385   0050B6  0E00               	movlw	0
  8386   0050B8  6F7D               	movwf	efgtoa@l& (0+255),b
  8387   0050BA  0E00               	movlw	0
  8388   0050BC  6F7E               	movwf	(efgtoa@l+1)& (0+255),b
  8389   0050BE  0E00               	movlw	0
  8390   0050C0  6F7F               	movwf	(efgtoa@l+2)& (0+255),b
  8391   0050C2  0E00               	movlw	0
  8392   0050C4  6F80               	movwf	(efgtoa@l+3)& (0+255),b
  8393   0050C6                     l4345:
  8394                           
  8395                           ;C:\Program Files\Microchip\xc8\v3.00\pic\sources\c99\common\doprnt.c: 756:     h = g.f 
      +                          + l;
  8396   0050C6  C084  F001         	movff	efgtoa@g,___fladd@b
  8397   0050CA  C085  F002         	movff	efgtoa@g+1,___fladd@b+1
  8398   0050CE  C086  F003         	movff	efgtoa@g+2,___fladd@b+2
  8399   0050D2  C087  F004         	movff	efgtoa@g+3,___fladd@b+3
  8400   0050D6  C07D  F005         	movff	efgtoa@l,___fladd@a
  8401   0050DA  C07E  F006         	movff	efgtoa@l+1,___fladd@a+1
  8402   0050DE  C07F  F007         	movff	efgtoa@l+2,___fladd@a+2
  8403   0050E2  C080  F008         	movff	efgtoa@l+3,___fladd@a+3
  8404   0050E6  EC48  F02A         	call	___fladd	;wreg free
  8405   0050EA  C001  F079         	movff	?___fladd,efgtoa@h
  8406   0050EE  C002  F07A         	movff	?___fladd+1,efgtoa@h+1
  8407   0050F2  C003  F07B         	movff	?___fladd+2,efgtoa@h+2
  8408   0050F6  C004  F07C         	movff	?___fladd+3,efgtoa@h+3
  8409   0050FA                     
  8410                           ;C:\Program Files\Microchip\xc8\v3.00\pic\sources\c99\common\doprnt.c: 758:  if (h >= (o
      +                          u.f*10.0)) {
  8411   0050FA  C079  F028         	movff	efgtoa@h,___flge@ff1
  8412   0050FE  C07A  F029         	movff	efgtoa@h+1,___flge@ff1+1
  8413   005102  C07B  F02A         	movff	efgtoa@h+2,___flge@ff1+2
  8414   005106  C07C  F02B         	movff	efgtoa@h+3,___flge@ff1+3
  8415   00510A  0E00               	movlw	0
  8416   00510C  6E13               	movwf	___flmul@a^0,c
  8417   00510E  0E00               	movlw	0
  8418   005110  6E14               	movwf	(___flmul@a+1)^0,c
  8419   005112  0E20               	movlw	32
  8420   005114  6E15               	movwf	(___flmul@a+2)^0,c
  8421   005116  0E41               	movlw	65
  8422   005118  6E16               	movwf	(___flmul@a+3)^0,c
  8423   00511A  C073  F00F         	movff	efgtoa@ou,___flmul@b
  8424   00511E  C074  F010         	movff	efgtoa@ou+1,___flmul@b+1
  8425   005122  C075  F011         	movff	efgtoa@ou+2,___flmul@b+2
  8426   005126  C076  F012         	movff	efgtoa@ou+3,___flmul@b+3
  8427   00512A  ECA3  F02C         	call	___flmul	;wreg free
  8428   00512E  C00F  F02C         	movff	?___flmul,___flge@ff2
  8429   005132  C010  F02D         	movff	?___flmul+1,___flge@ff2+1
  8430   005136  C011  F02E         	movff	?___flmul+2,___flge@ff2+2
  8431   00513A  C012  F02F         	movff	?___flmul+3,___flge@ff2+3
  8432   00513E  EC16  F035         	call	___flge	;wreg free
  8433   005142  A0D8               	btfss	status,0,c
  8434   005144  EFA6  F028         	goto	u4441
  8435   005148  EFA8  F028         	goto	u4440
  8436   00514C                     u4441:
  8437   00514C  EFD1  F028         	goto	l4357
  8438   005150                     u4440:
  8439   005150                     
  8440                           ;C:\Program Files\Microchip\xc8\v3.00\pic\sources\c99\common\doprnt.c: 759:   e++;
  8441   005150  0100               	movlb	0	; () banked
  8442   005152  4B6F               	infsnz	efgtoa@e& (0+255),f,b
  8443   005154  2B70               	incf	(efgtoa@e+1)& (0+255),f,b
  8444   005156                     
  8445                           ; BSR set to: 0
  8446                           ;C:\Program Files\Microchip\xc8\v3.00\pic\sources\c99\common\doprnt.c: 760:   ou.f *= 10
      +                          .0;
  8447   005156  C073  F00F         	movff	efgtoa@ou,___flmul@b
  8448   00515A  C074  F010         	movff	efgtoa@ou+1,___flmul@b+1
  8449   00515E  C075  F011         	movff	efgtoa@ou+2,___flmul@b+2
  8450   005162  C076  F012         	movff	efgtoa@ou+3,___flmul@b+3
  8451   005166  0E00               	movlw	0
  8452   005168  6E13               	movwf	___flmul@a^0,c
  8453   00516A  0E00               	movlw	0
  8454   00516C  6E14               	movwf	(___flmul@a+1)^0,c
  8455   00516E  0E20               	movlw	32
  8456   005170  6E15               	movwf	(___flmul@a+2)^0,c
  8457   005172  0E41               	movlw	65
  8458   005174  6E16               	movwf	(___flmul@a+3)^0,c
  8459   005176  ECA3  F02C         	call	___flmul	;wreg free
  8460   00517A  C00F  F073         	movff	?___flmul,efgtoa@ou
  8461   00517E  C010  F074         	movff	?___flmul+1,efgtoa@ou+1
  8462   005182  C011  F075         	movff	?___flmul+2,efgtoa@ou+2
  8463   005186  C012  F076         	movff	?___flmul+3,efgtoa@ou+3
  8464   00518A                     
  8465                           ;C:\Program Files\Microchip\xc8\v3.00\pic\sources\c99\common\doprnt.c: 762:   if (nmode 
      +                          == 'f') {
  8466   00518A  0E66               	movlw	102
  8467   00518C  0100               	movlb	0	; () banked
  8468   00518E  196A               	xorwf	efgtoa@nmode& (0+255),w,b
  8469   005190  A4D8               	btfss	status,2,c
  8470   005192  EFCD  F028         	goto	u4451
  8471   005196  EFCF  F028         	goto	u4450
  8472   00519A                     u4451:
  8473   00519A  EFD1  F028         	goto	l4357
  8474   00519E                     u4450:
  8475   00519E                     
  8476                           ; BSR set to: 0
  8477                           ;C:\Program Files\Microchip\xc8\v3.00\pic\sources\c99\common\doprnt.c: 764:    m++;
  8478   00519E  4B6D               	infsnz	efgtoa@m& (0+255),f,b
  8479   0051A0  2B6E               	incf	(efgtoa@m+1)& (0+255),f,b
  8480   0051A2                     l4357:
  8481                           
  8482                           ;C:\Program Files\Microchip\xc8\v3.00\pic\sources\c99\common\doprnt.c: 770:     u = ou;
  8483   0051A2  C073  F088         	movff	efgtoa@ou,efgtoa@u
  8484   0051A6  C074  F089         	movff	efgtoa@ou+1,efgtoa@u+1
  8485   0051AA  C075  F08A         	movff	efgtoa@ou+2,efgtoa@u+2
  8486   0051AE  C076  F08B         	movff	efgtoa@ou+3,efgtoa@u+3
  8487   0051B2                     
  8488                           ;C:\Program Files\Microchip\xc8\v3.00\pic\sources\c99\common\doprnt.c: 774:  ne = e;
  8489   0051B2  C06F  F060         	movff	efgtoa@e,efgtoa@ne
  8490   0051B6  C070  F061         	movff	efgtoa@e+1,efgtoa@ne+1
  8491   0051BA                     
  8492                           ;C:\Program Files\Microchip\xc8\v3.00\pic\sources\c99\common\doprnt.c: 776:     pp = 0;
  8493   0051BA  0100               	movlb	0	; () banked
  8494   0051BC  6B68               	clrf	efgtoa@pp& (0+255),b
  8495   0051BE                     
  8496                           ; BSR set to: 0
  8497                           ;C:\Program Files\Microchip\xc8\v3.00\pic\sources\c99\common\doprnt.c: 777:     t = 0;
  8498   0051BE  0E00               	movlw	0
  8499   0051C0  6F65               	movwf	(efgtoa@t+1)& (0+255),b
  8500   0051C2  0E00               	movlw	0
  8501   0051C4  6F64               	movwf	efgtoa@t& (0+255),b
  8502   0051C6                     
  8503                           ; BSR set to: 0
  8504                           ;C:\Program Files\Microchip\xc8\v3.00\pic\sources\c99\common\doprnt.c: 778:     i = 0;
  8505   0051C6  0E00               	movlw	0
  8506   0051C8  6F78               	movwf	(efgtoa@i+1)& (0+255),b
  8507   0051CA  0E00               	movlw	0
  8508   0051CC  6F77               	movwf	efgtoa@i& (0+255),b
  8509                           
  8510                           ;C:\Program Files\Microchip\xc8\v3.00\pic\sources\c99\common\doprnt.c: 779:     while ((
      +                          i < m) && (n < (80 - 5))) {
  8511   0051CE  EFCE  F029         	goto	l4407
  8512   0051D2                     l4367:
  8513                           
  8514                           ; BSR set to: 0
  8515                           ;C:\Program Files\Microchip\xc8\v3.00\pic\sources\c99\common\doprnt.c: 780:         l = 
      +                          floorf(h/u.f);
  8516   0051D2  C079  F001         	movff	efgtoa@h,___fldiv@b
  8517   0051D6  C07A  F002         	movff	efgtoa@h+1,___fldiv@b+1
  8518   0051DA  C07B  F003         	movff	efgtoa@h+2,___fldiv@b+2
  8519   0051DE  C07C  F004         	movff	efgtoa@h+3,___fldiv@b+3
  8520   0051E2  C088  F005         	movff	efgtoa@u,___fldiv@a
  8521   0051E6  C089  F006         	movff	efgtoa@u+1,___fldiv@a+1
  8522   0051EA  C08A  F007         	movff	efgtoa@u+2,___fldiv@a+2
  8523   0051EE  C08B  F008         	movff	efgtoa@u+3,___fldiv@a+3
  8524   0051F2  ECC8  F02E         	call	___fldiv	;wreg free
  8525   0051F6  C001  F01A         	movff	?___fldiv,floorf@x
  8526   0051FA  C002  F01B         	movff	?___fldiv+1,floorf@x+1
  8527   0051FE  C003  F01C         	movff	?___fldiv+2,floorf@x+2
  8528   005202  C004  F01D         	movff	?___fldiv+3,floorf@x+3
  8529   005206  ECF3  F031         	call	_floorf	;wreg free
  8530   00520A  C01A  F07D         	movff	?_floorf,efgtoa@l
  8531   00520E  C01B  F07E         	movff	?_floorf+1,efgtoa@l+1
  8532   005212  C01C  F07F         	movff	?_floorf+2,efgtoa@l+2
  8533   005216  C01D  F080         	movff	?_floorf+3,efgtoa@l+3
  8534                           
  8535                           ;C:\Program Files\Microchip\xc8\v3.00\pic\sources\c99\common\doprnt.c: 781:         d = 
      +                          (int)l > 9 ? 9 : (int)l;
  8536   00521A  C07D  F001         	movff	efgtoa@l,___fltol@f1
  8537   00521E  C07E  F002         	movff	efgtoa@l+1,___fltol@f1+1
  8538   005222  C07F  F003         	movff	efgtoa@l+2,___fltol@f1+2
  8539   005226  C080  F004         	movff	efgtoa@l+3,___fltol@f1+3
  8540   00522A  EC93  F034         	call	___fltol	;wreg free
  8541   00522E  BE02               	btfsc	(?___fltol+1)^0,7,c
  8542   005230  EF25  F029         	goto	u4460
  8543   005234  5002               	movf	(?___fltol+1)^0,w,c
  8544   005236  E107               	bnz	u4461
  8545   005238  0E0A               	movlw	10
  8546   00523A  5C01               	subwf	?___fltol^0,w,c
  8547   00523C  B0D8               	btfsc	status,0,c
  8548   00523E  EF23  F029         	goto	u4461
  8549   005242  EF25  F029         	goto	u4460
  8550   005246                     u4461:
  8551   005246  EF35  F029         	goto	l4371
  8552   00524A                     u4460:
  8553   00524A  C07D  F001         	movff	efgtoa@l,___fltol@f1
  8554   00524E  C07E  F002         	movff	efgtoa@l+1,___fltol@f1+1
  8555   005252  C07F  F003         	movff	efgtoa@l+2,___fltol@f1+2
  8556   005256  C080  F004         	movff	efgtoa@l+3,___fltol@f1+3
  8557   00525A  EC93  F034         	call	___fltol	;wreg free
  8558   00525E  C001  F06B         	movff	?___fltol,efgtoa@d
  8559   005262  C002  F06C         	movff	?___fltol+1,efgtoa@d+1
  8560   005266  EF3A  F029         	goto	l1002
  8561   00526A                     l4371:
  8562   00526A  0E00               	movlw	0
  8563   00526C  0100               	movlb	0	; () banked
  8564   00526E  6F6C               	movwf	(efgtoa@d+1)& (0+255),b
  8565   005270  0E09               	movlw	9
  8566   005272  6F6B               	movwf	efgtoa@d& (0+255),b
  8567   005274                     l1002:
  8568                           
  8569                           ;C:\Program Files\Microchip\xc8\v3.00\pic\sources\c99\common\doprnt.c: 792:   {;C:\Progr
      +                          am Files\Microchip\xc8\v3.00\pic\sources\c99\common\doprnt.c: 793:             if (!pp &
      +                          & (ne < 0)) {
  8570   005274  0100               	movlb	0	; () banked
  8571   005276  5168               	movf	efgtoa@pp& (0+255),w,b
  8572   005278  A4D8               	btfss	status,2,c
  8573   00527A  EF41  F029         	goto	u4471
  8574   00527E  EF43  F029         	goto	u4470
  8575   005282                     u4471:
  8576   005282  EF6B  F029         	goto	l4391
  8577   005286                     u4470:
  8578   005286                     
  8579                           ; BSR set to: 0
  8580   005286  BF61               	btfsc	(efgtoa@ne+1)& (0+255),7,b
  8581   005288  EF4A  F029         	goto	u4480
  8582   00528C  EF48  F029         	goto	u4481
  8583   005290                     u4481:
  8584   005290  EF6B  F029         	goto	l4391
  8585   005294                     u4480:
  8586   005294                     
  8587                           ; BSR set to: 0
  8588                           ;C:\Program Files\Microchip\xc8\v3.00\pic\sources\c99\common\doprnt.c: 794:             
      +                              dbuf[n++] = '.';
  8589   005294  0E00               	movlw	low _dbuf
  8590   005296  2582               	addwf	efgtoa@n& (0+255),w,b
  8591   005298  6ED9               	movwf	fsr2l,c
  8592   00529A  0E01               	movlw	high _dbuf
  8593   00529C  2183               	addwfc	(efgtoa@n+1)& (0+255),w,b
  8594   00529E  6EDA               	movwf	fsr2h,c
  8595   0052A0  0E2E               	movlw	46
  8596   0052A2  6EDF               	movwf	indf2,c
  8597   0052A4                     
  8598                           ; BSR set to: 0
  8599   0052A4  4B82               	infsnz	efgtoa@n& (0+255),f,b
  8600   0052A6  2B83               	incf	(efgtoa@n+1)& (0+255),f,b
  8601   0052A8                     
  8602                           ; BSR set to: 0
  8603                           ;C:\Program Files\Microchip\xc8\v3.00\pic\sources\c99\common\doprnt.c: 795:             
      +                              --w;
  8604   0052A8  0771               	decf	efgtoa@w& (0+255),f,b
  8605   0052AA  A0D8               	btfss	status,0,c
  8606   0052AC  0772               	decf	(efgtoa@w+1)& (0+255),f,b
  8607   0052AE                     
  8608                           ; BSR set to: 0
  8609                           ;C:\Program Files\Microchip\xc8\v3.00\pic\sources\c99\common\doprnt.c: 796:             
      +                              pp = 1;
  8610   0052AE  0E01               	movlw	1
  8611   0052B0  6F68               	movwf	efgtoa@pp& (0+255),b
  8612   0052B2  EF6B  F029         	goto	l4391
  8613   0052B6                     l4383:
  8614                           
  8615                           ; BSR set to: 0
  8616                           ;C:\Program Files\Microchip\xc8\v3.00\pic\sources\c99\common\doprnt.c: 799:             
      +                              dbuf[n++] = '0';
  8617   0052B6  0E00               	movlw	low _dbuf
  8618   0052B8  2582               	addwf	efgtoa@n& (0+255),w,b
  8619   0052BA  6ED9               	movwf	fsr2l,c
  8620   0052BC  0E01               	movlw	high _dbuf
  8621   0052BE  2183               	addwfc	(efgtoa@n+1)& (0+255),w,b
  8622   0052C0  6EDA               	movwf	fsr2h,c
  8623   0052C2  0E30               	movlw	48
  8624   0052C4  6EDF               	movwf	indf2,c
  8625   0052C6                     
  8626                           ; BSR set to: 0
  8627   0052C6  4B82               	infsnz	efgtoa@n& (0+255),f,b
  8628   0052C8  2B83               	incf	(efgtoa@n+1)& (0+255),f,b
  8629   0052CA                     
  8630                           ; BSR set to: 0
  8631                           ;C:\Program Files\Microchip\xc8\v3.00\pic\sources\c99\common\doprnt.c: 800:             
      +                              --w;
  8632   0052CA  0771               	decf	efgtoa@w& (0+255),f,b
  8633   0052CC  A0D8               	btfss	status,0,c
  8634   0052CE  0772               	decf	(efgtoa@w+1)& (0+255),f,b
  8635   0052D0                     
  8636                           ; BSR set to: 0
  8637                           ;C:\Program Files\Microchip\xc8\v3.00\pic\sources\c99\common\doprnt.c: 801:             
      +                              --t;
  8638   0052D0  0764               	decf	efgtoa@t& (0+255),f,b
  8639   0052D2  A0D8               	btfss	status,0,c
  8640   0052D4  0765               	decf	(efgtoa@t+1)& (0+255),f,b
  8641   0052D6                     l4391:
  8642                           
  8643                           ; BSR set to: 0
  8644                           ;C:\Program Files\Microchip\xc8\v3.00\pic\sources\c99\common\doprnt.c: 798:             
      +                          while (t) {
  8645   0052D6  5164               	movf	efgtoa@t& (0+255),w,b
  8646   0052D8  1165               	iorwf	(efgtoa@t+1)& (0+255),w,b
  8647   0052DA  A4D8               	btfss	status,2,c
  8648   0052DC  EF72  F029         	goto	u4491
  8649   0052E0  EF74  F029         	goto	u4490
  8650   0052E4                     u4491:
  8651   0052E4  EF5B  F029         	goto	l4383
  8652   0052E8                     u4490:
  8653   0052E8                     
  8654                           ; BSR set to: 0
  8655                           ;C:\Program Files\Microchip\xc8\v3.00\pic\sources\c99\common\doprnt.c: 803:             
      +                          dbuf[n++] = (char)((int)'0' + d);
  8656   0052E8  0E00               	movlw	low _dbuf
  8657   0052EA  2582               	addwf	efgtoa@n& (0+255),w,b
  8658   0052EC  6ED9               	movwf	fsr2l,c
  8659   0052EE  0E01               	movlw	high _dbuf
  8660   0052F0  2183               	addwfc	(efgtoa@n+1)& (0+255),w,b
  8661   0052F2  6EDA               	movwf	fsr2h,c
  8662   0052F4  516B               	movf	efgtoa@d& (0+255),w,b
  8663   0052F6  0F30               	addlw	48
  8664   0052F8  6EDF               	movwf	indf2,c
  8665   0052FA                     
  8666                           ; BSR set to: 0
  8667   0052FA  4B82               	infsnz	efgtoa@n& (0+255),f,b
  8668   0052FC  2B83               	incf	(efgtoa@n+1)& (0+255),f,b
  8669   0052FE                     
  8670                           ; BSR set to: 0
  8671                           ;C:\Program Files\Microchip\xc8\v3.00\pic\sources\c99\common\doprnt.c: 804:             
      +                          --w;
  8672   0052FE  0771               	decf	efgtoa@w& (0+255),f,b
  8673   005300  A0D8               	btfss	status,0,c
  8674   005302  0772               	decf	(efgtoa@w+1)& (0+255),f,b
  8675   005304                     
  8676                           ; BSR set to: 0
  8677                           ;C:\Program Files\Microchip\xc8\v3.00\pic\sources\c99\common\doprnt.c: 805:         };C:
      +                          \Program Files\Microchip\xc8\v3.00\pic\sources\c99\common\doprnt.c: 806:         h -= l*
      +                          u.f;
  8678   005304  C079  F028         	movff	efgtoa@h,___flsub@b
  8679   005308  C07A  F029         	movff	efgtoa@h+1,___flsub@b+1
  8680   00530C  C07B  F02A         	movff	efgtoa@h+2,___flsub@b+2
  8681   005310  C07C  F02B         	movff	efgtoa@h+3,___flsub@b+3
  8682   005314  C07D  F013         	movff	efgtoa@l,___flmul@a
  8683   005318  C07E  F014         	movff	efgtoa@l+1,___flmul@a+1
  8684   00531C  C07F  F015         	movff	efgtoa@l+2,___flmul@a+2
  8685   005320  C080  F016         	movff	efgtoa@l+3,___flmul@a+3
  8686   005324  C088  F00F         	movff	efgtoa@u,___flmul@b
  8687   005328  C089  F010         	movff	efgtoa@u+1,___flmul@b+1
  8688   00532C  C08A  F011         	movff	efgtoa@u+2,___flmul@b+2
  8689   005330  C08B  F012         	movff	efgtoa@u+3,___flmul@b+3
  8690   005334  ECA3  F02C         	call	___flmul	;wreg free
  8691   005338  C00F  F02C         	movff	?___flmul,___flsub@a
  8692   00533C  C010  F02D         	movff	?___flmul+1,___flsub@a+1
  8693   005340  C011  F02E         	movff	?___flmul+2,___flsub@a+2
  8694   005344  C012  F02F         	movff	?___flmul+3,___flsub@a+3
  8695   005348  EC95  F039         	call	___flsub	;wreg free
  8696   00534C  C028  F079         	movff	?___flsub,efgtoa@h
  8697   005350  C029  F07A         	movff	?___flsub+1,efgtoa@h+1
  8698   005354  C02A  F07B         	movff	?___flsub+2,efgtoa@h+2
  8699   005358  C02B  F07C         	movff	?___flsub+3,efgtoa@h+3
  8700   00535C                     
  8701                           ;C:\Program Files\Microchip\xc8\v3.00\pic\sources\c99\common\doprnt.c: 807:         u.f 
      +                          = u.f/10.0;
  8702   00535C  C088  F001         	movff	efgtoa@u,___fldiv@b
  8703   005360  C089  F002         	movff	efgtoa@u+1,___fldiv@b+1
  8704   005364  C08A  F003         	movff	efgtoa@u+2,___fldiv@b+2
  8705   005368  C08B  F004         	movff	efgtoa@u+3,___fldiv@b+3
  8706   00536C  0E00               	movlw	0
  8707   00536E  6E05               	movwf	___fldiv@a^0,c
  8708   005370  0E00               	movlw	0
  8709   005372  6E06               	movwf	(___fldiv@a+1)^0,c
  8710   005374  0E20               	movlw	32
  8711   005376  6E07               	movwf	(___fldiv@a+2)^0,c
  8712   005378  0E41               	movlw	65
  8713   00537A  6E08               	movwf	(___fldiv@a+3)^0,c
  8714   00537C  ECC8  F02E         	call	___fldiv	;wreg free
  8715   005380  C001  F088         	movff	?___fldiv,efgtoa@u
  8716   005384  C002  F089         	movff	?___fldiv+1,efgtoa@u+1
  8717   005388  C003  F08A         	movff	?___fldiv+2,efgtoa@u+2
  8718   00538C  C004  F08B         	movff	?___fldiv+3,efgtoa@u+3
  8719   005390                     
  8720                           ;C:\Program Files\Microchip\xc8\v3.00\pic\sources\c99\common\doprnt.c: 808:         --ne
      +                          ;
  8721   005390  0100               	movlb	0	; () banked
  8722   005392  0760               	decf	efgtoa@ne& (0+255),f,b
  8723   005394  A0D8               	btfss	status,0,c
  8724   005396  0761               	decf	(efgtoa@ne+1)& (0+255),f,b
  8725   005398                     
  8726                           ; BSR set to: 0
  8727                           ;C:\Program Files\Microchip\xc8\v3.00\pic\sources\c99\common\doprnt.c: 809:         ++i;
  8728   005398  4B77               	infsnz	efgtoa@i& (0+255),f,b
  8729   00539A  2B78               	incf	(efgtoa@i+1)& (0+255),f,b
  8730   00539C                     l4407:
  8731                           
  8732                           ; BSR set to: 0
  8733                           ;C:\Program Files\Microchip\xc8\v3.00\pic\sources\c99\common\doprnt.c: 779:     while ((
      +                          i < m) && (n < (80 - 5))) {
  8734   00539C  516D               	movf	efgtoa@m& (0+255),w,b
  8735   00539E  5D77               	subwf	efgtoa@i& (0+255),w,b
  8736   0053A0  5178               	movf	(efgtoa@i+1)& (0+255),w,b
  8737   0053A2  0A80               	xorlw	128
  8738   0053A4  6E3A               	movwf	??_efgtoa^0,c
  8739   0053A6  516E               	movf	(efgtoa@m+1)& (0+255),w,b
  8740   0053A8  0A80               	xorlw	128
  8741   0053AA  583A               	subwfb	??_efgtoa^0,w,c
  8742   0053AC  B0D8               	btfsc	status,0,c
  8743   0053AE  EFDB  F029         	goto	u4501
  8744   0053B2  EFDD  F029         	goto	u4500
  8745   0053B6                     u4501:
  8746   0053B6  EFEB  F029         	goto	l4411
  8747   0053BA                     u4500:
  8748   0053BA                     
  8749                           ; BSR set to: 0
  8750   0053BA  BF83               	btfsc	(efgtoa@n+1)& (0+255),7,b
  8751   0053BC  EFE9  F029         	goto	u4511
  8752   0053C0  5183               	movf	(efgtoa@n+1)& (0+255),w,b
  8753   0053C2  E109               	bnz	u4510
  8754   0053C4  0E4B               	movlw	75
  8755   0053C6  5D82               	subwf	efgtoa@n& (0+255),w,b
  8756   0053C8  A0D8               	btfss	status,0,c
  8757   0053CA  EFE9  F029         	goto	u4511
  8758   0053CE  EFEB  F029         	goto	u4510
  8759   0053D2                     u4511:
  8760   0053D2  EFE9  F028         	goto	l4367
  8761   0053D6                     u4510:
  8762   0053D6                     l4411:
  8763                           
  8764                           ; BSR set to: 0
  8765                           ;C:\Program Files\Microchip\xc8\v3.00\pic\sources\c99\common\doprnt.c: 816:  i = sizeof(
      +                          dbuf) - 1;
  8766   0053D6  0E00               	movlw	0
  8767   0053D8  6F78               	movwf	(efgtoa@i+1)& (0+255),b
  8768   0053DA  0E4F               	movlw	79
  8769   0053DC  6F77               	movwf	efgtoa@i& (0+255),b
  8770   0053DE                     
  8771                           ; BSR set to: 0
  8772                           ;C:\Program Files\Microchip\xc8\v3.00\pic\sources\c99\common\doprnt.c: 817:     dbuf[i] 
      +                          = '\0';
  8773   0053DE  0E00               	movlw	low _dbuf
  8774   0053E0  2577               	addwf	efgtoa@i& (0+255),w,b
  8775   0053E2  6ED9               	movwf	fsr2l,c
  8776   0053E4  0E01               	movlw	high _dbuf
  8777   0053E6  2178               	addwfc	(efgtoa@i+1)& (0+255),w,b
  8778   0053E8  6EDA               	movwf	fsr2h,c
  8779   0053EA  6ADF               	clrf	indf2,c
  8780   0053EC                     
  8781                           ; BSR set to: 0
  8782                           ;C:\Program Files\Microchip\xc8\v3.00\pic\sources\c99\common\doprnt.c: 848:  memcpy(&dbu
      +                          f[i-n], &dbuf[0], (size_t)n);
  8783   0053EC  0E00               	movlw	low _dbuf
  8784   0053EE  6E3A               	movwf	??_efgtoa^0,c
  8785   0053F0  0E01               	movlw	high _dbuf
  8786   0053F2  6E3B               	movwf	(??_efgtoa+1)^0,c
  8787   0053F4  5182               	movf	efgtoa@n& (0+255),w,b
  8788   0053F6  5E3A               	subwf	??_efgtoa^0,f,c
  8789   0053F8  5183               	movf	(efgtoa@n+1)& (0+255),w,b
  8790   0053FA  5A3B               	subwfb	(??_efgtoa+1)^0,f,c
  8791   0053FC  5177               	movf	efgtoa@i& (0+255),w,b
  8792   0053FE  243A               	addwf	??_efgtoa^0,w,c
  8793   005400  6E01               	movwf	memcpy@d1^0,c
  8794   005402  5178               	movf	(efgtoa@i+1)& (0+255),w,b
  8795   005404  203B               	addwfc	(??_efgtoa+1)^0,w,c
  8796   005406  6E02               	movwf	(memcpy@d1+1)^0,c
  8797   005408  0E00               	movlw	low _dbuf
  8798   00540A  6E03               	movwf	memcpy@s1^0,c
  8799   00540C  0E01               	movlw	high _dbuf
  8800   00540E  6E04               	movwf	(memcpy@s1+1)^0,c
  8801   005410  C082  F005         	movff	efgtoa@n,memcpy@n
  8802   005414  C083  F006         	movff	efgtoa@n+1,memcpy@n+1
  8803   005418  ECF5  F038         	call	_memcpy	;wreg free
  8804   00541C                     
  8805                           ;C:\Program Files\Microchip\xc8\v3.00\pic\sources\c99\common\doprnt.c: 849:  n = i-n;
  8806   00541C  0100               	movlb	0	; () banked
  8807   00541E  5182               	movf	efgtoa@n& (0+255),w,b
  8808   005420  5D77               	subwf	efgtoa@i& (0+255),w,b
  8809   005422  6F82               	movwf	efgtoa@n& (0+255),b
  8810   005424  5183               	movf	(efgtoa@n+1)& (0+255),w,b
  8811   005426  5978               	subwfb	(efgtoa@i+1)& (0+255),w,b
  8812   005428  6F83               	movwf	(efgtoa@n+1)& (0+255),b
  8813   00542A                     
  8814                           ; BSR set to: 0
  8815                           ;C:\Program Files\Microchip\xc8\v3.00\pic\sources\c99\common\doprnt.c: 850:  i = sign ==
      +                           0 ? 0 : 1;
  8816   00542A  5181               	movf	efgtoa@sign& (0+255),w,b
  8817   00542C  A4D8               	btfss	status,2,c
  8818   00542E  EF1B  F02A         	goto	u4521
  8819   005432  EF1E  F02A         	goto	u4520
  8820   005436                     u4521:
  8821   005436  0E01               	movlw	1
  8822   005438  EF1F  F02A         	goto	u4530
  8823   00543C                     u4520:
  8824   00543C  0E00               	movlw	0
  8825   00543E                     u4530:
  8826   00543E  6F77               	movwf	efgtoa@i& (0+255),b
  8827   005440  6B78               	clrf	(efgtoa@i+1)& (0+255),b
  8828   005442                     
  8829                           ; BSR set to: 0
  8830                           ;C:\Program Files\Microchip\xc8\v3.00\pic\sources\c99\common\doprnt.c: 861:  if (sign) {
  8831   005442  5181               	movf	efgtoa@sign& (0+255),w,b
  8832   005444  B4D8               	btfsc	status,2,c
  8833   005446  EF27  F02A         	goto	u4541
  8834   00544A  EF29  F02A         	goto	u4540
  8835   00544E                     u4541:
  8836   00544E  EF35  F02A         	goto	l4425
  8837   005452                     u4540:
  8838   005452                     
  8839                           ; BSR set to: 0
  8840                           ;C:\Program Files\Microchip\xc8\v3.00\pic\sources\c99\common\doprnt.c: 862:   dbuf[--n] 
      +                          = sign;
  8841   005452  0782               	decf	efgtoa@n& (0+255),f,b
  8842   005454  A0D8               	btfss	status,0,c
  8843   005456  0783               	decf	(efgtoa@n+1)& (0+255),f,b
  8844   005458  0E00               	movlw	low _dbuf
  8845   00545A  2582               	addwf	efgtoa@n& (0+255),w,b
  8846   00545C  6ED9               	movwf	fsr2l,c
  8847   00545E  0E01               	movlw	high _dbuf
  8848   005460  2183               	addwfc	(efgtoa@n+1)& (0+255),w,b
  8849   005462  6EDA               	movwf	fsr2h,c
  8850   005464  0060  F207  FFDF   	movff	efgtoa@sign,indf2
  8851   00546A                     l4425:
  8852                           
  8853                           ; BSR set to: 0
  8854                           ;C:\Program Files\Microchip\xc8\v3.00\pic\sources\c99\common\doprnt.c: 864:  w -= i;
  8855   00546A  5177               	movf	efgtoa@i& (0+255),w,b
  8856   00546C  5F71               	subwf	efgtoa@w& (0+255),f,b
  8857   00546E  5178               	movf	(efgtoa@i+1)& (0+255),w,b
  8858   005470  5B72               	subwfb	(efgtoa@w+1)& (0+255),f,b
  8859   005472                     
  8860                           ; BSR set to: 0
  8861                           ;C:\Program Files\Microchip\xc8\v3.00\pic\sources\c99\common\doprnt.c: 867:     return (
      +                          void) pad(fp, &dbuf[n], w);
  8862   005472  C034  F00F         	movff	efgtoa@fp,pad@fp
  8863   005476  0E00               	movlw	low _dbuf
  8864   005478  2582               	addwf	efgtoa@n& (0+255),w,b
  8865   00547A  6E10               	movwf	pad@buf^0,c
  8866   00547C  0E01               	movlw	high _dbuf
  8867   00547E  2183               	addwfc	(efgtoa@n+1)& (0+255),w,b
  8868   005480  6E11               	movwf	(pad@buf+1)^0,c
  8869   005482  C071  F012         	movff	efgtoa@w,pad@p
  8870   005486  C072  F013         	movff	efgtoa@w+1,pad@p+1
  8871   00548A  ECD6  F037         	call	_pad	;wreg free
  8872   00548E                     l969:
  8873   00548E  0012               	return		;funcret
  8874   005490                     __end_of_efgtoa:
  8875                           	callstack 0
  8876                           
  8877 ;; *************** function _strcpy *****************
  8878 ;; Defined at:
  8879 ;;		line 3 in file "C:\Program Files\Microchip\xc8\v3.00\pic\sources\c99\common\strcpy.c"
  8880 ;; Parameters:    Size  Location     Type
  8881 ;;  dest            2    0[COMRAM] PTR unsigned char 
  8882 ;;		 -> dbuf(80), 
  8883 ;;  src             1    2[COMRAM] PTR const unsigned char 
  8884 ;;		 -> STR_149(4), STR_146(4), 
  8885 ;; Auto vars:     Size  Location     Type
  8886 ;;  d               2    4[COMRAM] PTR unsigned char 
  8887 ;;		 -> dbuf(80), 
  8888 ;; Return value:  Size  Location     Type
  8889 ;;                  2    0[COMRAM] PTR unsigned char 
  8890 ;; Registers used:
  8891 ;;		wreg, fsr2l, fsr2h, status,2, status,0, tblptrl, tblptrh, tblptru
  8892 ;; Tracked objects:
  8893 ;;		On entry : 0/0
  8894 ;;		On exit  : 0/0
  8895 ;;		Unchanged: 0/0
  8896 ;; Data sizes:     COMRAM   BANK0   BANK1   BANK2   BANK3   BANK4   BANK5   BANK6   BANK7   BANK8   BANK9  BANK10  BANK1
      +1  BANK12  BANK13  BANK14  BANK15  BANK16  BANK17  BANK18  BANK19  BANK20  BANK21  BANK22  BANK23  BANK24  BANK25  BANK2
      +6  BANK27  BANK28  BANK29  BANK30  BANK31
  8897 ;;      Params:         3       0       0       0       0       0       0       0       0       0       0       0       
      +0       0       0       0       0       0       0       0       0       0       0       0       0       0       0       
      +0       0       0       0       0       0
  8898 ;;      Locals:         2       0       0       0       0       0       0       0       0       0       0       0       
      +0       0       0       0       0       0       0       0       0       0       0       0       0       0       0       
      +0       0       0       0       0       0
  8899 ;;      Temps:          1       0       0       0       0       0       0       0       0       0       0       0       
      +0       0       0       0       0       0       0       0       0       0       0       0       0       0       0       
      +0       0       0       0       0       0
  8900 ;;      Totals:         6       0       0       0       0       0       0       0       0       0       0       0       
      +0       0       0       0       0       0       0       0       0       0       0       0       0       0       0       
      +0       0       0       0       0       0
  8901 ;;Total ram usage:        6 bytes
  8902 ;; Hardware stack levels used: 1
  8903 ;; This function calls:
  8904 ;;		Nothing
  8905 ;; This function is called by:
  8906 ;;		_efgtoa
  8907 ;; This function uses a non-reentrant model
  8908 ;;
  8909                           
  8910                           	psect	text7
  8911   0072E4                     __ptext7:
  8912                           	callstack 0
  8913   0072E4                     _strcpy:
  8914                           	callstack 26
  8915   0072E4  C001  F005         	movff	strcpy@dest,strcpy@d
  8916   0072E8  C002  F006         	movff	strcpy@dest+1,strcpy@d+1
  8917   0072EC                     l4101:
  8918   0072EC  2A03               	incf	strcpy@src^0,f,c
  8919   0072EE  0403               	decf	strcpy@src^0,w,c
  8920   0072F0  6E04               	movwf	??_strcpy^0,c
  8921   0072F2  0060  F013  FFF6   	movff	??_strcpy,tblptrl
  8922   0072F8                     	if	1	;There is more than 1 active tblptr byte
  8923   0072F8  0E20               	movlw	high __smallconst
  8924   0072FA  6EF7               	movwf	tblptrh,c
  8925   0072FC                     	endif
  8926   0072FC                     	if	0	;tblptru may be non-zero
  8927   0072FC                     	endif
  8928   0072FC                     	if	1	;Program memory is > 0xFFFF, there are 3 active tblptr bytes
  8929   0072FC  0E00               	movlw	low (__smallconst shr (0+16))
  8930   0072FE  6EF8               	movwf	tblptru,c
  8931   007300                     	endif
  8932   007300  0060  F017  FFD9   	movff	strcpy@d,fsr2l
  8933   007306  0060  F01B  FFDA   	movff	strcpy@d+1,fsr2h
  8934   00730C  4A05               	infsnz	strcpy@d^0,f,c
  8935   00730E  2A06               	incf	(strcpy@d+1)^0,f,c
  8936   007310  0008               	tblrd		*
  8937   007312  006F FFD7 FFDF     	movff	tablat,indf2
  8938   007318  50DF               	movf	indf2,w,c
  8939   00731A  A4D8               	btfss	status,2,c
  8940   00731C  EF92  F039         	goto	u3991
  8941   007320  EF94  F039         	goto	u3990
  8942   007324                     u3991:
  8943   007324  EF76  F039         	goto	l4101
  8944   007328                     u3990:
  8945   007328  0012               	return		;funcret
  8946   00732A                     __end_of_strcpy:
  8947                           	callstack 0
  8948                           
  8949 ;; *************** function _memcpy *****************
  8950 ;; Defined at:
  8951 ;;		line 4 in file "C:\Program Files\Microchip\xc8\v3.00\pic\sources\c99\common\memcpy.c"
  8952 ;; Parameters:    Size  Location     Type
  8953 ;;  d1              2    0[COMRAM] PTR void 
  8954 ;;		 -> dbuf(80), 
  8955 ;;  s1              2    2[COMRAM] PTR const void 
  8956 ;;		 -> dbuf(80), 
  8957 ;;  n               2    4[COMRAM] unsigned int 
  8958 ;; Auto vars:     Size  Location     Type
  8959 ;;  s               2    8[COMRAM] PTR const unsigned char 
  8960 ;;		 -> dbuf(80), 
  8961 ;;  d               2    6[COMRAM] PTR unsigned char 
  8962 ;;		 -> dbuf(80), 
  8963 ;;  tmp             1   10[COMRAM] unsigned char 
  8964 ;; Return value:  Size  Location     Type
  8965 ;;                  2    0[COMRAM] PTR void 
  8966 ;; Registers used:
  8967 ;;		wreg, fsr2l, fsr2h, status,2, status,0
  8968 ;; Tracked objects:
  8969 ;;		On entry : 0/0
  8970 ;;		On exit  : 0/0
  8971 ;;		Unchanged: 0/0
  8972 ;; Data sizes:     COMRAM   BANK0   BANK1   BANK2   BANK3   BANK4   BANK5   BANK6   BANK7   BANK8   BANK9  BANK10  BANK1
      +1  BANK12  BANK13  BANK14  BANK15  BANK16  BANK17  BANK18  BANK19  BANK20  BANK21  BANK22  BANK23  BANK24  BANK25  BANK2
      +6  BANK27  BANK28  BANK29  BANK30  BANK31
  8973 ;;      Params:         6       0       0       0       0       0       0       0       0       0       0       0       
      +0       0       0       0       0       0       0       0       0       0       0       0       0       0       0       
      +0       0       0       0       0       0
  8974 ;;      Locals:         5       0       0       0       0       0       0       0       0       0       0       0       
      +0       0       0       0       0       0       0       0       0       0       0       0       0       0       0       
      +0       0       0       0       0       0
  8975 ;;      Temps:          0       0       0       0       0       0       0       0       0       0       0       0       
      +0       0       0       0       0       0       0       0       0       0       0       0       0       0       0       
      +0       0       0       0       0       0
  8976 ;;      Totals:        11       0       0       0       0       0       0       0       0       0       0       0       
      +0       0       0       0       0       0       0       0       0       0       0       0       0       0       0       
      +0       0       0       0       0       0
  8977 ;;Total ram usage:       11 bytes
  8978 ;; Hardware stack levels used: 1
  8979 ;; This function calls:
  8980 ;;		Nothing
  8981 ;; This function is called by:
  8982 ;;		_efgtoa
  8983 ;; This function uses a non-reentrant model
  8984 ;;
  8985                           
  8986                           	psect	text8
  8987   0071EA                     __ptext8:
  8988                           	callstack 0
  8989   0071EA                     _memcpy:
  8990                           	callstack 26
  8991   0071EA  C003  F009         	movff	memcpy@s1,memcpy@s
  8992   0071EE  C004  F00A         	movff	memcpy@s1+1,memcpy@s+1
  8993   0071F2  C001  F007         	movff	memcpy@d1,memcpy@d
  8994   0071F6  C002  F008         	movff	memcpy@d1+1,memcpy@d+1
  8995   0071FA  EF14  F039         	goto	l4149
  8996   0071FE                     l4141:
  8997   0071FE  0060  F027  FFD9   	movff	memcpy@s,fsr2l
  8998   007204  0060  F02B  FFDA   	movff	memcpy@s+1,fsr2h
  8999   00720A  50DF               	movf	indf2,w,c
  9000   00720C  6E0B               	movwf	memcpy@tmp^0,c
  9001   00720E  4A09               	infsnz	memcpy@s^0,f,c
  9002   007210  2A0A               	incf	(memcpy@s+1)^0,f,c
  9003   007212  0060  F01F  FFD9   	movff	memcpy@d,fsr2l
  9004   007218  0060  F023  FFDA   	movff	memcpy@d+1,fsr2h
  9005   00721E  0060  F02F  FFDF   	movff	memcpy@tmp,indf2
  9006   007224  4A07               	infsnz	memcpy@d^0,f,c
  9007   007226  2A08               	incf	(memcpy@d+1)^0,f,c
  9008   007228                     l4149:
  9009   007228  0605               	decf	memcpy@n^0,f,c
  9010   00722A  A0D8               	btfss	status,0,c
  9011   00722C  0606               	decf	(memcpy@n+1)^0,f,c
  9012   00722E  2805               	incf	memcpy@n^0,w,c
  9013   007230  E106               	bnz	u4111
  9014   007232  2806               	incf	(memcpy@n+1)^0,w,c
  9015   007234  A4D8               	btfss	status,2,c
  9016   007236  EF1F  F039         	goto	u4111
  9017   00723A  EF21  F039         	goto	u4110
  9018   00723E                     u4111:
  9019   00723E  EFFF  F038         	goto	l4141
  9020   007242                     u4110:
  9021   007242  0012               	return		;funcret
  9022   007244                     __end_of_memcpy:
  9023                           	callstack 0
  9024                           
  9025 ;; *************** function _labs *****************
  9026 ;; Defined at:
  9027 ;;		line 1 in file "C:\Program Files\Microchip\xc8\v3.00\pic\sources\c99\common\labs.c"
  9028 ;; Parameters:    Size  Location     Type
  9029 ;;  a               4    0[COMRAM] long 
  9030 ;; Auto vars:     Size  Location     Type
  9031 ;;		None
  9032 ;; Return value:  Size  Location     Type
  9033 ;;                  4    0[COMRAM] long 
  9034 ;; Registers used:
  9035 ;;		wreg, status,2, status,0
  9036 ;; Tracked objects:
  9037 ;;		On entry : 0/0
  9038 ;;		On exit  : 0/0
  9039 ;;		Unchanged: 0/0
  9040 ;; Data sizes:     COMRAM   BANK0   BANK1   BANK2   BANK3   BANK4   BANK5   BANK6   BANK7   BANK8   BANK9  BANK10  BANK1
      +1  BANK12  BANK13  BANK14  BANK15  BANK16  BANK17  BANK18  BANK19  BANK20  BANK21  BANK22  BANK23  BANK24  BANK25  BANK2
      +6  BANK27  BANK28  BANK29  BANK30  BANK31
  9041 ;;      Params:         4       0       0       0       0       0       0       0       0       0       0       0       
      +0       0       0       0       0       0       0       0       0       0       0       0       0       0       0       
      +0       0       0       0       0       0
  9042 ;;      Locals:         0       0       0       0       0       0       0       0       0       0       0       0       
      +0       0       0       0       0       0       0       0       0       0       0       0       0       0       0       
      +0       0       0       0       0       0
  9043 ;;      Temps:          4       0       0       0       0       0       0       0       0       0       0       0       
      +0       0       0       0       0       0       0       0       0       0       0       0       0       0       0       
      +0       0       0       0       0       0
  9044 ;;      Totals:         8       0       0       0       0       0       0       0       0       0       0       0       
      +0       0       0       0       0       0       0       0       0       0       0       0       0       0       0       
      +0       0       0       0       0       0
  9045 ;;Total ram usage:        8 bytes
  9046 ;; Hardware stack levels used: 1
  9047 ;; This function calls:
  9048 ;;		Nothing
  9049 ;; This function is called by:
  9050 ;;		_efgtoa
  9051 ;; This function uses a non-reentrant model
  9052 ;;
  9053                           
  9054                           	psect	text9
  9055   007244                     __ptext9:
  9056                           	callstack 0
  9057   007244                     _labs:
  9058                           	callstack 26
  9059   007244  BE04               	btfsc	(labs@a+3)^0,7,c
  9060   007246  EF27  F039         	goto	u4001
  9061   00724A  EF29  F039         	goto	u4000
  9062   00724E                     u4001:
  9063   00724E  EF33  F039         	goto	l4107
  9064   007252                     u4000:
  9065   007252  C001  F001         	movff	labs@a,?_labs
  9066   007256  C002  F002         	movff	labs@a+1,?_labs+1
  9067   00725A  C003  F003         	movff	labs@a+2,?_labs+2
  9068   00725E  C004  F004         	movff	labs@a+3,?_labs+3
  9069   007262  EF4C  F039         	goto	l1087
  9070   007266                     l4107:
  9071   007266  C001  F005         	movff	labs@a,??_labs
  9072   00726A  C002  F006         	movff	labs@a+1,??_labs+1
  9073   00726E  C003  F007         	movff	labs@a+2,??_labs+2
  9074   007272  C004  F008         	movff	labs@a+3,??_labs+3
  9075   007276  1E05               	comf	??_labs^0,f,c
  9076   007278  1E06               	comf	(??_labs+1)^0,f,c
  9077   00727A  1E07               	comf	(??_labs+2)^0,f,c
  9078   00727C  1E08               	comf	(??_labs+3)^0,f,c
  9079   00727E  2A05               	incf	??_labs^0,f,c
  9080   007280  0E00               	movlw	0
  9081   007282  2206               	addwfc	(??_labs+1)^0,f,c
  9082   007284  2207               	addwfc	(??_labs+2)^0,f,c
  9083   007286  2208               	addwfc	(??_labs+3)^0,f,c
  9084   007288  C005  F001         	movff	??_labs,?_labs
  9085   00728C  C006  F002         	movff	??_labs+1,?_labs+1
  9086   007290  C007  F003         	movff	??_labs+2,?_labs+2
  9087   007294  C008  F004         	movff	??_labs+3,?_labs+3
  9088   007298                     l1087:
  9089   007298  0012               	return		;funcret
  9090   00729A                     __end_of_labs:
  9091                           	callstack 0
  9092                           
  9093 ;; *************** function _floorf *****************
  9094 ;; Defined at:
  9095 ;;		line 3 in file "C:\Program Files\Microchip\xc8\v3.00\pic\sources\c99\common\floorf.c"
  9096 ;; Parameters:    Size  Location     Type
  9097 ;;  x               4   25[COMRAM] float 
  9098 ;; Auto vars:     Size  Location     Type
  9099 ;;  u               4   41[COMRAM] struct .
  9100 ;;  m               4   35[COMRAM] unsigned long 
  9101 ;;  e               2   39[COMRAM] int 
  9102 ;; Return value:  Size  Location     Type
  9103 ;;                  4   25[COMRAM] float 
  9104 ;; Registers used:
  9105 ;;		wreg, status,2, status,0
  9106 ;; Tracked objects:
  9107 ;;		On entry : 0/0
  9108 ;;		On exit  : 0/0
  9109 ;;		Unchanged: 0/0
  9110 ;; Data sizes:     COMRAM   BANK0   BANK1   BANK2   BANK3   BANK4   BANK5   BANK6   BANK7   BANK8   BANK9  BANK10  BANK1
      +1  BANK12  BANK13  BANK14  BANK15  BANK16  BANK17  BANK18  BANK19  BANK20  BANK21  BANK22  BANK23  BANK24  BANK25  BANK2
      +6  BANK27  BANK28  BANK29  BANK30  BANK31
  9111 ;;      Params:         4       0       0       0       0       0       0       0       0       0       0       0       
      +0       0       0       0       0       0       0       0       0       0       0       0       0       0       0       
      +0       0       0       0       0       0
  9112 ;;      Locals:        10       0       0       0       0       0       0       0       0       0       0       0       
      +0       0       0       0       0       0       0       0       0       0       0       0       0       0       0       
      +0       0       0       0       0       0
  9113 ;;      Temps:          6       0       0       0       0       0       0       0       0       0       0       0       
      +0       0       0       0       0       0       0       0       0       0       0       0       0       0       0       
      +0       0       0       0       0       0
  9114 ;;      Totals:        20       0       0       0       0       0       0       0       0       0       0       0       
      +0       0       0       0       0       0       0       0       0       0       0       0       0       0       0       
      +0       0       0       0       0       0
  9115 ;;Total ram usage:       20 bytes
  9116 ;; Hardware stack levels used: 1
  9117 ;; This function calls:
  9118 ;;		Nothing
  9119 ;; This function is called by:
  9120 ;;		_efgtoa
  9121 ;; This function uses a non-reentrant model
  9122 ;;
  9123                           
  9124                           	psect	text10
  9125   0063E6                     __ptext10:
  9126                           	callstack 0
  9127   0063E6                     _floorf:
  9128                           	callstack 26
  9129   0063E6  C094  F02A         	movff	floorf@F521,floorf@u
  9130   0063EA  C095  F02B         	movff	floorf@F521+1,floorf@u+1
  9131   0063EE  C096  F02C         	movff	floorf@F521+2,floorf@u+2
  9132   0063F2  C097  F02D         	movff	floorf@F521+3,floorf@u+3
  9133   0063F6  C01A  F02A         	movff	floorf@x,floorf@u
  9134   0063FA  C01B  F02B         	movff	floorf@x+1,floorf@u+1
  9135   0063FE  C01C  F02C         	movff	floorf@x+2,floorf@u+2
  9136   006402  C01D  F02D         	movff	floorf@x+3,floorf@u+3
  9137   006406  0E81               	movlw	129
  9138   006408  6E1E               	movwf	??_floorf^0,c
  9139   00640A  0EFF               	movlw	255
  9140   00640C  6E1F               	movwf	(??_floorf+1)^0,c
  9141   00640E  C02A  F020         	movff	floorf@u,??_floorf+2
  9142   006412  C02B  F021         	movff	floorf@u+1,??_floorf+3
  9143   006416  C02C  F022         	movff	floorf@u+2,??_floorf+4
  9144   00641A  C02D  F023         	movff	floorf@u+3,??_floorf+5
  9145   00641E  0E18               	movlw	24
  9146   006420  EF17  F032         	goto	u4010
  9147   006424                     u4015:
  9148   006424  90D8               	bcf	status,0,c
  9149   006426  3223               	rrcf	(??_floorf+5)^0,f,c
  9150   006428  3222               	rrcf	(??_floorf+4)^0,f,c
  9151   00642A  3221               	rrcf	(??_floorf+3)^0,f,c
  9152   00642C  3220               	rrcf	(??_floorf+2)^0,f,c
  9153   00642E                     u4010:
  9154   00642E  2EE8               	decfsz	wreg,f,c
  9155   006430  EF12  F032         	goto	u4015
  9156   006434  5020               	movf	(??_floorf+2)^0,w,c
  9157   006436  241E               	addwf	??_floorf^0,w,c
  9158   006438  6E28               	movwf	floorf@e^0,c
  9159   00643A  0E00               	movlw	0
  9160   00643C  201F               	addwfc	(??_floorf+1)^0,w,c
  9161   00643E  6E29               	movwf	(floorf@e+1)^0,c
  9162   006440  BE29               	btfsc	(floorf@e+1)^0,7,c
  9163   006442  EF2C  F032         	goto	u4021
  9164   006446  5029               	movf	(floorf@e+1)^0,w,c
  9165   006448  E109               	bnz	u4020
  9166   00644A  0E17               	movlw	23
  9167   00644C  5C28               	subwf	floorf@e^0,w,c
  9168   00644E  A0D8               	btfss	status,0,c
  9169   006450  EF2C  F032         	goto	u4021
  9170   006454  EF2E  F032         	goto	u4020
  9171   006458                     u4021:
  9172   006458  EF38  F032         	goto	l4117
  9173   00645C                     u4020:
  9174   00645C                     l4115:
  9175   00645C  C01A  F01A         	movff	floorf@x,?_floorf
  9176   006460  C01B  F01B         	movff	floorf@x+1,?_floorf+1
  9177   006464  C01C  F01C         	movff	floorf@x+2,?_floorf+2
  9178   006468  C01D  F01D         	movff	floorf@x+3,?_floorf+3
  9179   00646C  EFFB  F032         	goto	l1073
  9180   006470                     l4117:
  9181   006470  BE29               	btfsc	(floorf@e+1)^0,7,c
  9182   006472  EF3D  F032         	goto	u4031
  9183   006476  EF3F  F032         	goto	u4030
  9184   00647A                     u4031:
  9185   00647A  EFAF  F032         	goto	l4127
  9186   00647E                     u4030:
  9187   00647E  C028  F01E         	movff	floorf@e,??_floorf
  9188   006482  0EFF               	movlw	255
  9189   006484  6E1F               	movwf	(??_floorf+1)^0,c
  9190   006486  0EFF               	movlw	255
  9191   006488  6E20               	movwf	(??_floorf+2)^0,c
  9192   00648A  0E7F               	movlw	127
  9193   00648C  6E21               	movwf	(??_floorf+3)^0,c
  9194   00648E  0E00               	movlw	0
  9195   006490  6E22               	movwf	(??_floorf+4)^0,c
  9196   006492                     u4045:
  9197   006492  661E               	tstfsz	??_floorf^0,c
  9198   006494  EF4E  F032         	goto	u4046
  9199   006498  EF56  F032         	goto	u4047
  9200   00649C                     u4046:
  9201   00649C  3422               	rlcf	(??_floorf+4)^0,w,c
  9202   00649E  3222               	rrcf	(??_floorf+4)^0,f,c
  9203   0064A0  3221               	rrcf	(??_floorf+3)^0,f,c
  9204   0064A2  3220               	rrcf	(??_floorf+2)^0,f,c
  9205   0064A4  321F               	rrcf	(??_floorf+1)^0,f,c
  9206   0064A6  2E1E               	decfsz	??_floorf^0,f,c
  9207   0064A8  EF49  F032         	goto	u4045
  9208   0064AC                     u4047:
  9209   0064AC  C01F  F024         	movff	??_floorf+1,floorf@m
  9210   0064B0  C020  F025         	movff	??_floorf+2,floorf@m+1
  9211   0064B4  C021  F026         	movff	??_floorf+3,floorf@m+2
  9212   0064B8  C022  F027         	movff	??_floorf+4,floorf@m+3
  9213   0064BC  5024               	movf	floorf@m^0,w,c
  9214   0064BE  142A               	andwf	floorf@u^0,w,c
  9215   0064C0  6E1E               	movwf	??_floorf^0,c
  9216   0064C2  5025               	movf	(floorf@m+1)^0,w,c
  9217   0064C4  142B               	andwf	(floorf@u+1)^0,w,c
  9218   0064C6  6E1F               	movwf	(??_floorf+1)^0,c
  9219   0064C8  5026               	movf	(floorf@m+2)^0,w,c
  9220   0064CA  142C               	andwf	(floorf@u+2)^0,w,c
  9221   0064CC  6E20               	movwf	(??_floorf+2)^0,c
  9222   0064CE  5027               	movf	(floorf@m+3)^0,w,c
  9223   0064D0  142D               	andwf	(floorf@u+3)^0,w,c
  9224   0064D2  6E21               	movwf	(??_floorf+3)^0,c
  9225   0064D4  501E               	movf	??_floorf^0,w,c
  9226   0064D6  101F               	iorwf	(??_floorf+1)^0,w,c
  9227   0064D8  1020               	iorwf	(??_floorf+2)^0,w,c
  9228   0064DA  1021               	iorwf	(??_floorf+3)^0,w,c
  9229   0064DC  A4D8               	btfss	status,2,c
  9230   0064DE  EF73  F032         	goto	u4051
  9231   0064E2  EF75  F032         	goto	u4050
  9232   0064E6                     u4051:
  9233   0064E6  EF77  F032         	goto	l4123
  9234   0064EA                     u4050:
  9235   0064EA  EF2E  F032         	goto	l4115
  9236   0064EE                     l4123:
  9237   0064EE  C02A  F01E         	movff	floorf@u,??_floorf
  9238   0064F2  C02B  F01F         	movff	floorf@u+1,??_floorf+1
  9239   0064F6  C02C  F020         	movff	floorf@u+2,??_floorf+2
  9240   0064FA  C02D  F021         	movff	floorf@u+3,??_floorf+3
  9241   0064FE  0E20               	movlw	32
  9242   006500  EF87  F032         	goto	u4060
  9243   006504                     u4065:
  9244   006504  90D8               	bcf	status,0,c
  9245   006506  3221               	rrcf	(??_floorf+3)^0,f,c
  9246   006508  3220               	rrcf	(??_floorf+2)^0,f,c
  9247   00650A  321F               	rrcf	(??_floorf+1)^0,f,c
  9248   00650C  321E               	rrcf	??_floorf^0,f,c
  9249   00650E                     u4060:
  9250   00650E  2EE8               	decfsz	wreg,f,c
  9251   006510  EF82  F032         	goto	u4065
  9252   006514  501E               	movf	??_floorf^0,w,c
  9253   006516  101F               	iorwf	(??_floorf+1)^0,w,c
  9254   006518  1020               	iorwf	(??_floorf+2)^0,w,c
  9255   00651A  1021               	iorwf	(??_floorf+3)^0,w,c
  9256   00651C  B4D8               	btfsc	status,2,c
  9257   00651E  EF93  F032         	goto	u4071
  9258   006522  EF95  F032         	goto	u4070
  9259   006526                     u4071:
  9260   006526  EF9D  F032         	goto	l1076
  9261   00652A                     u4070:
  9262   00652A  5024               	movf	floorf@m^0,w,c
  9263   00652C  262A               	addwf	floorf@u^0,f,c
  9264   00652E  5025               	movf	(floorf@m+1)^0,w,c
  9265   006530  222B               	addwfc	(floorf@u+1)^0,f,c
  9266   006532  5026               	movf	(floorf@m+2)^0,w,c
  9267   006534  222C               	addwfc	(floorf@u+2)^0,f,c
  9268   006536  5027               	movf	(floorf@m+3)^0,w,c
  9269   006538  222D               	addwfc	(floorf@u+3)^0,f,c
  9270   00653A                     l1076:
  9271   00653A  1C24               	comf	floorf@m^0,w,c
  9272   00653C  6E1E               	movwf	??_floorf^0,c
  9273   00653E  1C25               	comf	(floorf@m+1)^0,w,c
  9274   006540  6E1F               	movwf	(??_floorf+1)^0,c
  9275   006542  1C26               	comf	(floorf@m+2)^0,w,c
  9276   006544  6E20               	movwf	(??_floorf+2)^0,c
  9277   006546  1C27               	comf	(floorf@m+3)^0,w,c
  9278   006548  6E21               	movwf	(??_floorf+3)^0,c
  9279   00654A  501E               	movf	??_floorf^0,w,c
  9280   00654C  162A               	andwf	floorf@u^0,f,c
  9281   00654E  501F               	movf	(??_floorf+1)^0,w,c
  9282   006550  162B               	andwf	(floorf@u+1)^0,f,c
  9283   006552  5020               	movf	(??_floorf+2)^0,w,c
  9284   006554  162C               	andwf	(floorf@u+2)^0,f,c
  9285   006556  5021               	movf	(??_floorf+3)^0,w,c
  9286   006558  162D               	andwf	(floorf@u+3)^0,f,c
  9287   00655A  EFF3  F032         	goto	l4135
  9288   00655E                     l4127:
  9289   00655E  C02A  F01E         	movff	floorf@u,??_floorf
  9290   006562  C02B  F01F         	movff	floorf@u+1,??_floorf+1
  9291   006566  C02C  F020         	movff	floorf@u+2,??_floorf+2
  9292   00656A  C02D  F021         	movff	floorf@u+3,??_floorf+3
  9293   00656E  0E20               	movlw	32
  9294   006570  EFBF  F032         	goto	u4080
  9295   006574                     u4085:
  9296   006574  90D8               	bcf	status,0,c
  9297   006576  3221               	rrcf	(??_floorf+3)^0,f,c
  9298   006578  3220               	rrcf	(??_floorf+2)^0,f,c
  9299   00657A  321F               	rrcf	(??_floorf+1)^0,f,c
  9300   00657C  321E               	rrcf	??_floorf^0,f,c
  9301   00657E                     u4080:
  9302   00657E  2EE8               	decfsz	wreg,f,c
  9303   006580  EFBA  F032         	goto	u4085
  9304   006584  501E               	movf	??_floorf^0,w,c
  9305   006586  101F               	iorwf	(??_floorf+1)^0,w,c
  9306   006588  1020               	iorwf	(??_floorf+2)^0,w,c
  9307   00658A  1021               	iorwf	(??_floorf+3)^0,w,c
  9308   00658C  A4D8               	btfss	status,2,c
  9309   00658E  EFCB  F032         	goto	u4091
  9310   006592  EFCD  F032         	goto	u4090
  9311   006596                     u4091:
  9312   006596  EFD7  F032         	goto	l4131
  9313   00659A                     u4090:
  9314   00659A  0E00               	movlw	0
  9315   00659C  6E2A               	movwf	floorf@u^0,c
  9316   00659E  0E00               	movlw	0
  9317   0065A0  6E2B               	movwf	(floorf@u+1)^0,c
  9318   0065A2  0E00               	movlw	0
  9319   0065A4  6E2C               	movwf	(floorf@u+2)^0,c
  9320   0065A6  0E00               	movlw	0
  9321   0065A8  6E2D               	movwf	(floorf@u+3)^0,c
  9322   0065AA  EFF3  F032         	goto	l4135
  9323   0065AE                     l4131:
  9324   0065AE  90D8               	bcf	status,0,c
  9325   0065B0  342A               	rlcf	floorf@u^0,w,c
  9326   0065B2  6E1E               	movwf	??_floorf^0,c
  9327   0065B4  342B               	rlcf	(floorf@u+1)^0,w,c
  9328   0065B6  6E1F               	movwf	(??_floorf+1)^0,c
  9329   0065B8  342C               	rlcf	(floorf@u+2)^0,w,c
  9330   0065BA  6E20               	movwf	(??_floorf+2)^0,c
  9331   0065BC  342D               	rlcf	(floorf@u+3)^0,w,c
  9332   0065BE  6E21               	movwf	(??_floorf+3)^0,c
  9333   0065C0  501E               	movf	??_floorf^0,w,c
  9334   0065C2  101F               	iorwf	(??_floorf+1)^0,w,c
  9335   0065C4  1020               	iorwf	(??_floorf+2)^0,w,c
  9336   0065C6  1021               	iorwf	(??_floorf+3)^0,w,c
  9337   0065C8  B4D8               	btfsc	status,2,c
  9338   0065CA  EFE9  F032         	goto	u4101
  9339   0065CE  EFEB  F032         	goto	u4100
  9340   0065D2                     u4101:
  9341   0065D2  EFF3  F032         	goto	l4135
  9342   0065D6                     u4100:
  9343   0065D6  0E00               	movlw	0
  9344   0065D8  6E2A               	movwf	floorf@u^0,c
  9345   0065DA  0E00               	movlw	0
  9346   0065DC  6E2B               	movwf	(floorf@u+1)^0,c
  9347   0065DE  0E80               	movlw	128
  9348   0065E0  6E2C               	movwf	(floorf@u+2)^0,c
  9349   0065E2  0EBF               	movlw	191
  9350   0065E4  6E2D               	movwf	(floorf@u+3)^0,c
  9351   0065E6                     l4135:
  9352   0065E6  C02A  F01A         	movff	floorf@u,?_floorf
  9353   0065EA  C02B  F01B         	movff	floorf@u+1,?_floorf+1
  9354   0065EE  C02C  F01C         	movff	floorf@u+2,?_floorf+2
  9355   0065F2  C02D  F01D         	movff	floorf@u+3,?_floorf+3
  9356   0065F6                     l1073:
  9357   0065F6  0012               	return		;funcret
  9358   0065F8                     __end_of_floorf:
  9359                           	callstack 0
  9360                           
  9361 ;; *************** function ___fpclassifyf *****************
  9362 ;; Defined at:
  9363 ;;		line 4 in file "C:\Program Files\Microchip\xc8\v3.00\pic\sources\c99\common\__fpclassifyf.c"
  9364 ;; Parameters:    Size  Location     Type
  9365 ;;  x               4    0[COMRAM] float 
  9366 ;; Auto vars:     Size  Location     Type
  9367 ;;  u               4   10[COMRAM] struct .
  9368 ;;  e               2    8[COMRAM] int 
  9369 ;; Return value:  Size  Location     Type
  9370 ;;                  2    0[COMRAM] int 
  9371 ;; Registers used:
  9372 ;;		wreg, status,2, status,0
  9373 ;; Tracked objects:
  9374 ;;		On entry : 0/0
  9375 ;;		On exit  : 0/0
  9376 ;;		Unchanged: 0/0
  9377 ;; Data sizes:     COMRAM   BANK0   BANK1   BANK2   BANK3   BANK4   BANK5   BANK6   BANK7   BANK8   BANK9  BANK10  BANK1
      +1  BANK12  BANK13  BANK14  BANK15  BANK16  BANK17  BANK18  BANK19  BANK20  BANK21  BANK22  BANK23  BANK24  BANK25  BANK2
      +6  BANK27  BANK28  BANK29  BANK30  BANK31
  9378 ;;      Params:         4       0       0       0       0       0       0       0       0       0       0       0       
      +0       0       0       0       0       0       0       0       0       0       0       0       0       0       0       
      +0       0       0       0       0       0
  9379 ;;      Locals:         6       0       0       0       0       0       0       0       0       0       0       0       
      +0       0       0       0       0       0       0       0       0       0       0       0       0       0       0       
      +0       0       0       0       0       0
  9380 ;;      Temps:          4       0       0       0       0       0       0       0       0       0       0       0       
      +0       0       0       0       0       0       0       0       0       0       0       0       0       0       0       
      +0       0       0       0       0       0
  9381 ;;      Totals:        14       0       0       0       0       0       0       0       0       0       0       0       
      +0       0       0       0       0       0       0       0       0       0       0       0       0       0       0       
      +0       0       0       0       0       0
  9382 ;;Total ram usage:       14 bytes
  9383 ;; Hardware stack levels used: 1
  9384 ;; This function calls:
  9385 ;;		Nothing
  9386 ;; This function is called by:
  9387 ;;		_efgtoa
  9388 ;; This function uses a non-reentrant model
  9389 ;;
  9390                           
  9391                           	psect	text11
  9392   006B30                     __ptext11:
  9393                           	callstack 0
  9394   006B30                     ___fpclassifyf:
  9395                           	callstack 26
  9396   006B30  C098  F00B         	movff	___fpclassifyf@F465,___fpclassifyf@u
  9397   006B34  C099  F00C         	movff	___fpclassifyf@F465+1,___fpclassifyf@u+1
  9398   006B38  C09A  F00D         	movff	___fpclassifyf@F465+2,___fpclassifyf@u+2
  9399   006B3C  C09B  F00E         	movff	___fpclassifyf@F465+3,___fpclassifyf@u+3
  9400   006B40  C001  F00B         	movff	___fpclassifyf@x,___fpclassifyf@u
  9401   006B44  C002  F00C         	movff	___fpclassifyf@x+1,___fpclassifyf@u+1
  9402   006B48  C003  F00D         	movff	___fpclassifyf@x+2,___fpclassifyf@u+2
  9403   006B4C  C004  F00E         	movff	___fpclassifyf@x+3,___fpclassifyf@u+3
  9404   006B50  C00B  F005         	movff	___fpclassifyf@u,??___fpclassifyf
  9405   006B54  C00C  F006         	movff	___fpclassifyf@u+1,??___fpclassifyf+1
  9406   006B58  C00D  F007         	movff	___fpclassifyf@u+2,??___fpclassifyf+2
  9407   006B5C  C00E  F008         	movff	___fpclassifyf@u+3,??___fpclassifyf+3
  9408   006B60  0E18               	movlw	24
  9409   006B62  EFB8  F035         	goto	u3920
  9410   006B66                     u3925:
  9411   006B66  90D8               	bcf	status,0,c
  9412   006B68  3208               	rrcf	(??___fpclassifyf+3)^0,f,c
  9413   006B6A  3207               	rrcf	(??___fpclassifyf+2)^0,f,c
  9414   006B6C  3206               	rrcf	(??___fpclassifyf+1)^0,f,c
  9415   006B6E  3205               	rrcf	??___fpclassifyf^0,f,c
  9416   006B70                     u3920:
  9417   006B70  2EE8               	decfsz	wreg,f,c
  9418   006B72  EFB3  F035         	goto	u3925
  9419   006B76  5005               	movf	??___fpclassifyf^0,w,c
  9420   006B78  6E09               	movwf	___fpclassifyf@e^0,c
  9421   006B7A  6A0A               	clrf	(___fpclassifyf@e+1)^0,c
  9422   006B7C  5009               	movf	___fpclassifyf@e^0,w,c
  9423   006B7E  100A               	iorwf	(___fpclassifyf@e+1)^0,w,c
  9424   006B80  A4D8               	btfss	status,2,c
  9425   006B82  EFC5  F035         	goto	u3931
  9426   006B86  EFC7  F035         	goto	u3930
  9427   006B8A                     u3931:
  9428   006B8A  EFE7  F035         	goto	l4089
  9429   006B8E                     u3930:
  9430   006B8E  90D8               	bcf	status,0,c
  9431   006B90  340B               	rlcf	___fpclassifyf@u^0,w,c
  9432   006B92  6E05               	movwf	??___fpclassifyf^0,c
  9433   006B94  340C               	rlcf	(___fpclassifyf@u+1)^0,w,c
  9434   006B96  6E06               	movwf	(??___fpclassifyf+1)^0,c
  9435   006B98  340D               	rlcf	(___fpclassifyf@u+2)^0,w,c
  9436   006B9A  6E07               	movwf	(??___fpclassifyf+2)^0,c
  9437   006B9C  340E               	rlcf	(___fpclassifyf@u+3)^0,w,c
  9438   006B9E  6E08               	movwf	(??___fpclassifyf+3)^0,c
  9439   006BA0  5005               	movf	??___fpclassifyf^0,w,c
  9440   006BA2  1006               	iorwf	(??___fpclassifyf+1)^0,w,c
  9441   006BA4  1007               	iorwf	(??___fpclassifyf+2)^0,w,c
  9442   006BA6  1008               	iorwf	(??___fpclassifyf+3)^0,w,c
  9443   006BA8  A4D8               	btfss	status,2,c
  9444   006BAA  EFD9  F035         	goto	u3941
  9445   006BAE  EFDB  F035         	goto	u3940
  9446   006BB2                     u3941:
  9447   006BB2  EFE1  F035         	goto	l4085
  9448   006BB6                     u3940:
  9449   006BB6  0E00               	movlw	0
  9450   006BB8  6E02               	movwf	(?___fpclassifyf+1)^0,c
  9451   006BBA  0E02               	movlw	2
  9452   006BBC  6E01               	movwf	?___fpclassifyf^0,c
  9453   006BBE  EF16  F036         	goto	l1059
  9454   006BC2                     l4085:
  9455   006BC2  0E00               	movlw	0
  9456   006BC4  6E02               	movwf	(?___fpclassifyf+1)^0,c
  9457   006BC6  0E03               	movlw	3
  9458   006BC8  6E01               	movwf	?___fpclassifyf^0,c
  9459   006BCA  EF16  F036         	goto	l1059
  9460   006BCE                     l4089:
  9461   006BCE  2809               	incf	___fpclassifyf@e^0,w,c
  9462   006BD0  100A               	iorwf	(___fpclassifyf@e+1)^0,w,c
  9463   006BD2  A4D8               	btfss	status,2,c
  9464   006BD4  EFEE  F035         	goto	u3951
  9465   006BD8  EFF0  F035         	goto	u3950
  9466   006BDC                     u3951:
  9467   006BDC  EF12  F036         	goto	l4095
  9468   006BE0                     u3950:
  9469   006BE0  C00B  F005         	movff	___fpclassifyf@u,??___fpclassifyf
  9470   006BE4  C00C  F006         	movff	___fpclassifyf@u+1,??___fpclassifyf+1
  9471   006BE8  C00D  F007         	movff	___fpclassifyf@u+2,??___fpclassifyf+2
  9472   006BEC  C00E  F008         	movff	___fpclassifyf@u+3,??___fpclassifyf+3
  9473   006BF0  0E09               	movlw	9
  9474   006BF2                     u3965:
  9475   006BF2  90D8               	bcf	status,0,c
  9476   006BF4  3605               	rlcf	??___fpclassifyf^0,f,c
  9477   006BF6  3606               	rlcf	(??___fpclassifyf+1)^0,f,c
  9478   006BF8  3607               	rlcf	(??___fpclassifyf+2)^0,f,c
  9479   006BFA  3608               	rlcf	(??___fpclassifyf+3)^0,f,c
  9480   006BFC  2EE8               	decfsz	wreg,f,c
  9481   006BFE  EFF9  F035         	goto	u3965
  9482   006C02  5005               	movf	??___fpclassifyf^0,w,c
  9483   006C04  1006               	iorwf	(??___fpclassifyf+1)^0,w,c
  9484   006C06  1007               	iorwf	(??___fpclassifyf+2)^0,w,c
  9485   006C08  1008               	iorwf	(??___fpclassifyf+3)^0,w,c
  9486   006C0A  B4D8               	btfsc	status,2,c
  9487   006C0C  EF0A  F036         	goto	u3971
  9488   006C10  EF0D  F036         	goto	u3970
  9489   006C14                     u3971:
  9490   006C14  0E01               	movlw	1
  9491   006C16  EF0E  F036         	goto	u3980
  9492   006C1A                     u3970:
  9493   006C1A  0E00               	movlw	0
  9494   006C1C                     u3980:
  9495   006C1C  6E01               	movwf	?___fpclassifyf^0,c
  9496   006C1E  6A02               	clrf	(?___fpclassifyf+1)^0,c
  9497   006C20  EF16  F036         	goto	l1059
  9498   006C24                     l4095:
  9499   006C24  0E00               	movlw	0
  9500   006C26  6E02               	movwf	(?___fpclassifyf+1)^0,c
  9501   006C28  0E04               	movlw	4
  9502   006C2A  6E01               	movwf	?___fpclassifyf^0,c
  9503   006C2C                     l1059:
  9504   006C2C  0012               	return		;funcret
  9505   006C2E                     __end_of___fpclassifyf:
  9506                           	callstack 0
  9507                           
  9508 ;; *************** function ___fltol *****************
  9509 ;; Defined at:
  9510 ;;		line 43 in file "C:\Program Files\Microchip\xc8\v3.00\pic\sources\c99\common\fltol.c"
  9511 ;; Parameters:    Size  Location     Type
  9512 ;;  f1              4    0[COMRAM] int 
  9513 ;; Auto vars:     Size  Location     Type
  9514 ;;  exp1            1    9[COMRAM] unsigned char 
  9515 ;;  sign1           1    8[COMRAM] unsigned char 
  9516 ;; Return value:  Size  Location     Type
  9517 ;;                  4    0[COMRAM] long 
  9518 ;; Registers used:
  9519 ;;		wreg, status,2, status,0
  9520 ;; Tracked objects:
  9521 ;;		On entry : 0/0
  9522 ;;		On exit  : 0/0
  9523 ;;		Unchanged: 0/0
  9524 ;; Data sizes:     COMRAM   BANK0   BANK1   BANK2   BANK3   BANK4   BANK5   BANK6   BANK7   BANK8   BANK9  BANK10  BANK1
      +1  BANK12  BANK13  BANK14  BANK15  BANK16  BANK17  BANK18  BANK19  BANK20  BANK21  BANK22  BANK23  BANK24  BANK25  BANK2
      +6  BANK27  BANK28  BANK29  BANK30  BANK31
  9525 ;;      Params:         4       0       0       0       0       0       0       0       0       0       0       0       
      +0       0       0       0       0       0       0       0       0       0       0       0       0       0       0       
      +0       0       0       0       0       0
  9526 ;;      Locals:         2       0       0       0       0       0       0       0       0       0       0       0       
      +0       0       0       0       0       0       0       0       0       0       0       0       0       0       0       
      +0       0       0       0       0       0
  9527 ;;      Temps:          4       0       0       0       0       0       0       0       0       0       0       0       
      +0       0       0       0       0       0       0       0       0       0       0       0       0       0       0       
      +0       0       0       0       0       0
  9528 ;;      Totals:        10       0       0       0       0       0       0       0       0       0       0       0       
      +0       0       0       0       0       0       0       0       0       0       0       0       0       0       0       
      +0       0       0       0       0       0
  9529 ;;Total ram usage:       10 bytes
  9530 ;; Hardware stack levels used: 1
  9531 ;; This function calls:
  9532 ;;		Nothing
  9533 ;; This function is called by:
  9534 ;;		_efgtoa
  9535 ;; This function uses a non-reentrant model
  9536 ;;
  9537                           
  9538                           	psect	text12
  9539   006926                     __ptext12:
  9540                           	callstack 0
  9541   006926                     ___fltol:
  9542                           	callstack 26
  9543   006926  3403               	rlcf	(___fltol@f1+2)^0,w,c
  9544   006928  3404               	rlcf	(___fltol@f1+3)^0,w,c
  9545   00692A  6E0A               	movwf	___fltol@exp1^0,c
  9546   00692C  500A               	movf	___fltol@exp1^0,w,c
  9547   00692E  A4D8               	btfss	status,2,c
  9548   006930  EF9C  F034         	goto	u3801
  9549   006934  EF9E  F034         	goto	u3800
  9550   006938                     u3801:
  9551   006938  EFA8  F034         	goto	l4019
  9552   00693C                     u3800:
  9553   00693C                     l4015:
  9554   00693C  0E00               	movlw	0
  9555   00693E  6E01               	movwf	?___fltol^0,c
  9556   006940  0E00               	movlw	0
  9557   006942  6E02               	movwf	(?___fltol+1)^0,c
  9558   006944  0E00               	movlw	0
  9559   006946  6E03               	movwf	(?___fltol+2)^0,c
  9560   006948  0E00               	movlw	0
  9561   00694A  6E04               	movwf	(?___fltol+3)^0,c
  9562   00694C  EF15  F035         	goto	l524
  9563   006950                     l4019:
  9564   006950  C001  F005         	movff	___fltol@f1,??___fltol
  9565   006954  C002  F006         	movff	___fltol@f1+1,??___fltol+1
  9566   006958  C003  F007         	movff	___fltol@f1+2,??___fltol+2
  9567   00695C  C004  F008         	movff	___fltol@f1+3,??___fltol+3
  9568   006960  0E20               	movlw	32
  9569   006962  EFB8  F034         	goto	u3810
  9570   006966                     u3815:
  9571   006966  90D8               	bcf	status,0,c
  9572   006968  3208               	rrcf	(??___fltol+3)^0,f,c
  9573   00696A  3207               	rrcf	(??___fltol+2)^0,f,c
  9574   00696C  3206               	rrcf	(??___fltol+1)^0,f,c
  9575   00696E  3205               	rrcf	??___fltol^0,f,c
  9576   006970                     u3810:
  9577   006970  2EE8               	decfsz	wreg,f,c
  9578   006972  EFB3  F034         	goto	u3815
  9579   006976  5005               	movf	??___fltol^0,w,c
  9580   006978  6E09               	movwf	___fltol@sign1^0,c
  9581   00697A  8E03               	bsf	(___fltol@f1+2)^0,7,c
  9582   00697C  0EFF               	movlw	255
  9583   00697E  1601               	andwf	___fltol@f1^0,f,c
  9584   006980  0EFF               	movlw	255
  9585   006982  1602               	andwf	(___fltol@f1+1)^0,f,c
  9586   006984  0EFF               	movlw	255
  9587   006986  1603               	andwf	(___fltol@f1+2)^0,f,c
  9588   006988  0E00               	movlw	0
  9589   00698A  1604               	andwf	(___fltol@f1+3)^0,f,c
  9590   00698C  0E96               	movlw	150
  9591   00698E  5E0A               	subwf	___fltol@exp1^0,f,c
  9592   006990  BE0A               	btfsc	___fltol@exp1^0,7,c
  9593   006992  EFCF  F034         	goto	u3820
  9594   006996  EFCD  F034         	goto	u3821
  9595   00699A                     u3821:
  9596   00699A  EFE5  F034         	goto	l4039
  9597   00699E                     u3820:
  9598   00699E  500A               	movf	___fltol@exp1^0,w,c
  9599   0069A0  0A80               	xorlw	128
  9600   0069A2  0F97               	addlw	151
  9601   0069A4  B0D8               	btfsc	status,0,c
  9602   0069A6  EFD7  F034         	goto	u3831
  9603   0069AA  EFD9  F034         	goto	u3830
  9604   0069AE                     u3831:
  9605   0069AE  EFDB  F034         	goto	l4035
  9606   0069B2                     u3830:
  9607   0069B2  EF9E  F034         	goto	l4015
  9608   0069B6                     l4035:
  9609   0069B6  90D8               	bcf	status,0,c
  9610   0069B8  3204               	rrcf	(___fltol@f1+3)^0,f,c
  9611   0069BA  3203               	rrcf	(___fltol@f1+2)^0,f,c
  9612   0069BC  3202               	rrcf	(___fltol@f1+1)^0,f,c
  9613   0069BE  3201               	rrcf	___fltol@f1^0,f,c
  9614   0069C0  3E0A               	incfsz	___fltol@exp1^0,f,c
  9615   0069C2  EFDB  F034         	goto	l4035
  9616   0069C6  EFFD  F034         	goto	l4049
  9617   0069CA                     l4039:
  9618   0069CA  0E1F               	movlw	31
  9619   0069CC  640A               	cpfsgt	___fltol@exp1^0,c
  9620   0069CE  EFEB  F034         	goto	u3841
  9621   0069D2  EFED  F034         	goto	u3840
  9622   0069D6                     u3841:
  9623   0069D6  EFF5  F034         	goto	l4047
  9624   0069DA                     u3840:
  9625   0069DA  EF9E  F034         	goto	l4015
  9626   0069DE                     l4045:
  9627   0069DE  90D8               	bcf	status,0,c
  9628   0069E0  3601               	rlcf	___fltol@f1^0,f,c
  9629   0069E2  3602               	rlcf	(___fltol@f1+1)^0,f,c
  9630   0069E4  3603               	rlcf	(___fltol@f1+2)^0,f,c
  9631   0069E6  3604               	rlcf	(___fltol@f1+3)^0,f,c
  9632   0069E8  060A               	decf	___fltol@exp1^0,f,c
  9633   0069EA                     l4047:
  9634   0069EA  500A               	movf	___fltol@exp1^0,w,c
  9635   0069EC  A4D8               	btfss	status,2,c
  9636   0069EE  EFFB  F034         	goto	u3851
  9637   0069F2  EFFD  F034         	goto	u3850
  9638   0069F6                     u3851:
  9639   0069F6  EFEF  F034         	goto	l4045
  9640   0069FA                     u3850:
  9641   0069FA                     l4049:
  9642   0069FA  5009               	movf	___fltol@sign1^0,w,c
  9643   0069FC  B4D8               	btfsc	status,2,c
  9644   0069FE  EF03  F035         	goto	u3861
  9645   006A02  EF05  F035         	goto	u3860
  9646   006A06                     u3861:
  9647   006A06  EF0D  F035         	goto	l4053
  9648   006A0A                     u3860:
  9649   006A0A  1E04               	comf	(___fltol@f1+3)^0,f,c
  9650   006A0C  1E03               	comf	(___fltol@f1+2)^0,f,c
  9651   006A0E  1E02               	comf	(___fltol@f1+1)^0,f,c
  9652   006A10  6C01               	negf	___fltol@f1^0,c
  9653   006A12  0E00               	movlw	0
  9654   006A14  2202               	addwfc	(___fltol@f1+1)^0,f,c
  9655   006A16  2203               	addwfc	(___fltol@f1+2)^0,f,c
  9656   006A18  2204               	addwfc	(___fltol@f1+3)^0,f,c
  9657   006A1A                     l4053:
  9658   006A1A  C001  F001         	movff	___fltol@f1,?___fltol
  9659   006A1E  C002  F002         	movff	___fltol@f1+1,?___fltol+1
  9660   006A22  C003  F003         	movff	___fltol@f1+2,?___fltol+2
  9661   006A26  C004  F004         	movff	___fltol@f1+3,?___fltol+3
  9662   006A2A                     l524:
  9663   006A2A  0012               	return		;funcret
  9664   006A2C                     __end_of___fltol:
  9665                           	callstack 0
  9666                           
  9667 ;; *************** function ___flsub *****************
  9668 ;; Defined at:
  9669 ;;		line 245 in file "C:\Program Files\Microchip\xc8\v3.00\pic\sources\c99\common\sprcadd.c"
  9670 ;; Parameters:    Size  Location     Type
  9671 ;;  b               4   39[COMRAM] long 
  9672 ;;  a               4   43[COMRAM] long 
  9673 ;; Auto vars:     Size  Location     Type
  9674 ;;		None
  9675 ;; Return value:  Size  Location     Type
  9676 ;;                  4   39[COMRAM] long 
  9677 ;; Registers used:
  9678 ;;		wreg, status,2, status,0, cstack
  9679 ;; Tracked objects:
  9680 ;;		On entry : 0/0
  9681 ;;		On exit  : 0/0
  9682 ;;		Unchanged: 0/0
  9683 ;; Data sizes:     COMRAM   BANK0   BANK1   BANK2   BANK3   BANK4   BANK5   BANK6   BANK7   BANK8   BANK9  BANK10  BANK1
      +1  BANK12  BANK13  BANK14  BANK15  BANK16  BANK17  BANK18  BANK19  BANK20  BANK21  BANK22  BANK23  BANK24  BANK25  BANK2
      +6  BANK27  BANK28  BANK29  BANK30  BANK31
  9684 ;;      Params:         8       0       0       0       0       0       0       0       0       0       0       0       
      +0       0       0       0       0       0       0       0       0       0       0       0       0       0       0       
      +0       0       0       0       0       0
  9685 ;;      Locals:         0       0       0       0       0       0       0       0       0       0       0       0       
      +0       0       0       0       0       0       0       0       0       0       0       0       0       0       0       
      +0       0       0       0       0       0
  9686 ;;      Temps:          0       0       0       0       0       0       0       0       0       0       0       0       
      +0       0       0       0       0       0       0       0       0       0       0       0       0       0       0       
      +0       0       0       0       0       0
  9687 ;;      Totals:         8       0       0       0       0       0       0       0       0       0       0       0       
      +0       0       0       0       0       0       0       0       0       0       0       0       0       0       0       
      +0       0       0       0       0       0
  9688 ;;Total ram usage:        8 bytes
  9689 ;; Hardware stack levels used: 1
  9690 ;; Hardware stack levels required when called: 1
  9691 ;; This function calls:
  9692 ;;		___fladd
  9693 ;; This function is called by:
  9694 ;;		_main
  9695 ;;		_efgtoa
  9696 ;; This function uses a non-reentrant model
  9697 ;;
  9698                           
  9699                           	psect	text13
  9700   00732A                     __ptext13:
  9701                           	callstack 0
  9702   00732A                     ___flsub:
  9703                           	callstack 25
  9704   00732A  0E00               	movlw	0
  9705   00732C  1A2C               	xorwf	___flsub@a^0,f,c
  9706   00732E  0E00               	movlw	0
  9707   007330  1A2D               	xorwf	(___flsub@a+1)^0,f,c
  9708   007332  0E00               	movlw	0
  9709   007334  1A2E               	xorwf	(___flsub@a+2)^0,f,c
  9710   007336  0E80               	movlw	128
  9711   007338  1A2F               	xorwf	(___flsub@a+3)^0,f,c
  9712   00733A  C028  F001         	movff	___flsub@b,___fladd@b
  9713   00733E  C029  F002         	movff	___flsub@b+1,___fladd@b+1
  9714   007342  C02A  F003         	movff	___flsub@b+2,___fladd@b+2
  9715   007346  C02B  F004         	movff	___flsub@b+3,___fladd@b+3
  9716   00734A  C02C  F005         	movff	___flsub@a,___fladd@a
  9717   00734E  C02D  F006         	movff	___flsub@a+1,___fladd@a+1
  9718   007352  C02E  F007         	movff	___flsub@a+2,___fladd@a+2
  9719   007356  C02F  F008         	movff	___flsub@a+3,___fladd@a+3
  9720   00735A  EC48  F02A         	call	___fladd	;wreg free
  9721   00735E  C001  F028         	movff	?___fladd,?___flsub
  9722   007362  C002  F029         	movff	?___fladd+1,?___flsub+1
  9723   007366  C003  F02A         	movff	?___fladd+2,?___flsub+2
  9724   00736A  C004  F02B         	movff	?___fladd+3,?___flsub+3
  9725   00736E  0012               	return		;funcret
  9726   007370                     __end_of___flsub:
  9727                           	callstack 0
  9728                           
  9729 ;; *************** function ___fladd *****************
  9730 ;; Defined at:
  9731 ;;		line 10 in file "C:\Program Files\Microchip\xc8\v3.00\pic\sources\c99\common\sprcadd.c"
  9732 ;; Parameters:    Size  Location     Type
  9733 ;;  b               4    0[COMRAM] long 
  9734 ;;  a               4    4[COMRAM] long 
  9735 ;; Auto vars:     Size  Location     Type
  9736 ;;  grs             1   15[COMRAM] unsigned char 
  9737 ;;  bexp            1   14[COMRAM] unsigned char 
  9738 ;;  aexp            1   13[COMRAM] unsigned char 
  9739 ;;  signs           1   12[COMRAM] unsigned char 
  9740 ;; Return value:  Size  Location     Type
  9741 ;;                  4    0[COMRAM] unsigned char 
  9742 ;; Registers used:
  9743 ;;		wreg, status,2, status,0
  9744 ;; Tracked objects:
  9745 ;;		On entry : 0/0
  9746 ;;		On exit  : 0/0
  9747 ;;		Unchanged: 0/0
  9748 ;; Data sizes:     COMRAM   BANK0   BANK1   BANK2   BANK3   BANK4   BANK5   BANK6   BANK7   BANK8   BANK9  BANK10  BANK1
      +1  BANK12  BANK13  BANK14  BANK15  BANK16  BANK17  BANK18  BANK19  BANK20  BANK21  BANK22  BANK23  BANK24  BANK25  BANK2
      +6  BANK27  BANK28  BANK29  BANK30  BANK31
  9749 ;;      Params:         8       0       0       0       0       0       0       0       0       0       0       0       
      +0       0       0       0       0       0       0       0       0       0       0       0       0       0       0       
      +0       0       0       0       0       0
  9750 ;;      Locals:         4       0       0       0       0       0       0       0       0       0       0       0       
      +0       0       0       0       0       0       0       0       0       0       0       0       0       0       0       
      +0       0       0       0       0       0
  9751 ;;      Temps:          4       0       0       0       0       0       0       0       0       0       0       0       
      +0       0       0       0       0       0       0       0       0       0       0       0       0       0       0       
      +0       0       0       0       0       0
  9752 ;;      Totals:        16       0       0       0       0       0       0       0       0       0       0       0       
      +0       0       0       0       0       0       0       0       0       0       0       0       0       0       0       
      +0       0       0       0       0       0
  9753 ;;Total ram usage:       16 bytes
  9754 ;; Hardware stack levels used: 1
  9755 ;; This function calls:
  9756 ;;		Nothing
  9757 ;; This function is called by:
  9758 ;;		_main
  9759 ;;		___flsub
  9760 ;;		_efgtoa
  9761 ;; This function uses a non-reentrant model
  9762 ;;
  9763                           
  9764                           	psect	text14
  9765   005490                     __ptext14:
  9766                           	callstack 0
  9767   005490                     ___fladd:
  9768                           	callstack 25
  9769   005490  5004               	movf	(___fladd@b+3)^0,w,c
  9770   005492  0B80               	andlw	128
  9771   005494  6E0D               	movwf	___fladd@signs^0,c
  9772   005496  5004               	movf	(___fladd@b+3)^0,w,c
  9773   005498  2404               	addwf	(___fladd@b+3)^0,w,c
  9774   00549A  6E0F               	movwf	___fladd@bexp^0,c
  9775   00549C  AE03               	btfss	(___fladd@b+2)^0,7,c
  9776   00549E  EF53  F02A         	goto	u2771
  9777   0054A2  EF55  F02A         	goto	u2770
  9778   0054A6                     u2771:
  9779   0054A6  EF56  F02A         	goto	l3421
  9780   0054AA                     u2770:
  9781   0054AA  800F               	bsf	___fladd@bexp^0,0,c
  9782   0054AC                     l3421:
  9783   0054AC  500F               	movf	___fladd@bexp^0,w,c
  9784   0054AE  B4D8               	btfsc	status,2,c
  9785   0054B0  EF5C  F02A         	goto	u2781
  9786   0054B4  EF5E  F02A         	goto	u2780
  9787   0054B8                     u2781:
  9788   0054B8  EF72  F02A         	goto	l3431
  9789   0054BC                     u2780:
  9790   0054BC  280F               	incf	___fladd@bexp^0,w,c
  9791   0054BE  A4D8               	btfss	status,2,c
  9792   0054C0  EF64  F02A         	goto	u2791
  9793   0054C4  EF66  F02A         	goto	u2790
  9794   0054C8                     u2791:
  9795   0054C8  EF6E  F02A         	goto	l3427
  9796   0054CC                     u2790:
  9797   0054CC  0E00               	movlw	0
  9798   0054CE  6E01               	movwf	___fladd@b^0,c
  9799   0054D0  0E00               	movlw	0
  9800   0054D2  6E02               	movwf	(___fladd@b+1)^0,c
  9801   0054D4  0E00               	movlw	0
  9802   0054D6  6E03               	movwf	(___fladd@b+2)^0,c
  9803   0054D8  0E00               	movlw	0
  9804   0054DA  6E04               	movwf	(___fladd@b+3)^0,c
  9805   0054DC                     l3427:
  9806   0054DC  8E03               	bsf	(___fladd@b+2)^0,7,c
  9807   0054DE  6A04               	clrf	(___fladd@b+3)^0,c
  9808   0054E0  EF7A  F02A         	goto	l3433
  9809   0054E4                     l3431:
  9810   0054E4  0E00               	movlw	0
  9811   0054E6  6E01               	movwf	___fladd@b^0,c
  9812   0054E8  0E00               	movlw	0
  9813   0054EA  6E02               	movwf	(___fladd@b+1)^0,c
  9814   0054EC  0E00               	movlw	0
  9815   0054EE  6E03               	movwf	(___fladd@b+2)^0,c
  9816   0054F0  0E00               	movlw	0
  9817   0054F2  6E04               	movwf	(___fladd@b+3)^0,c
  9818   0054F4                     l3433:
  9819   0054F4  5008               	movf	(___fladd@a+3)^0,w,c
  9820   0054F6  0B80               	andlw	128
  9821   0054F8  6E0E               	movwf	___fladd@aexp^0,c
  9822   0054FA  500D               	movf	___fladd@signs^0,w,c
  9823   0054FC  180E               	xorwf	___fladd@aexp^0,w,c
  9824   0054FE  B4D8               	btfsc	status,2,c
  9825   005500  EF84  F02A         	goto	u2801
  9826   005504  EF86  F02A         	goto	u2800
  9827   005508                     u2801:
  9828   005508  EF87  F02A         	goto	l3439
  9829   00550C                     u2800:
  9830   00550C  8C0D               	bsf	___fladd@signs^0,6,c
  9831   00550E                     l3439:
  9832   00550E  5008               	movf	(___fladd@a+3)^0,w,c
  9833   005510  2408               	addwf	(___fladd@a+3)^0,w,c
  9834   005512  6E0E               	movwf	___fladd@aexp^0,c
  9835   005514  AE07               	btfss	(___fladd@a+2)^0,7,c
  9836   005516  EF8F  F02A         	goto	u2811
  9837   00551A  EF91  F02A         	goto	u2810
  9838   00551E                     u2811:
  9839   00551E  EF92  F02A         	goto	l3445
  9840   005522                     u2810:
  9841   005522  800E               	bsf	___fladd@aexp^0,0,c
  9842   005524                     l3445:
  9843   005524  500E               	movf	___fladd@aexp^0,w,c
  9844   005526  B4D8               	btfsc	status,2,c
  9845   005528  EF98  F02A         	goto	u2821
  9846   00552C  EF9A  F02A         	goto	u2820
  9847   005530                     u2821:
  9848   005530  EFAE  F02A         	goto	l3455
  9849   005534                     u2820:
  9850   005534  280E               	incf	___fladd@aexp^0,w,c
  9851   005536  A4D8               	btfss	status,2,c
  9852   005538  EFA0  F02A         	goto	u2831
  9853   00553C  EFA2  F02A         	goto	u2830
  9854   005540                     u2831:
  9855   005540  EFAA  F02A         	goto	l3451
  9856   005544                     u2830:
  9857   005544  0E00               	movlw	0
  9858   005546  6E05               	movwf	___fladd@a^0,c
  9859   005548  0E00               	movlw	0
  9860   00554A  6E06               	movwf	(___fladd@a+1)^0,c
  9861   00554C  0E00               	movlw	0
  9862   00554E  6E07               	movwf	(___fladd@a+2)^0,c
  9863   005550  0E00               	movlw	0
  9864   005552  6E08               	movwf	(___fladd@a+3)^0,c
  9865   005554                     l3451:
  9866   005554  8E07               	bsf	(___fladd@a+2)^0,7,c
  9867   005556  6A08               	clrf	(___fladd@a+3)^0,c
  9868   005558  EFB6  F02A         	goto	l3457
  9869   00555C                     l3455:
  9870   00555C  0E00               	movlw	0
  9871   00555E  6E05               	movwf	___fladd@a^0,c
  9872   005560  0E00               	movlw	0
  9873   005562  6E06               	movwf	(___fladd@a+1)^0,c
  9874   005564  0E00               	movlw	0
  9875   005566  6E07               	movwf	(___fladd@a+2)^0,c
  9876   005568  0E00               	movlw	0
  9877   00556A  6E08               	movwf	(___fladd@a+3)^0,c
  9878   00556C                     l3457:
  9879   00556C  500F               	movf	___fladd@bexp^0,w,c
  9880   00556E  5C0E               	subwf	___fladd@aexp^0,w,c
  9881   005570  B0D8               	btfsc	status,0,c
  9882   005572  EFBD  F02A         	goto	u2841
  9883   005576  EFBF  F02A         	goto	u2840
  9884   00557A                     u2841:
  9885   00557A  EFE6  F02A         	goto	l3493
  9886   00557E                     u2840:
  9887   00557E  AC0D               	btfss	___fladd@signs^0,6,c
  9888   005580  EFC4  F02A         	goto	u2851
  9889   005584  EFC6  F02A         	goto	u2850
  9890   005588                     u2851:
  9891   005588  EFC8  F02A         	goto	l3463
  9892   00558C                     u2850:
  9893   00558C  0E80               	movlw	128
  9894   00558E  1A0D               	xorwf	___fladd@signs^0,f,c
  9895   005590                     l3463:
  9896   005590  C00F  F010         	movff	___fladd@bexp,___fladd@grs
  9897   005594  C00E  F00F         	movff	___fladd@aexp,___fladd@bexp
  9898   005598  C010  F00E         	movff	___fladd@grs,___fladd@aexp
  9899   00559C  C001  F010         	movff	___fladd@b,___fladd@grs
  9900   0055A0  C005  F001         	movff	___fladd@a,___fladd@b
  9901   0055A4  C010  F005         	movff	___fladd@grs,___fladd@a
  9902   0055A8  C002  F010         	movff	___fladd@b+1,___fladd@grs
  9903   0055AC  C006  F002         	movff	___fladd@a+1,___fladd@b+1
  9904   0055B0  C010  F006         	movff	___fladd@grs,___fladd@a+1
  9905   0055B4  C003  F010         	movff	___fladd@b+2,___fladd@grs
  9906   0055B8  C007  F003         	movff	___fladd@a+2,___fladd@b+2
  9907   0055BC  C010  F007         	movff	___fladd@grs,___fladd@a+2
  9908   0055C0  C004  F010         	movff	___fladd@b+3,___fladd@grs
  9909   0055C4  C008  F004         	movff	___fladd@a+3,___fladd@b+3
  9910   0055C8  C010  F008         	movff	___fladd@grs,___fladd@a+3
  9911   0055CC                     l3493:
  9912   0055CC  6A10               	clrf	___fladd@grs^0,c
  9913   0055CE  500F               	movf	___fladd@bexp^0,w,c
  9914   0055D0  C00E  F009         	movff	___fladd@aexp,??___fladd
  9915   0055D4  6A0A               	clrf	(??___fladd+1)^0,c
  9916   0055D6  5E09               	subwf	??___fladd^0,f,c
  9917   0055D8  0E00               	movlw	0
  9918   0055DA  5A0A               	subwfb	(??___fladd+1)^0,f,c
  9919   0055DC  BE0A               	btfsc	(??___fladd+1)^0,7,c
  9920   0055DE  EFFA  F02A         	goto	u2861
  9921   0055E2  500A               	movf	(??___fladd+1)^0,w,c
  9922   0055E4  E109               	bnz	u2860
  9923   0055E6  0E1A               	movlw	26
  9924   0055E8  5C09               	subwf	??___fladd^0,w,c
  9925   0055EA  A0D8               	btfss	status,0,c
  9926   0055EC  EFFA  F02A         	goto	u2861
  9927   0055F0  EFFC  F02A         	goto	u2860
  9928   0055F4                     u2861:
  9929   0055F4  EF33  F02B         	goto	l756
  9930   0055F8                     u2860:
  9931   0055F8  5001               	movf	___fladd@b^0,w,c
  9932   0055FA  1002               	iorwf	(___fladd@b+1)^0,w,c
  9933   0055FC  1003               	iorwf	(___fladd@b+2)^0,w,c
  9934   0055FE  1004               	iorwf	(___fladd@b+3)^0,w,c
  9935   005600  A4D8               	btfss	status,2,c
  9936   005602  EF05  F02B         	goto	u2871
  9937   005606  EF08  F02B         	goto	u2870
  9938   00560A                     u2871:
  9939   00560A  0E01               	movlw	1
  9940   00560C  EF09  F02B         	goto	u2880
  9941   005610                     u2870:
  9942   005610  0E00               	movlw	0
  9943   005612                     u2880:
  9944   005612  6E10               	movwf	___fladd@grs^0,c
  9945   005614  0E00               	movlw	0
  9946   005616  6E01               	movwf	___fladd@b^0,c
  9947   005618  0E00               	movlw	0
  9948   00561A  6E02               	movwf	(___fladd@b+1)^0,c
  9949   00561C  0E00               	movlw	0
  9950   00561E  6E03               	movwf	(___fladd@b+2)^0,c
  9951   005620  0E00               	movlw	0
  9952   005622  6E04               	movwf	(___fladd@b+3)^0,c
  9953   005624  C00E  F00F         	movff	___fladd@aexp,___fladd@bexp
  9954   005628  EF3C  F02B         	goto	l755
  9955   00562C                     l757:
  9956   00562C  A010               	btfss	___fladd@grs^0,0,c
  9957   00562E  EF1B  F02B         	goto	u2891
  9958   005632  EF1D  F02B         	goto	u2890
  9959   005636                     u2891:
  9960   005636  EF23  F02B         	goto	l3503
  9961   00563A                     u2890:
  9962   00563A  90D8               	bcf	status,0,c
  9963   00563C  3010               	rrcf	___fladd@grs^0,w,c
  9964   00563E  0901               	iorlw	1
  9965   005640  6E10               	movwf	___fladd@grs^0,c
  9966   005642  EF25  F02B         	goto	l3505
  9967   005646                     l3503:
  9968   005646  90D8               	bcf	status,0,c
  9969   005648  3210               	rrcf	___fladd@grs^0,f,c
  9970   00564A                     l3505:
  9971   00564A  A001               	btfss	___fladd@b^0,0,c
  9972   00564C  EF2A  F02B         	goto	u2901
  9973   005650  EF2C  F02B         	goto	u2900
  9974   005654                     u2901:
  9975   005654  EF2D  F02B         	goto	l3509
  9976   005658                     u2900:
  9977   005658  8E10               	bsf	___fladd@grs^0,7,c
  9978   00565A                     l3509:
  9979   00565A  3404               	rlcf	(___fladd@b+3)^0,w,c
  9980   00565C  3204               	rrcf	(___fladd@b+3)^0,f,c
  9981   00565E  3203               	rrcf	(___fladd@b+2)^0,f,c
  9982   005660  3202               	rrcf	(___fladd@b+1)^0,f,c
  9983   005662  3201               	rrcf	___fladd@b^0,f,c
  9984   005664  2A0F               	incf	___fladd@bexp^0,f,c
  9985   005666                     l756:
  9986   005666  500E               	movf	___fladd@aexp^0,w,c
  9987   005668  5C0F               	subwf	___fladd@bexp^0,w,c
  9988   00566A  A0D8               	btfss	status,0,c
  9989   00566C  EF3A  F02B         	goto	u2911
  9990   005670  EF3C  F02B         	goto	u2910
  9991   005674                     u2911:
  9992   005674  EF16  F02B         	goto	l757
  9993   005678                     u2910:
  9994   005678                     l755:
  9995   005678  BC0D               	btfsc	___fladd@signs^0,6,c
  9996   00567A  EF41  F02B         	goto	u2921
  9997   00567E  EF43  F02B         	goto	u2920
  9998   005682                     u2921:
  9999   005682  EF83  F02B         	goto	l3537
 10000   005686                     u2920:
 10001   005686  500F               	movf	___fladd@bexp^0,w,c
 10002   005688  A4D8               	btfss	status,2,c
 10003   00568A  EF49  F02B         	goto	u2931
 10004   00568E  EF4B  F02B         	goto	u2930
 10005   005692                     u2931:
 10006   005692  EF55  F02B         	goto	l3519
 10007   005696                     u2930:
 10008   005696  0E00               	movlw	0
 10009   005698  6E01               	movwf	?___fladd^0,c
 10010   00569A  0E00               	movlw	0
 10011   00569C  6E02               	movwf	(?___fladd+1)^0,c
 10012   00569E  0E00               	movlw	0
 10013   0056A0  6E03               	movwf	(?___fladd+2)^0,c
 10014   0056A2  0E00               	movlw	0
 10015   0056A4  6E04               	movwf	(?___fladd+3)^0,c
 10016   0056A6  EFA2  F02C         	goto	l764
 10017   0056AA                     l3519:
 10018   0056AA  5005               	movf	___fladd@a^0,w,c
 10019   0056AC  2601               	addwf	___fladd@b^0,f,c
 10020   0056AE  5006               	movf	(___fladd@a+1)^0,w,c
 10021   0056B0  2202               	addwfc	(___fladd@b+1)^0,f,c
 10022   0056B2  5007               	movf	(___fladd@a+2)^0,w,c
 10023   0056B4  2203               	addwfc	(___fladd@b+2)^0,f,c
 10024   0056B6  5008               	movf	(___fladd@a+3)^0,w,c
 10025   0056B8  2204               	addwfc	(___fladd@b+3)^0,f,c
 10026   0056BA  A004               	btfss	(___fladd@b+3)^0,0,c
 10027   0056BC  EF62  F02B         	goto	u2941
 10028   0056C0  EF64  F02B         	goto	u2940
 10029   0056C4                     u2941:
 10030   0056C4  EF10  F02C         	goto	l769
 10031   0056C8                     u2940:
 10032   0056C8  A010               	btfss	___fladd@grs^0,0,c
 10033   0056CA  EF69  F02B         	goto	u2951
 10034   0056CE  EF6B  F02B         	goto	u2950
 10035   0056D2                     u2951:
 10036   0056D2  EF71  F02B         	goto	l3527
 10037   0056D6                     u2950:
 10038   0056D6  90D8               	bcf	status,0,c
 10039   0056D8  3010               	rrcf	___fladd@grs^0,w,c
 10040   0056DA  0901               	iorlw	1
 10041   0056DC  6E10               	movwf	___fladd@grs^0,c
 10042   0056DE  EF73  F02B         	goto	l3529
 10043   0056E2                     l3527:
 10044   0056E2  90D8               	bcf	status,0,c
 10045   0056E4  3210               	rrcf	___fladd@grs^0,f,c
 10046   0056E6                     l3529:
 10047   0056E6  A001               	btfss	___fladd@b^0,0,c
 10048   0056E8  EF78  F02B         	goto	u2961
 10049   0056EC  EF7A  F02B         	goto	u2960
 10050   0056F0                     u2961:
 10051   0056F0  EF7B  F02B         	goto	l3533
 10052   0056F4                     u2960:
 10053   0056F4  8E10               	bsf	___fladd@grs^0,7,c
 10054   0056F6                     l3533:
 10055   0056F6  3404               	rlcf	(___fladd@b+3)^0,w,c
 10056   0056F8  3204               	rrcf	(___fladd@b+3)^0,f,c
 10057   0056FA  3203               	rrcf	(___fladd@b+2)^0,f,c
 10058   0056FC  3202               	rrcf	(___fladd@b+1)^0,f,c
 10059   0056FE  3201               	rrcf	___fladd@b^0,f,c
 10060   005700  2A0F               	incf	___fladd@bexp^0,f,c
 10061   005702  EF10  F02C         	goto	l769
 10062   005706                     l3537:
 10063   005706  5005               	movf	___fladd@a^0,w,c
 10064   005708  5C01               	subwf	___fladd@b^0,w,c
 10065   00570A  5006               	movf	(___fladd@a+1)^0,w,c
 10066   00570C  5802               	subwfb	(___fladd@b+1)^0,w,c
 10067   00570E  5007               	movf	(___fladd@a+2)^0,w,c
 10068   005710  5803               	subwfb	(___fladd@b+2)^0,w,c
 10069   005712  5004               	movf	(___fladd@b+3)^0,w,c
 10070   005714  0A80               	xorlw	128
 10071   005716  6E09               	movwf	??___fladd^0,c
 10072   005718  5008               	movf	(___fladd@a+3)^0,w,c
 10073   00571A  0A80               	xorlw	128
 10074   00571C  5809               	subwfb	??___fladd^0,w,c
 10075   00571E  B0D8               	btfsc	status,0,c
 10076   005720  EF94  F02B         	goto	u2971
 10077   005724  EF96  F02B         	goto	u2970
 10078   005728                     u2971:
 10079   005728  EFC1  F02B         	goto	l3547
 10080   00572C                     u2970:
 10081   00572C  5001               	movf	___fladd@b^0,w,c
 10082   00572E  5C05               	subwf	___fladd@a^0,w,c
 10083   005730  6E09               	movwf	??___fladd^0,c
 10084   005732  5002               	movf	(___fladd@b+1)^0,w,c
 10085   005734  5806               	subwfb	(___fladd@a+1)^0,w,c
 10086   005736  6E0A               	movwf	(??___fladd+1)^0,c
 10087   005738  5003               	movf	(___fladd@b+2)^0,w,c
 10088   00573A  5807               	subwfb	(___fladd@a+2)^0,w,c
 10089   00573C  6E0B               	movwf	(??___fladd+2)^0,c
 10090   00573E  5004               	movf	(___fladd@b+3)^0,w,c
 10091   005740  5808               	subwfb	(___fladd@a+3)^0,w,c
 10092   005742  6E0C               	movwf	(??___fladd+3)^0,c
 10093   005744  0EFF               	movlw	255
 10094   005746  2409               	addwf	??___fladd^0,w,c
 10095   005748  6E01               	movwf	___fladd@b^0,c
 10096   00574A  0EFF               	movlw	255
 10097   00574C  200A               	addwfc	(??___fladd+1)^0,w,c
 10098   00574E  6E02               	movwf	(___fladd@b+1)^0,c
 10099   005750  0EFF               	movlw	255
 10100   005752  200B               	addwfc	(??___fladd+2)^0,w,c
 10101   005754  6E03               	movwf	(___fladd@b+2)^0,c
 10102   005756  0EFF               	movlw	255
 10103   005758  200C               	addwfc	(??___fladd+3)^0,w,c
 10104   00575A  6E04               	movwf	(___fladd@b+3)^0,c
 10105   00575C  0E80               	movlw	128
 10106   00575E  1A0D               	xorwf	___fladd@signs^0,f,c
 10107   005760  6C10               	negf	___fladd@grs^0,c
 10108   005762  5010               	movf	___fladd@grs^0,w,c
 10109   005764  A4D8               	btfss	status,2,c
 10110   005766  EFB7  F02B         	goto	u2981
 10111   00576A  EFB9  F02B         	goto	u2980
 10112   00576E                     u2981:
 10113   00576E  EFC9  F02B         	goto	l772
 10114   005772                     u2980:
 10115   005772  0E01               	movlw	1
 10116   005774  2601               	addwf	___fladd@b^0,f,c
 10117   005776  0E00               	movlw	0
 10118   005778  2202               	addwfc	(___fladd@b+1)^0,f,c
 10119   00577A  2203               	addwfc	(___fladd@b+2)^0,f,c
 10120   00577C  2204               	addwfc	(___fladd@b+3)^0,f,c
 10121   00577E  EFC9  F02B         	goto	l772
 10122   005782                     l3547:
 10123   005782  5005               	movf	___fladd@a^0,w,c
 10124   005784  5E01               	subwf	___fladd@b^0,f,c
 10125   005786  5006               	movf	(___fladd@a+1)^0,w,c
 10126   005788  5A02               	subwfb	(___fladd@b+1)^0,f,c
 10127   00578A  5007               	movf	(___fladd@a+2)^0,w,c
 10128   00578C  5A03               	subwfb	(___fladd@b+2)^0,f,c
 10129   00578E  5008               	movf	(___fladd@a+3)^0,w,c
 10130   005790  5A04               	subwfb	(___fladd@b+3)^0,f,c
 10131   005792                     l772:
 10132   005792  5001               	movf	___fladd@b^0,w,c
 10133   005794  1002               	iorwf	(___fladd@b+1)^0,w,c
 10134   005796  1003               	iorwf	(___fladd@b+2)^0,w,c
 10135   005798  1004               	iorwf	(___fladd@b+3)^0,w,c
 10136   00579A  A4D8               	btfss	status,2,c
 10137   00579C  EFD2  F02B         	goto	u2991
 10138   0057A0  EFD4  F02B         	goto	u2990
 10139   0057A4                     u2991:
 10140   0057A4  EF09  F02C         	goto	l3571
 10141   0057A8                     u2990:
 10142   0057A8  5010               	movf	___fladd@grs^0,w,c
 10143   0057AA  A4D8               	btfss	status,2,c
 10144   0057AC  EFDA  F02B         	goto	u3001
 10145   0057B0  EFDC  F02B         	goto	u3000
 10146   0057B4                     u3001:
 10147   0057B4  EF09  F02C         	goto	l3571
 10148   0057B8                     u3000:
 10149   0057B8  0E00               	movlw	0
 10150   0057BA  6E01               	movwf	?___fladd^0,c
 10151   0057BC  0E00               	movlw	0
 10152   0057BE  6E02               	movwf	(?___fladd+1)^0,c
 10153   0057C0  0E00               	movlw	0
 10154   0057C2  6E03               	movwf	(?___fladd+2)^0,c
 10155   0057C4  0E00               	movlw	0
 10156   0057C6  6E04               	movwf	(?___fladd+3)^0,c
 10157   0057C8  EFA2  F02C         	goto	l764
 10158   0057CC                     l3555:
 10159   0057CC  90D8               	bcf	status,0,c
 10160   0057CE  3601               	rlcf	___fladd@b^0,f,c
 10161   0057D0  3602               	rlcf	(___fladd@b+1)^0,f,c
 10162   0057D2  3603               	rlcf	(___fladd@b+2)^0,f,c
 10163   0057D4  3604               	rlcf	(___fladd@b+3)^0,f,c
 10164   0057D6  AE10               	btfss	___fladd@grs^0,7,c
 10165   0057D8  EFF0  F02B         	goto	u3011
 10166   0057DC  EFF2  F02B         	goto	u3010
 10167   0057E0                     u3011:
 10168   0057E0  EFF3  F02B         	goto	l3561
 10169   0057E4                     u3010:
 10170   0057E4  8001               	bsf	___fladd@b^0,0,c
 10171   0057E6                     l3561:
 10172   0057E6  A010               	btfss	___fladd@grs^0,0,c
 10173   0057E8  EFF8  F02B         	goto	u3021
 10174   0057EC  EFFA  F02B         	goto	u3020
 10175   0057F0                     u3021:
 10176   0057F0  EFFE  F02B         	goto	l3565
 10177   0057F4                     u3020:
 10178   0057F4  80D8               	bsf	status,0,c
 10179   0057F6  3610               	rlcf	___fladd@grs^0,f,c
 10180   0057F8  EF00  F02C         	goto	l3567
 10181   0057FC                     l3565:
 10182   0057FC  90D8               	bcf	status,0,c
 10183   0057FE  3610               	rlcf	___fladd@grs^0,f,c
 10184   005800                     l3567:
 10185   005800  500F               	movf	___fladd@bexp^0,w,c
 10186   005802  B4D8               	btfsc	status,2,c
 10187   005804  EF06  F02C         	goto	u3031
 10188   005808  EF08  F02C         	goto	u3030
 10189   00580C                     u3031:
 10190   00580C  EF09  F02C         	goto	l3571
 10191   005810                     u3030:
 10192   005810  060F               	decf	___fladd@bexp^0,f,c
 10193   005812                     l3571:
 10194   005812  AE03               	btfss	(___fladd@b+2)^0,7,c
 10195   005814  EF0E  F02C         	goto	u3041
 10196   005818  EF10  F02C         	goto	u3040
 10197   00581C                     u3041:
 10198   00581C  EFE6  F02B         	goto	l3555
 10199   005820                     u3040:
 10200   005820                     l769:
 10201   005820  6A0E               	clrf	___fladd@aexp^0,c
 10202   005822  AE10               	btfss	___fladd@grs^0,7,c
 10203   005824  EF16  F02C         	goto	u3051
 10204   005828  EF18  F02C         	goto	u3050
 10205   00582C                     u3051:
 10206   00582C  EF30  F02C         	goto	l781
 10207   005830                     u3050:
 10208   005830  C010  F009         	movff	___fladd@grs,??___fladd
 10209   005834  0E7F               	movlw	127
 10210   005836  1609               	andwf	??___fladd^0,f,c
 10211   005838  B4D8               	btfsc	status,2,c
 10212   00583A  EF21  F02C         	goto	u3061
 10213   00583E  EF23  F02C         	goto	u3060
 10214   005842                     u3061:
 10215   005842  EF27  F02C         	goto	l782
 10216   005846                     u3060:
 10217   005846                     l3575:
 10218   005846  0E01               	movlw	1
 10219   005848  6E0E               	movwf	___fladd@aexp^0,c
 10220   00584A  EF30  F02C         	goto	l781
 10221   00584E                     l782:
 10222   00584E  A001               	btfss	___fladd@b^0,0,c
 10223   005850  EF2C  F02C         	goto	u3071
 10224   005854  EF2E  F02C         	goto	u3070
 10225   005858                     u3071:
 10226   005858  EF30  F02C         	goto	l781
 10227   00585C                     u3070:
 10228   00585C  EF23  F02C         	goto	l3575
 10229   005860                     l781:
 10230   005860  500E               	movf	___fladd@aexp^0,w,c
 10231   005862  B4D8               	btfsc	status,2,c
 10232   005864  EF36  F02C         	goto	u3081
 10233   005868  EF38  F02C         	goto	u3080
 10234   00586C                     u3081:
 10235   00586C  EF63  F02C         	goto	l3587
 10236   005870                     u3080:
 10237   005870  0E01               	movlw	1
 10238   005872  2601               	addwf	___fladd@b^0,f,c
 10239   005874  0E00               	movlw	0
 10240   005876  2202               	addwfc	(___fladd@b+1)^0,f,c
 10241   005878  2203               	addwfc	(___fladd@b+2)^0,f,c
 10242   00587A  2204               	addwfc	(___fladd@b+3)^0,f,c
 10243   00587C  A004               	btfss	(___fladd@b+3)^0,0,c
 10244   00587E  EF43  F02C         	goto	u3091
 10245   005882  EF45  F02C         	goto	u3090
 10246   005886                     u3091:
 10247   005886  EF63  F02C         	goto	l3587
 10248   00588A                     u3090:
 10249   00588A  C001  F009         	movff	___fladd@b,??___fladd
 10250   00588E  C002  F00A         	movff	___fladd@b+1,??___fladd+1
 10251   005892  C003  F00B         	movff	___fladd@b+2,??___fladd+2
 10252   005896  C004  F00C         	movff	___fladd@b+3,??___fladd+3
 10253   00589A  340C               	rlcf	(??___fladd+3)^0,w,c
 10254   00589C  320C               	rrcf	(??___fladd+3)^0,f,c
 10255   00589E  320B               	rrcf	(??___fladd+2)^0,f,c
 10256   0058A0  320A               	rrcf	(??___fladd+1)^0,f,c
 10257   0058A2  3209               	rrcf	??___fladd^0,f,c
 10258   0058A4  C009  F001         	movff	??___fladd,___fladd@b
 10259   0058A8  C00A  F002         	movff	??___fladd+1,___fladd@b+1
 10260   0058AC  C00B  F003         	movff	??___fladd+2,___fladd@b+2
 10261   0058B0  C00C  F004         	movff	??___fladd+3,___fladd@b+3
 10262   0058B4  280F               	incf	___fladd@bexp^0,w,c
 10263   0058B6  B4D8               	btfsc	status,2,c
 10264   0058B8  EF60  F02C         	goto	u3101
 10265   0058BC  EF62  F02C         	goto	u3100
 10266   0058C0                     u3101:
 10267   0058C0  EF63  F02C         	goto	l3587
 10268   0058C4                     u3100:
 10269   0058C4  2A0F               	incf	___fladd@bexp^0,f,c
 10270   0058C6                     l3587:
 10271   0058C6  280F               	incf	___fladd@bexp^0,w,c
 10272   0058C8  B4D8               	btfsc	status,2,c
 10273   0058CA  EF69  F02C         	goto	u3111
 10274   0058CE  EF6B  F02C         	goto	u3110
 10275   0058D2                     u3111:
 10276   0058D2  EF73  F02C         	goto	l3591
 10277   0058D6                     u3110:
 10278   0058D6  500F               	movf	___fladd@bexp^0,w,c
 10279   0058D8  A4D8               	btfss	status,2,c
 10280   0058DA  EF71  F02C         	goto	u3121
 10281   0058DE  EF73  F02C         	goto	u3120
 10282   0058E2                     u3121:
 10283   0058E2  EF84  F02C         	goto	l788
 10284   0058E6                     u3120:
 10285   0058E6                     l3591:
 10286   0058E6  0E00               	movlw	0
 10287   0058E8  6E01               	movwf	___fladd@b^0,c
 10288   0058EA  0E00               	movlw	0
 10289   0058EC  6E02               	movwf	(___fladd@b+1)^0,c
 10290   0058EE  0E00               	movlw	0
 10291   0058F0  6E03               	movwf	(___fladd@b+2)^0,c
 10292   0058F2  0E00               	movlw	0
 10293   0058F4  6E04               	movwf	(___fladd@b+3)^0,c
 10294   0058F6  500F               	movf	___fladd@bexp^0,w,c
 10295   0058F8  A4D8               	btfss	status,2,c
 10296   0058FA  EF81  F02C         	goto	u3131
 10297   0058FE  EF83  F02C         	goto	u3130
 10298   005902                     u3131:
 10299   005902  EF84  F02C         	goto	l788
 10300   005906                     u3130:
 10301   005906  6A0D               	clrf	___fladd@signs^0,c
 10302   005908                     l788:
 10303   005908  A00F               	btfss	___fladd@bexp^0,0,c
 10304   00590A  EF89  F02C         	goto	u3141
 10305   00590E  EF8B  F02C         	goto	u3140
 10306   005912                     u3141:
 10307   005912  EF8E  F02C         	goto	l3597
 10308   005916                     u3140:
 10309   005916  8E03               	bsf	(___fladd@b+2)^0,7,c
 10310   005918  EF8F  F02C         	goto	l3599
 10311   00591C                     l3597:
 10312   00591C  9E03               	bcf	(___fladd@b+2)^0,7,c
 10313   00591E                     l3599:
 10314   00591E  90D8               	bcf	status,0,c
 10315   005920  300F               	rrcf	___fladd@bexp^0,w,c
 10316   005922  6E04               	movwf	(___fladd@b+3)^0,c
 10317   005924  AE0D               	btfss	___fladd@signs^0,7,c
 10318   005926  EF97  F02C         	goto	u3151
 10319   00592A  EF99  F02C         	goto	u3150
 10320   00592E                     u3151:
 10321   00592E  EF9A  F02C         	goto	l3605
 10322   005932                     u3150:
 10323   005932  8E04               	bsf	(___fladd@b+3)^0,7,c
 10324   005934                     l3605:
 10325   005934  C001  F001         	movff	___fladd@b,?___fladd
 10326   005938  C002  F002         	movff	___fladd@b+1,?___fladd+1
 10327   00593C  C003  F003         	movff	___fladd@b+2,?___fladd+2
 10328   005940  C004  F004         	movff	___fladd@b+3,?___fladd+3
 10329   005944                     l764:
 10330   005944  0012               	return		;funcret
 10331   005946                     __end_of___fladd:
 10332                           	callstack 0
 10333                           
 10334 ;; *************** function ___flneg *****************
 10335 ;; Defined at:
 10336 ;;		line 15 in file "C:\Program Files\Microchip\xc8\v3.00\pic\sources\c99\common\flneg.c"
 10337 ;; Parameters:    Size  Location     Type
 10338 ;;  f1              4    0[COMRAM] unsigned char 
 10339 ;; Auto vars:     Size  Location     Type
 10340 ;;		None
 10341 ;; Return value:  Size  Location     Type
 10342 ;;                  4    0[COMRAM] unsigned char 
 10343 ;; Registers used:
 10344 ;;		wreg, status,2, status,0
 10345 ;; Tracked objects:
 10346 ;;		On entry : 0/0
 10347 ;;		On exit  : 0/0
 10348 ;;		Unchanged: 0/0
 10349 ;; Data sizes:     COMRAM   BANK0   BANK1   BANK2   BANK3   BANK4   BANK5   BANK6   BANK7   BANK8   BANK9  BANK10  BANK1
      +1  BANK12  BANK13  BANK14  BANK15  BANK16  BANK17  BANK18  BANK19  BANK20  BANK21  BANK22  BANK23  BANK24  BANK25  BANK2
      +6  BANK27  BANK28  BANK29  BANK30  BANK31
 10350 ;;      Params:         4       0       0       0       0       0       0       0       0       0       0       0       
      +0       0       0       0       0       0       0       0       0       0       0       0       0       0       0       
      +0       0       0       0       0       0
 10351 ;;      Locals:         0       0       0       0       0       0       0       0       0       0       0       0       
      +0       0       0       0       0       0       0       0       0       0       0       0       0       0       0       
      +0       0       0       0       0       0
 10352 ;;      Temps:          0       0       0       0       0       0       0       0       0       0       0       0       
      +0       0       0       0       0       0       0       0       0       0       0       0       0       0       0       
      +0       0       0       0       0       0
 10353 ;;      Totals:         4       0       0       0       0       0       0       0       0       0       0       0       
      +0       0       0       0       0       0       0       0       0       0       0       0       0       0       0       
      +0       0       0       0       0       0
 10354 ;;Total ram usage:        4 bytes
 10355 ;; Hardware stack levels used: 1
 10356 ;; This function calls:
 10357 ;;		Nothing
 10358 ;; This function is called by:
 10359 ;;		_efgtoa
 10360 ;; This function uses a non-reentrant model
 10361 ;;
 10362                           
 10363                           	psect	text15
 10364   007434                     __ptext15:
 10365                           	callstack 0
 10366   007434                     ___flneg:
 10367                           	callstack 26
 10368   007434  5001               	movf	___flneg@f1^0,w,c
 10369   007436  1002               	iorwf	(___flneg@f1+1)^0,w,c
 10370   007438  1003               	iorwf	(___flneg@f1+2)^0,w,c
 10371   00743A  1004               	iorwf	(___flneg@f1+3)^0,w,c
 10372   00743C  B4D8               	btfsc	status,2,c
 10373   00743E  EF23  F03A         	goto	u3791
 10374   007442  EF25  F03A         	goto	u3790
 10375   007446                     u3791:
 10376   007446  EF2D  F03A         	goto	l4009
 10377   00744A                     u3790:
 10378   00744A  0E00               	movlw	0
 10379   00744C  1A01               	xorwf	___flneg@f1^0,f,c
 10380   00744E  0E00               	movlw	0
 10381   007450  1A02               	xorwf	(___flneg@f1+1)^0,f,c
 10382   007452  0E00               	movlw	0
 10383   007454  1A03               	xorwf	(___flneg@f1+2)^0,f,c
 10384   007456  0E80               	movlw	128
 10385   007458  1A04               	xorwf	(___flneg@f1+3)^0,f,c
 10386   00745A                     l4009:
 10387   00745A  C001  F001         	movff	___flneg@f1,?___flneg
 10388   00745E  C002  F002         	movff	___flneg@f1+1,?___flneg+1
 10389   007462  C003  F003         	movff	___flneg@f1+2,?___flneg+2
 10390   007466  C004  F004         	movff	___flneg@f1+3,?___flneg+3
 10391   00746A  0012               	return		;funcret
 10392   00746C                     __end_of___flneg:
 10393                           	callstack 0
 10394                           
 10395 ;; *************** function ___flmul *****************
 10396 ;; Defined at:
 10397 ;;		line 8 in file "C:\Program Files\Microchip\xc8\v3.00\pic\sources\c99\common\sprcmul.c"
 10398 ;; Parameters:    Size  Location     Type
 10399 ;;  b               4   14[COMRAM] unsigned char 
 10400 ;;  a               4   18[COMRAM] unsigned char 
 10401 ;; Auto vars:     Size  Location     Type
 10402 ;;  prod            4   33[COMRAM] struct .
 10403 ;;  grs             4   27[COMRAM] unsigned long 
 10404 ;;  temp            2   37[COMRAM] struct .
 10405 ;;  bexp            1   32[COMRAM] unsigned char 
 10406 ;;  aexp            1   31[COMRAM] unsigned char 
 10407 ;;  sign            1   26[COMRAM] unsigned char 
 10408 ;; Return value:  Size  Location     Type
 10409 ;;                  4   14[COMRAM] unsigned char 
 10410 ;; Registers used:
 10411 ;;		wreg, status,2, status,0, prodl, prodh
 10412 ;; Tracked objects:
 10413 ;;		On entry : 0/0
 10414 ;;		On exit  : 0/0
 10415 ;;		Unchanged: 0/0
 10416 ;; Data sizes:     COMRAM   BANK0   BANK1   BANK2   BANK3   BANK4   BANK5   BANK6   BANK7   BANK8   BANK9  BANK10  BANK1
      +1  BANK12  BANK13  BANK14  BANK15  BANK16  BANK17  BANK18  BANK19  BANK20  BANK21  BANK22  BANK23  BANK24  BANK25  BANK2
      +6  BANK27  BANK28  BANK29  BANK30  BANK31
 10417 ;;      Params:         8       0       0       0       0       0       0       0       0       0       0       0       
      +0       0       0       0       0       0       0       0       0       0       0       0       0       0       0       
      +0       0       0       0       0       0
 10418 ;;      Locals:        13       0       0       0       0       0       0       0       0       0       0       0       
      +0       0       0       0       0       0       0       0       0       0       0       0       0       0       0       
      +0       0       0       0       0       0
 10419 ;;      Temps:          4       0       0       0       0       0       0       0       0       0       0       0       
      +0       0       0       0       0       0       0       0       0       0       0       0       0       0       0       
      +0       0       0       0       0       0
 10420 ;;      Totals:        25       0       0       0       0       0       0       0       0       0       0       0       
      +0       0       0       0       0       0       0       0       0       0       0       0       0       0       0       
      +0       0       0       0       0       0
 10421 ;;Total ram usage:       25 bytes
 10422 ;; Hardware stack levels used: 1
 10423 ;; This function calls:
 10424 ;;		Nothing
 10425 ;; This function is called by:
 10426 ;;		_main
 10427 ;;		_efgtoa
 10428 ;; This function uses a non-reentrant model
 10429 ;;
 10430                           
 10431                           	psect	text16
 10432   005946                     __ptext16:
 10433                           	callstack 0
 10434   005946                     ___flmul:
 10435                           	callstack 26
 10436   005946  5012               	movf	(___flmul@b+3)^0,w,c
 10437   005948  0B80               	andlw	128
 10438   00594A  6E1B               	movwf	___flmul@sign^0,c
 10439   00594C  5012               	movf	(___flmul@b+3)^0,w,c
 10440   00594E  2412               	addwf	(___flmul@b+3)^0,w,c
 10441   005950  6E21               	movwf	___flmul@bexp^0,c
 10442   005952  AE11               	btfss	(___flmul@b+2)^0,7,c
 10443   005954  EFAE  F02C         	goto	u3401
 10444   005958  EFB0  F02C         	goto	u3400
 10445   00595C                     u3401:
 10446   00595C  EFB1  F02C         	goto	l3759
 10447   005960                     u3400:
 10448   005960  8021               	bsf	___flmul@bexp^0,0,c
 10449   005962                     l3759:
 10450   005962  5021               	movf	___flmul@bexp^0,w,c
 10451   005964  B4D8               	btfsc	status,2,c
 10452   005966  EFB7  F02C         	goto	u3411
 10453   00596A  EFB9  F02C         	goto	u3410
 10454   00596E                     u3411:
 10455   00596E  EFCC  F02C         	goto	l3767
 10456   005972                     u3410:
 10457   005972  2821               	incf	___flmul@bexp^0,w,c
 10458   005974  A4D8               	btfss	status,2,c
 10459   005976  EFBF  F02C         	goto	u3421
 10460   00597A  EFC1  F02C         	goto	u3420
 10461   00597E                     u3421:
 10462   00597E  EFC9  F02C         	goto	l3765
 10463   005982                     u3420:
 10464   005982  0E00               	movlw	0
 10465   005984  6E0F               	movwf	___flmul@b^0,c
 10466   005986  0E00               	movlw	0
 10467   005988  6E10               	movwf	(___flmul@b+1)^0,c
 10468   00598A  0E00               	movlw	0
 10469   00598C  6E11               	movwf	(___flmul@b+2)^0,c
 10470   00598E  0E00               	movlw	0
 10471   005990  6E12               	movwf	(___flmul@b+3)^0,c
 10472   005992                     l3765:
 10473   005992  8E11               	bsf	(___flmul@b+2)^0,7,c
 10474   005994  EFD4  F02C         	goto	l3769
 10475   005998                     l3767:
 10476   005998  0E00               	movlw	0
 10477   00599A  6E0F               	movwf	___flmul@b^0,c
 10478   00599C  0E00               	movlw	0
 10479   00599E  6E10               	movwf	(___flmul@b+1)^0,c
 10480   0059A0  0E00               	movlw	0
 10481   0059A2  6E11               	movwf	(___flmul@b+2)^0,c
 10482   0059A4  0E00               	movlw	0
 10483   0059A6  6E12               	movwf	(___flmul@b+3)^0,c
 10484   0059A8                     l3769:
 10485   0059A8  5016               	movf	(___flmul@a+3)^0,w,c
 10486   0059AA  0B80               	andlw	128
 10487   0059AC  1A1B               	xorwf	___flmul@sign^0,f,c
 10488   0059AE  5016               	movf	(___flmul@a+3)^0,w,c
 10489   0059B0  2416               	addwf	(___flmul@a+3)^0,w,c
 10490   0059B2  6E20               	movwf	___flmul@aexp^0,c
 10491   0059B4  AE15               	btfss	(___flmul@a+2)^0,7,c
 10492   0059B6  EFDF  F02C         	goto	u3431
 10493   0059BA  EFE1  F02C         	goto	u3430
 10494   0059BE                     u3431:
 10495   0059BE  EFE2  F02C         	goto	l3777
 10496   0059C2                     u3430:
 10497   0059C2  8020               	bsf	___flmul@aexp^0,0,c
 10498   0059C4                     l3777:
 10499   0059C4  5020               	movf	___flmul@aexp^0,w,c
 10500   0059C6  B4D8               	btfsc	status,2,c
 10501   0059C8  EFE8  F02C         	goto	u3441
 10502   0059CC  EFEA  F02C         	goto	u3440
 10503   0059D0                     u3441:
 10504   0059D0  EFFD  F02C         	goto	l3785
 10505   0059D4                     u3440:
 10506   0059D4  2820               	incf	___flmul@aexp^0,w,c
 10507   0059D6  A4D8               	btfss	status,2,c
 10508   0059D8  EFF0  F02C         	goto	u3451
 10509   0059DC  EFF2  F02C         	goto	u3450
 10510   0059E0                     u3451:
 10511   0059E0  EFFA  F02C         	goto	l3783
 10512   0059E4                     u3450:
 10513   0059E4  0E00               	movlw	0
 10514   0059E6  6E13               	movwf	___flmul@a^0,c
 10515   0059E8  0E00               	movlw	0
 10516   0059EA  6E14               	movwf	(___flmul@a+1)^0,c
 10517   0059EC  0E00               	movlw	0
 10518   0059EE  6E15               	movwf	(___flmul@a+2)^0,c
 10519   0059F0  0E00               	movlw	0
 10520   0059F2  6E16               	movwf	(___flmul@a+3)^0,c
 10521   0059F4                     l3783:
 10522   0059F4  8E15               	bsf	(___flmul@a+2)^0,7,c
 10523   0059F6  EF05  F02D         	goto	l841
 10524   0059FA                     l3785:
 10525   0059FA  0E00               	movlw	0
 10526   0059FC  6E13               	movwf	___flmul@a^0,c
 10527   0059FE  0E00               	movlw	0
 10528   005A00  6E14               	movwf	(___flmul@a+1)^0,c
 10529   005A02  0E00               	movlw	0
 10530   005A04  6E15               	movwf	(___flmul@a+2)^0,c
 10531   005A06  0E00               	movlw	0
 10532   005A08  6E16               	movwf	(___flmul@a+3)^0,c
 10533   005A0A                     l841:
 10534   005A0A  5020               	movf	___flmul@aexp^0,w,c
 10535   005A0C  B4D8               	btfsc	status,2,c
 10536   005A0E  EF0B  F02D         	goto	u3461
 10537   005A12  EF0D  F02D         	goto	u3460
 10538   005A16                     u3461:
 10539   005A16  EF15  F02D         	goto	l3789
 10540   005A1A                     u3460:
 10541   005A1A  5021               	movf	___flmul@bexp^0,w,c
 10542   005A1C  A4D8               	btfss	status,2,c
 10543   005A1E  EF13  F02D         	goto	u3471
 10544   005A22  EF15  F02D         	goto	u3470
 10545   005A26                     u3471:
 10546   005A26  EF1F  F02D         	goto	l3793
 10547   005A2A                     u3470:
 10548   005A2A                     l3789:
 10549   005A2A  0E00               	movlw	0
 10550   005A2C  6E0F               	movwf	?___flmul^0,c
 10551   005A2E  0E00               	movlw	0
 10552   005A30  6E10               	movwf	(?___flmul+1)^0,c
 10553   005A32  0E00               	movlw	0
 10554   005A34  6E11               	movwf	(?___flmul+2)^0,c
 10555   005A36  0E00               	movlw	0
 10556   005A38  6E12               	movwf	(?___flmul+3)^0,c
 10557   005A3A  EFC7  F02E         	goto	l845
 10558   005A3E                     l3793:
 10559   005A3E  5015               	movf	(___flmul@a+2)^0,w,c
 10560   005A40  020F               	mulwf	___flmul@b^0,c
 10561   005A42  006F FFCC  F026    	movff	prodl,___flmul@temp
 10562   005A48  006F FFD0  F027    	movff	prodh,___flmul@temp+1
 10563   005A4E  5026               	movf	___flmul@temp^0,w,c
 10564   005A50  6E1C               	movwf	___flmul@grs^0,c
 10565   005A52  6A1D               	clrf	(___flmul@grs+1)^0,c
 10566   005A54  6A1E               	clrf	(___flmul@grs+2)^0,c
 10567   005A56  6A1F               	clrf	(___flmul@grs+3)^0,c
 10568   005A58  5027               	movf	(___flmul@temp+1)^0,w,c
 10569   005A5A  6E22               	movwf	___flmul@prod^0,c
 10570   005A5C  6A23               	clrf	(___flmul@prod+1)^0,c
 10571   005A5E  6A24               	clrf	(___flmul@prod+2)^0,c
 10572   005A60  6A25               	clrf	(___flmul@prod+3)^0,c
 10573   005A62  5014               	movf	(___flmul@a+1)^0,w,c
 10574   005A64  0210               	mulwf	(___flmul@b+1)^0,c
 10575   005A66  006F FFCC  F026    	movff	prodl,___flmul@temp
 10576   005A6C  006F FFD0  F027    	movff	prodh,___flmul@temp+1
 10577   005A72  5026               	movf	___flmul@temp^0,w,c
 10578   005A74  261C               	addwf	___flmul@grs^0,f,c
 10579   005A76  0E00               	movlw	0
 10580   005A78  221D               	addwfc	(___flmul@grs+1)^0,f,c
 10581   005A7A  221E               	addwfc	(___flmul@grs+2)^0,f,c
 10582   005A7C  221F               	addwfc	(___flmul@grs+3)^0,f,c
 10583   005A7E  5027               	movf	(___flmul@temp+1)^0,w,c
 10584   005A80  2622               	addwf	___flmul@prod^0,f,c
 10585   005A82  0E00               	movlw	0
 10586   005A84  2223               	addwfc	(___flmul@prod+1)^0,f,c
 10587   005A86  2224               	addwfc	(___flmul@prod+2)^0,f,c
 10588   005A88  2225               	addwfc	(___flmul@prod+3)^0,f,c
 10589   005A8A  5013               	movf	___flmul@a^0,w,c
 10590   005A8C  0211               	mulwf	(___flmul@b+2)^0,c
 10591   005A8E  006F FFCC  F026    	movff	prodl,___flmul@temp
 10592   005A94  006F FFD0  F027    	movff	prodh,___flmul@temp+1
 10593   005A9A  5026               	movf	___flmul@temp^0,w,c
 10594   005A9C  261C               	addwf	___flmul@grs^0,f,c
 10595   005A9E  0E00               	movlw	0
 10596   005AA0  221D               	addwfc	(___flmul@grs+1)^0,f,c
 10597   005AA2  221E               	addwfc	(___flmul@grs+2)^0,f,c
 10598   005AA4  221F               	addwfc	(___flmul@grs+3)^0,f,c
 10599   005AA6  5027               	movf	(___flmul@temp+1)^0,w,c
 10600   005AA8  2622               	addwf	___flmul@prod^0,f,c
 10601   005AAA  0E00               	movlw	0
 10602   005AAC  2223               	addwfc	(___flmul@prod+1)^0,f,c
 10603   005AAE  2224               	addwfc	(___flmul@prod+2)^0,f,c
 10604   005AB0  2225               	addwfc	(___flmul@prod+3)^0,f,c
 10605   005AB2  C01E  F01F         	movff	___flmul@grs+2,___flmul@grs+3
 10606   005AB6  C01D  F01E         	movff	___flmul@grs+1,___flmul@grs+2
 10607   005ABA  C01C  F01D         	movff	___flmul@grs,___flmul@grs+1
 10608   005ABE  6A1C               	clrf	___flmul@grs^0,c
 10609   005AC0  5013               	movf	___flmul@a^0,w,c
 10610   005AC2  0210               	mulwf	(___flmul@b+1)^0,c
 10611   005AC4  006F FFCC  F026    	movff	prodl,___flmul@temp
 10612   005ACA  006F FFD0  F027    	movff	prodh,___flmul@temp+1
 10613   005AD0  5026               	movf	___flmul@temp^0,w,c
 10614   005AD2  261C               	addwf	___flmul@grs^0,f,c
 10615   005AD4  5027               	movf	(___flmul@temp+1)^0,w,c
 10616   005AD6  221D               	addwfc	(___flmul@grs+1)^0,f,c
 10617   005AD8  0E00               	movlw	0
 10618   005ADA  221E               	addwfc	(___flmul@grs+2)^0,f,c
 10619   005ADC  0E00               	movlw	0
 10620   005ADE  221F               	addwfc	(___flmul@grs+3)^0,f,c
 10621   005AE0  5014               	movf	(___flmul@a+1)^0,w,c
 10622   005AE2  020F               	mulwf	___flmul@b^0,c
 10623   005AE4  006F FFCC  F026    	movff	prodl,___flmul@temp
 10624   005AEA  006F FFD0  F027    	movff	prodh,___flmul@temp+1
 10625   005AF0  5026               	movf	___flmul@temp^0,w,c
 10626   005AF2  261C               	addwf	___flmul@grs^0,f,c
 10627   005AF4  5027               	movf	(___flmul@temp+1)^0,w,c
 10628   005AF6  221D               	addwfc	(___flmul@grs+1)^0,f,c
 10629   005AF8  0E00               	movlw	0
 10630   005AFA  221E               	addwfc	(___flmul@grs+2)^0,f,c
 10631   005AFC  0E00               	movlw	0
 10632   005AFE  221F               	addwfc	(___flmul@grs+3)^0,f,c
 10633   005B00  C01E  F01F         	movff	___flmul@grs+2,___flmul@grs+3
 10634   005B04  C01D  F01E         	movff	___flmul@grs+1,___flmul@grs+2
 10635   005B08  C01C  F01D         	movff	___flmul@grs,___flmul@grs+1
 10636   005B0C  6A1C               	clrf	___flmul@grs^0,c
 10637   005B0E  5013               	movf	___flmul@a^0,w,c
 10638   005B10  020F               	mulwf	___flmul@b^0,c
 10639   005B12  006F FFCC  F026    	movff	prodl,___flmul@temp
 10640   005B18  006F FFD0  F027    	movff	prodh,___flmul@temp+1
 10641   005B1E  5026               	movf	___flmul@temp^0,w,c
 10642   005B20  261C               	addwf	___flmul@grs^0,f,c
 10643   005B22  5027               	movf	(___flmul@temp+1)^0,w,c
 10644   005B24  221D               	addwfc	(___flmul@grs+1)^0,f,c
 10645   005B26  0E00               	movlw	0
 10646   005B28  221E               	addwfc	(___flmul@grs+2)^0,f,c
 10647   005B2A  0E00               	movlw	0
 10648   005B2C  221F               	addwfc	(___flmul@grs+3)^0,f,c
 10649   005B2E  5015               	movf	(___flmul@a+2)^0,w,c
 10650   005B30  0210               	mulwf	(___flmul@b+1)^0,c
 10651   005B32  006F FFCC  F026    	movff	prodl,___flmul@temp
 10652   005B38  006F FFD0  F027    	movff	prodh,___flmul@temp+1
 10653   005B3E  5026               	movf	___flmul@temp^0,w,c
 10654   005B40  2622               	addwf	___flmul@prod^0,f,c
 10655   005B42  5027               	movf	(___flmul@temp+1)^0,w,c
 10656   005B44  2223               	addwfc	(___flmul@prod+1)^0,f,c
 10657   005B46  0E00               	movlw	0
 10658   005B48  2224               	addwfc	(___flmul@prod+2)^0,f,c
 10659   005B4A  0E00               	movlw	0
 10660   005B4C  2225               	addwfc	(___flmul@prod+3)^0,f,c
 10661   005B4E  5014               	movf	(___flmul@a+1)^0,w,c
 10662   005B50  0211               	mulwf	(___flmul@b+2)^0,c
 10663   005B52  006F FFCC  F026    	movff	prodl,___flmul@temp
 10664   005B58  006F FFD0  F027    	movff	prodh,___flmul@temp+1
 10665   005B5E  5026               	movf	___flmul@temp^0,w,c
 10666   005B60  2622               	addwf	___flmul@prod^0,f,c
 10667   005B62  5027               	movf	(___flmul@temp+1)^0,w,c
 10668   005B64  2223               	addwfc	(___flmul@prod+1)^0,f,c
 10669   005B66  0E00               	movlw	0
 10670   005B68  2224               	addwfc	(___flmul@prod+2)^0,f,c
 10671   005B6A  0E00               	movlw	0
 10672   005B6C  2225               	addwfc	(___flmul@prod+3)^0,f,c
 10673   005B6E  5015               	movf	(___flmul@a+2)^0,w,c
 10674   005B70  0211               	mulwf	(___flmul@b+2)^0,c
 10675   005B72  006F FFCC  F026    	movff	prodl,___flmul@temp
 10676   005B78  006F FFD0  F027    	movff	prodh,___flmul@temp+1
 10677   005B7E  5026               	movf	___flmul@temp^0,w,c
 10678   005B80  6E17               	movwf	??___flmul^0,c
 10679   005B82  5027               	movf	(___flmul@temp+1)^0,w,c
 10680   005B84  6E18               	movwf	(??___flmul+1)^0,c
 10681   005B86  6A19               	clrf	(??___flmul+2)^0,c
 10682   005B88  6A1A               	clrf	(??___flmul+3)^0,c
 10683   005B8A  C019  F01A         	movff	??___flmul+2,??___flmul+3
 10684   005B8E  C018  F019         	movff	??___flmul+1,??___flmul+2
 10685   005B92  C017  F018         	movff	??___flmul,??___flmul+1
 10686   005B96  6A17               	clrf	??___flmul^0,c
 10687   005B98  5017               	movf	??___flmul^0,w,c
 10688   005B9A  2622               	addwf	___flmul@prod^0,f,c
 10689   005B9C  5018               	movf	(??___flmul+1)^0,w,c
 10690   005B9E  2223               	addwfc	(___flmul@prod+1)^0,f,c
 10691   005BA0  5019               	movf	(??___flmul+2)^0,w,c
 10692   005BA2  2224               	addwfc	(___flmul@prod+2)^0,f,c
 10693   005BA4  501A               	movf	(??___flmul+3)^0,w,c
 10694   005BA6  2225               	addwfc	(___flmul@prod+3)^0,f,c
 10695   005BA8  C01C  F017         	movff	___flmul@grs,??___flmul
 10696   005BAC  C01D  F018         	movff	___flmul@grs+1,??___flmul+1
 10697   005BB0  C01E  F019         	movff	___flmul@grs+2,??___flmul+2
 10698   005BB4  C01F  F01A         	movff	___flmul@grs+3,??___flmul+3
 10699   005BB8  0E19               	movlw	25
 10700   005BBA  EFE4  F02D         	goto	u3480
 10701   005BBE                     u3485:
 10702   005BBE  90D8               	bcf	status,0,c
 10703   005BC0  321A               	rrcf	(??___flmul+3)^0,f,c
 10704   005BC2  3219               	rrcf	(??___flmul+2)^0,f,c
 10705   005BC4  3218               	rrcf	(??___flmul+1)^0,f,c
 10706   005BC6  3217               	rrcf	??___flmul^0,f,c
 10707   005BC8                     u3480:
 10708   005BC8  2EE8               	decfsz	wreg,f,c
 10709   005BCA  EFDF  F02D         	goto	u3485
 10710   005BCE  5017               	movf	??___flmul^0,w,c
 10711   005BD0  2622               	addwf	___flmul@prod^0,f,c
 10712   005BD2  5018               	movf	(??___flmul+1)^0,w,c
 10713   005BD4  2223               	addwfc	(___flmul@prod+1)^0,f,c
 10714   005BD6  5019               	movf	(??___flmul+2)^0,w,c
 10715   005BD8  2224               	addwfc	(___flmul@prod+2)^0,f,c
 10716   005BDA  501A               	movf	(??___flmul+3)^0,w,c
 10717   005BDC  2225               	addwfc	(___flmul@prod+3)^0,f,c
 10718   005BDE  C01E  F01F         	movff	___flmul@grs+2,___flmul@grs+3
 10719   005BE2  C01D  F01E         	movff	___flmul@grs+1,___flmul@grs+2
 10720   005BE6  C01C  F01D         	movff	___flmul@grs,___flmul@grs+1
 10721   005BEA  6A1C               	clrf	___flmul@grs^0,c
 10722   005BEC  5020               	movf	___flmul@aexp^0,w,c
 10723   005BEE  C021  F017         	movff	___flmul@bexp,??___flmul
 10724   005BF2  6A18               	clrf	(??___flmul+1)^0,c
 10725   005BF4  2617               	addwf	??___flmul^0,f,c
 10726   005BF6  0E00               	movlw	0
 10727   005BF8  2218               	addwfc	(??___flmul+1)^0,f,c
 10728   005BFA  0E82               	movlw	130
 10729   005BFC  2417               	addwf	??___flmul^0,w,c
 10730   005BFE  6E26               	movwf	___flmul@temp^0,c
 10731   005C00  0EFF               	movlw	255
 10732   005C02  2018               	addwfc	(??___flmul+1)^0,w,c
 10733   005C04  6E27               	movwf	(___flmul@temp+1)^0,c
 10734   005C06  EF1A  F02E         	goto	l3841
 10735   005C0A                     l3835:
 10736   005C0A  90D8               	bcf	status,0,c
 10737   005C0C  3622               	rlcf	___flmul@prod^0,f,c
 10738   005C0E  3623               	rlcf	(___flmul@prod+1)^0,f,c
 10739   005C10  3624               	rlcf	(___flmul@prod+2)^0,f,c
 10740   005C12  3625               	rlcf	(___flmul@prod+3)^0,f,c
 10741   005C14  AE1F               	btfss	(___flmul@grs+3)^0,7,c
 10742   005C16  EF0F  F02E         	goto	u3491
 10743   005C1A  EF11  F02E         	goto	u3490
 10744   005C1E                     u3491:
 10745   005C1E  EF12  F02E         	goto	l848
 10746   005C22                     u3490:
 10747   005C22  8022               	bsf	___flmul@prod^0,0,c
 10748   005C24                     l848:
 10749   005C24  90D8               	bcf	status,0,c
 10750   005C26  361C               	rlcf	___flmul@grs^0,f,c
 10751   005C28  361D               	rlcf	(___flmul@grs+1)^0,f,c
 10752   005C2A  361E               	rlcf	(___flmul@grs+2)^0,f,c
 10753   005C2C  361F               	rlcf	(___flmul@grs+3)^0,f,c
 10754   005C2E  0626               	decf	___flmul@temp^0,f,c
 10755   005C30  A0D8               	btfss	status,0,c
 10756   005C32  0627               	decf	(___flmul@temp+1)^0,f,c
 10757   005C34                     l3841:
 10758   005C34  AE24               	btfss	(___flmul@prod+2)^0,7,c
 10759   005C36  EF1F  F02E         	goto	u3501
 10760   005C3A  EF21  F02E         	goto	u3500
 10761   005C3E                     u3501:
 10762   005C3E  EF05  F02E         	goto	l3835
 10763   005C42                     u3500:
 10764   005C42  6A20               	clrf	___flmul@aexp^0,c
 10765   005C44  AE1F               	btfss	(___flmul@grs+3)^0,7,c
 10766   005C46  EF27  F02E         	goto	u3511
 10767   005C4A  EF29  F02E         	goto	u3510
 10768   005C4E                     u3511:
 10769   005C4E  EF4D  F02E         	goto	l850
 10770   005C52                     u3510:
 10771   005C52  0EFF               	movlw	255
 10772   005C54  141C               	andwf	___flmul@grs^0,w,c
 10773   005C56  6E17               	movwf	??___flmul^0,c
 10774   005C58  0EFF               	movlw	255
 10775   005C5A  141D               	andwf	(___flmul@grs+1)^0,w,c
 10776   005C5C  6E18               	movwf	(??___flmul+1)^0,c
 10777   005C5E  0EFF               	movlw	255
 10778   005C60  141E               	andwf	(___flmul@grs+2)^0,w,c
 10779   005C62  6E19               	movwf	(??___flmul+2)^0,c
 10780   005C64  0E7F               	movlw	127
 10781   005C66  141F               	andwf	(___flmul@grs+3)^0,w,c
 10782   005C68  6E1A               	movwf	(??___flmul+3)^0,c
 10783   005C6A  5017               	movf	??___flmul^0,w,c
 10784   005C6C  1018               	iorwf	(??___flmul+1)^0,w,c
 10785   005C6E  1019               	iorwf	(??___flmul+2)^0,w,c
 10786   005C70  101A               	iorwf	(??___flmul+3)^0,w,c
 10787   005C72  B4D8               	btfsc	status,2,c
 10788   005C74  EF3E  F02E         	goto	u3521
 10789   005C78  EF40  F02E         	goto	u3520
 10790   005C7C                     u3521:
 10791   005C7C  EF44  F02E         	goto	l851
 10792   005C80                     u3520:
 10793   005C80                     l3845:
 10794   005C80  0E01               	movlw	1
 10795   005C82  6E20               	movwf	___flmul@aexp^0,c
 10796   005C84  EF4D  F02E         	goto	l850
 10797   005C88                     l851:
 10798   005C88  A022               	btfss	___flmul@prod^0,0,c
 10799   005C8A  EF49  F02E         	goto	u3531
 10800   005C8E  EF4B  F02E         	goto	u3530
 10801   005C92                     u3531:
 10802   005C92  EF4D  F02E         	goto	l850
 10803   005C96                     u3530:
 10804   005C96  EF40  F02E         	goto	l3845
 10805   005C9A                     l850:
 10806   005C9A  5020               	movf	___flmul@aexp^0,w,c
 10807   005C9C  B4D8               	btfsc	status,2,c
 10808   005C9E  EF53  F02E         	goto	u3541
 10809   005CA2  EF55  F02E         	goto	u3540
 10810   005CA6                     u3541:
 10811   005CA6  EF79  F02E         	goto	l3857
 10812   005CAA                     u3540:
 10813   005CAA  0E01               	movlw	1
 10814   005CAC  2622               	addwf	___flmul@prod^0,f,c
 10815   005CAE  0E00               	movlw	0
 10816   005CB0  2223               	addwfc	(___flmul@prod+1)^0,f,c
 10817   005CB2  2224               	addwfc	(___flmul@prod+2)^0,f,c
 10818   005CB4  2225               	addwfc	(___flmul@prod+3)^0,f,c
 10819   005CB6  A025               	btfss	(___flmul@prod+3)^0,0,c
 10820   005CB8  EF60  F02E         	goto	u3551
 10821   005CBC  EF62  F02E         	goto	u3550
 10822   005CC0                     u3551:
 10823   005CC0  EF79  F02E         	goto	l3857
 10824   005CC4                     u3550:
 10825   005CC4  C022  F017         	movff	___flmul@prod,??___flmul
 10826   005CC8  C023  F018         	movff	___flmul@prod+1,??___flmul+1
 10827   005CCC  C024  F019         	movff	___flmul@prod+2,??___flmul+2
 10828   005CD0  C025  F01A         	movff	___flmul@prod+3,??___flmul+3
 10829   005CD4  341A               	rlcf	(??___flmul+3)^0,w,c
 10830   005CD6  321A               	rrcf	(??___flmul+3)^0,f,c
 10831   005CD8  3219               	rrcf	(??___flmul+2)^0,f,c
 10832   005CDA  3218               	rrcf	(??___flmul+1)^0,f,c
 10833   005CDC  3217               	rrcf	??___flmul^0,f,c
 10834   005CDE  C017  F022         	movff	??___flmul,___flmul@prod
 10835   005CE2  C018  F023         	movff	??___flmul+1,___flmul@prod+1
 10836   005CE6  C019  F024         	movff	??___flmul+2,___flmul@prod+2
 10837   005CEA  C01A  F025         	movff	??___flmul+3,___flmul@prod+3
 10838   005CEE  4A26               	infsnz	___flmul@temp^0,f,c
 10839   005CF0  2A27               	incf	(___flmul@temp+1)^0,f,c
 10840   005CF2                     l3857:
 10841   005CF2  BE27               	btfsc	(___flmul@temp+1)^0,7,c
 10842   005CF4  EF84  F02E         	goto	u3561
 10843   005CF8  5027               	movf	(___flmul@temp+1)^0,w,c
 10844   005CFA  E108               	bnz	u3560
 10845   005CFC  2826               	incf	___flmul@temp^0,w,c
 10846   005CFE  A0D8               	btfss	status,0,c
 10847   005D00  EF84  F02E         	goto	u3561
 10848   005D04  EF86  F02E         	goto	u3560
 10849   005D08                     u3561:
 10850   005D08  EF90  F02E         	goto	l3861
 10851   005D0C                     u3560:
 10852   005D0C  0E00               	movlw	0
 10853   005D0E  6E22               	movwf	___flmul@prod^0,c
 10854   005D10  0E00               	movlw	0
 10855   005D12  6E23               	movwf	(___flmul@prod+1)^0,c
 10856   005D14  0E80               	movlw	128
 10857   005D16  6E24               	movwf	(___flmul@prod+2)^0,c
 10858   005D18  0E7F               	movlw	127
 10859   005D1A  6E25               	movwf	(___flmul@prod+3)^0,c
 10860   005D1C  EFBD  F02E         	goto	l3875
 10861   005D20                     l3861:
 10862   005D20  BE27               	btfsc	(___flmul@temp+1)^0,7,c
 10863   005D22  EF9D  F02E         	goto	u3570
 10864   005D26  5027               	movf	(___flmul@temp+1)^0,w,c
 10865   005D28  E106               	bnz	u3571
 10866   005D2A  0426               	decf	___flmul@temp^0,w,c
 10867   005D2C  B0D8               	btfsc	status,0,c
 10868   005D2E  EF9B  F02E         	goto	u3571
 10869   005D32  EF9D  F02E         	goto	u3570
 10870   005D36                     u3571:
 10871   005D36  EFA8  F02E         	goto	l858
 10872   005D3A                     u3570:
 10873   005D3A  0E00               	movlw	0
 10874   005D3C  6E22               	movwf	___flmul@prod^0,c
 10875   005D3E  0E00               	movlw	0
 10876   005D40  6E23               	movwf	(___flmul@prod+1)^0,c
 10877   005D42  0E00               	movlw	0
 10878   005D44  6E24               	movwf	(___flmul@prod+2)^0,c
 10879   005D46  0E00               	movlw	0
 10880   005D48  6E25               	movwf	(___flmul@prod+3)^0,c
 10881   005D4A  6A1B               	clrf	___flmul@sign^0,c
 10882   005D4C  EFBD  F02E         	goto	l3875
 10883   005D50                     l858:
 10884   005D50  C026  F021         	movff	___flmul@temp,___flmul@bexp
 10885   005D54  0EFF               	movlw	255
 10886   005D56  1622               	andwf	___flmul@prod^0,f,c
 10887   005D58  0EFF               	movlw	255
 10888   005D5A  1623               	andwf	(___flmul@prod+1)^0,f,c
 10889   005D5C  0E7F               	movlw	127
 10890   005D5E  1624               	andwf	(___flmul@prod+2)^0,f,c
 10891   005D60  0E00               	movlw	0
 10892   005D62  1625               	andwf	(___flmul@prod+3)^0,f,c
 10893   005D64  A021               	btfss	___flmul@bexp^0,0,c
 10894   005D66  EFB7  F02E         	goto	u3581
 10895   005D6A  EFB9  F02E         	goto	u3580
 10896   005D6E                     u3581:
 10897   005D6E  EFBA  F02E         	goto	l3873
 10898   005D72                     u3580:
 10899   005D72  8E24               	bsf	(___flmul@prod+2)^0,7,c
 10900   005D74                     l3873:
 10901   005D74  90D8               	bcf	status,0,c
 10902   005D76  3021               	rrcf	___flmul@bexp^0,w,c
 10903   005D78  6E25               	movwf	(___flmul@prod+3)^0,c
 10904   005D7A                     l3875:
 10905   005D7A  501B               	movf	___flmul@sign^0,w,c
 10906   005D7C  1225               	iorwf	(___flmul@prod+3)^0,f,c
 10907   005D7E  C022  F00F         	movff	___flmul@prod,?___flmul
 10908   005D82  C023  F010         	movff	___flmul@prod+1,?___flmul+1
 10909   005D86  C024  F011         	movff	___flmul@prod+2,?___flmul+2
 10910   005D8A  C025  F012         	movff	___flmul@prod+3,?___flmul+3
 10911   005D8E                     l845:
 10912   005D8E  0012               	return		;funcret
 10913   005D90                     __end_of___flmul:
 10914                           	callstack 0
 10915                           
 10916 ;; *************** function ___flge *****************
 10917 ;; Defined at:
 10918 ;;		line 4 in file "C:\Program Files\Microchip\xc8\v3.00\pic\sources\c99\common\flge.c"
 10919 ;; Parameters:    Size  Location     Type
 10920 ;;  ff1             4   39[COMRAM] unsigned char 
 10921 ;;  ff2             4   43[COMRAM] unsigned char 
 10922 ;; Auto vars:     Size  Location     Type
 10923 ;;		None
 10924 ;; Return value:  Size  Location     Type
 10925 ;;		None               void
 10926 ;; Registers used:
 10927 ;;		wreg, status,2, status,0
 10928 ;; Tracked objects:
 10929 ;;		On entry : 0/0
 10930 ;;		On exit  : 0/0
 10931 ;;		Unchanged: 0/0
 10932 ;; Data sizes:     COMRAM   BANK0   BANK1   BANK2   BANK3   BANK4   BANK5   BANK6   BANK7   BANK8   BANK9  BANK10  BANK1
      +1  BANK12  BANK13  BANK14  BANK15  BANK16  BANK17  BANK18  BANK19  BANK20  BANK21  BANK22  BANK23  BANK24  BANK25  BANK2
      +6  BANK27  BANK28  BANK29  BANK30  BANK31
 10933 ;;      Params:         8       0       0       0       0       0       0       0       0       0       0       0       
      +0       0       0       0       0       0       0       0       0       0       0       0       0       0       0       
      +0       0       0       0       0       0
 10934 ;;      Locals:         0       0       0       0       0       0       0       0       0       0       0       0       
      +0       0       0       0       0       0       0       0       0       0       0       0       0       0       0       
      +0       0       0       0       0       0
 10935 ;;      Temps:          4       0       0       0       0       0       0       0       0       0       0       0       
      +0       0       0       0       0       0       0       0       0       0       0       0       0       0       0       
      +0       0       0       0       0       0
 10936 ;;      Totals:        12       0       0       0       0       0       0       0       0       0       0       0       
      +0       0       0       0       0       0       0       0       0       0       0       0       0       0       0       
      +0       0       0       0       0       0
 10937 ;;Total ram usage:       12 bytes
 10938 ;; Hardware stack levels used: 1
 10939 ;; This function calls:
 10940 ;;		Nothing
 10941 ;; This function is called by:
 10942 ;;		_main
 10943 ;;		_efgtoa
 10944 ;; This function uses a non-reentrant model
 10945 ;;
 10946                           
 10947                           	psect	text17
 10948   006A2C                     __ptext17:
 10949                           	callstack 0
 10950   006A2C                     ___flge:
 10951                           	callstack 26
 10952   006A2C  0E00               	movlw	0
 10953   006A2E  1428               	andwf	___flge@ff1^0,w,c
 10954   006A30  6E30               	movwf	??___flge^0,c
 10955   006A32  0E00               	movlw	0
 10956   006A34  1429               	andwf	(___flge@ff1+1)^0,w,c
 10957   006A36  6E31               	movwf	(??___flge+1)^0,c
 10958   006A38  0E80               	movlw	128
 10959   006A3A  142A               	andwf	(___flge@ff1+2)^0,w,c
 10960   006A3C  6E32               	movwf	(??___flge+2)^0,c
 10961   006A3E  0E7F               	movlw	127
 10962   006A40  142B               	andwf	(___flge@ff1+3)^0,w,c
 10963   006A42  6E33               	movwf	(??___flge+3)^0,c
 10964   006A44  5030               	movf	??___flge^0,w,c
 10965   006A46  1031               	iorwf	(??___flge+1)^0,w,c
 10966   006A48  1032               	iorwf	(??___flge+2)^0,w,c
 10967   006A4A  1033               	iorwf	(??___flge+3)^0,w,c
 10968   006A4C  A4D8               	btfss	status,2,c
 10969   006A4E  EF2B  F035         	goto	u3741
 10970   006A52  EF2D  F035         	goto	u3740
 10971   006A56                     u3741:
 10972   006A56  EF35  F035         	goto	l3987
 10973   006A5A                     u3740:
 10974   006A5A  0E00               	movlw	0
 10975   006A5C  6E28               	movwf	___flge@ff1^0,c
 10976   006A5E  0E00               	movlw	0
 10977   006A60  6E29               	movwf	(___flge@ff1+1)^0,c
 10978   006A62  0E00               	movlw	0
 10979   006A64  6E2A               	movwf	(___flge@ff1+2)^0,c
 10980   006A66  0E00               	movlw	0
 10981   006A68  6E2B               	movwf	(___flge@ff1+3)^0,c
 10982   006A6A                     l3987:
 10983   006A6A  0E00               	movlw	0
 10984   006A6C  142C               	andwf	___flge@ff2^0,w,c
 10985   006A6E  6E30               	movwf	??___flge^0,c
 10986   006A70  0E00               	movlw	0
 10987   006A72  142D               	andwf	(___flge@ff2+1)^0,w,c
 10988   006A74  6E31               	movwf	(??___flge+1)^0,c
 10989   006A76  0E80               	movlw	128
 10990   006A78  142E               	andwf	(___flge@ff2+2)^0,w,c
 10991   006A7A  6E32               	movwf	(??___flge+2)^0,c
 10992   006A7C  0E7F               	movlw	127
 10993   006A7E  142F               	andwf	(___flge@ff2+3)^0,w,c
 10994   006A80  6E33               	movwf	(??___flge+3)^0,c
 10995   006A82  5030               	movf	??___flge^0,w,c
 10996   006A84  1031               	iorwf	(??___flge+1)^0,w,c
 10997   006A86  1032               	iorwf	(??___flge+2)^0,w,c
 10998   006A88  1033               	iorwf	(??___flge+3)^0,w,c
 10999   006A8A  A4D8               	btfss	status,2,c
 11000   006A8C  EF4A  F035         	goto	u3751
 11001   006A90  EF4C  F035         	goto	u3750
 11002   006A94                     u3751:
 11003   006A94  EF54  F035         	goto	l3991
 11004   006A98                     u3750:
 11005   006A98  0E00               	movlw	0
 11006   006A9A  6E2C               	movwf	___flge@ff2^0,c
 11007   006A9C  0E00               	movlw	0
 11008   006A9E  6E2D               	movwf	(___flge@ff2+1)^0,c
 11009   006AA0  0E00               	movlw	0
 11010   006AA2  6E2E               	movwf	(___flge@ff2+2)^0,c
 11011   006AA4  0E00               	movlw	0
 11012   006AA6  6E2F               	movwf	(___flge@ff2+3)^0,c
 11013   006AA8                     l3991:
 11014   006AA8  AE2B               	btfss	(___flge@ff1+3)^0,7,c
 11015   006AAA  EF59  F035         	goto	u3761
 11016   006AAE  EF5B  F035         	goto	u3760
 11017   006AB2                     u3761:
 11018   006AB2  EF64  F035         	goto	l3995
 11019   006AB6                     u3760:
 11020   006AB6  6C28               	negf	___flge@ff1^0,c
 11021   006AB8  1E29               	comf	(___flge@ff1+1)^0,f,c
 11022   006ABA  B0D8               	btfsc	status,0,c
 11023   006ABC  2A29               	incf	(___flge@ff1+1)^0,f,c
 11024   006ABE  1E2A               	comf	(___flge@ff1+2)^0,f,c
 11025   006AC0  B0D8               	btfsc	status,0,c
 11026   006AC2  2A2A               	incf	(___flge@ff1+2)^0,f,c
 11027   006AC4  0E80               	movlw	128
 11028   006AC6  562B               	subfwb	(___flge@ff1+3)^0,f,c
 11029   006AC8                     l3995:
 11030   006AC8  AE2F               	btfss	(___flge@ff2+3)^0,7,c
 11031   006ACA  EF69  F035         	goto	u3771
 11032   006ACE  EF6B  F035         	goto	u3770
 11033   006AD2                     u3771:
 11034   006AD2  EF74  F035         	goto	l492
 11035   006AD6                     u3770:
 11036   006AD6  6C2C               	negf	___flge@ff2^0,c
 11037   006AD8  1E2D               	comf	(___flge@ff2+1)^0,f,c
 11038   006ADA  B0D8               	btfsc	status,0,c
 11039   006ADC  2A2D               	incf	(___flge@ff2+1)^0,f,c
 11040   006ADE  1E2E               	comf	(___flge@ff2+2)^0,f,c
 11041   006AE0  B0D8               	btfsc	status,0,c
 11042   006AE2  2A2E               	incf	(___flge@ff2+2)^0,f,c
 11043   006AE4  0E80               	movlw	128
 11044   006AE6  562F               	subfwb	(___flge@ff2+3)^0,f,c
 11045   006AE8                     l492:
 11046   006AE8  0E00               	movlw	0
 11047   006AEA  1A28               	xorwf	___flge@ff1^0,f,c
 11048   006AEC  0E00               	movlw	0
 11049   006AEE  1A29               	xorwf	(___flge@ff1+1)^0,f,c
 11050   006AF0  0E00               	movlw	0
 11051   006AF2  1A2A               	xorwf	(___flge@ff1+2)^0,f,c
 11052   006AF4  0E80               	movlw	128
 11053   006AF6  1A2B               	xorwf	(___flge@ff1+3)^0,f,c
 11054   006AF8  0E00               	movlw	0
 11055   006AFA  1A2C               	xorwf	___flge@ff2^0,f,c
 11056   006AFC  0E00               	movlw	0
 11057   006AFE  1A2D               	xorwf	(___flge@ff2+1)^0,f,c
 11058   006B00  0E00               	movlw	0
 11059   006B02  1A2E               	xorwf	(___flge@ff2+2)^0,f,c
 11060   006B04  0E80               	movlw	128
 11061   006B06  1A2F               	xorwf	(___flge@ff2+3)^0,f,c
 11062   006B08  502C               	movf	___flge@ff2^0,w,c
 11063   006B0A  5C28               	subwf	___flge@ff1^0,w,c
 11064   006B0C  502D               	movf	(___flge@ff2+1)^0,w,c
 11065   006B0E  5829               	subwfb	(___flge@ff1+1)^0,w,c
 11066   006B10  502E               	movf	(___flge@ff2+2)^0,w,c
 11067   006B12  582A               	subwfb	(___flge@ff1+2)^0,w,c
 11068   006B14  502F               	movf	(___flge@ff2+3)^0,w,c
 11069   006B16  582B               	subwfb	(___flge@ff1+3)^0,w,c
 11070   006B18  B0D8               	btfsc	status,0,c
 11071   006B1A  EF91  F035         	goto	u3781
 11072   006B1E  EF93  F035         	goto	u3780
 11073   006B22                     u3781:
 11074   006B22  EF96  F035         	goto	l4001
 11075   006B26                     u3780:
 11076   006B26  90D8               	bcf	status,0,c
 11077   006B28  EF97  F035         	goto	l497
 11078   006B2C                     l4001:
 11079   006B2C  80D8               	bsf	status,0,c
 11080   006B2E                     l497:
 11081   006B2E  0012               	return		;funcret
 11082   006B30                     __end_of___flge:
 11083                           	callstack 0
 11084                           
 11085 ;; *************** function ___fleq *****************
 11086 ;; Defined at:
 11087 ;;		line 4 in file "C:\Program Files\Microchip\xc8\v3.00\pic\sources\c99\common\fleq.c"
 11088 ;; Parameters:    Size  Location     Type
 11089 ;;  ff1             4   14[COMRAM] unsigned char 
 11090 ;;  ff2             4   18[COMRAM] unsigned char 
 11091 ;; Auto vars:     Size  Location     Type
 11092 ;;		None
 11093 ;; Return value:  Size  Location     Type
 11094 ;;		None               void
 11095 ;; Registers used:
 11096 ;;		wreg, status,2, status,0
 11097 ;; Tracked objects:
 11098 ;;		On entry : 0/0
 11099 ;;		On exit  : 0/0
 11100 ;;		Unchanged: 0/0
 11101 ;; Data sizes:     COMRAM   BANK0   BANK1   BANK2   BANK3   BANK4   BANK5   BANK6   BANK7   BANK8   BANK9  BANK10  BANK1
      +1  BANK12  BANK13  BANK14  BANK15  BANK16  BANK17  BANK18  BANK19  BANK20  BANK21  BANK22  BANK23  BANK24  BANK25  BANK2
      +6  BANK27  BANK28  BANK29  BANK30  BANK31
 11102 ;;      Params:         8       0       0       0       0       0       0       0       0       0       0       0       
      +0       0       0       0       0       0       0       0       0       0       0       0       0       0       0       
      +0       0       0       0       0       0
 11103 ;;      Locals:         0       0       0       0       0       0       0       0       0       0       0       0       
      +0       0       0       0       0       0       0       0       0       0       0       0       0       0       0       
      +0       0       0       0       0       0
 11104 ;;      Temps:          4       0       0       0       0       0       0       0       0       0       0       0       
      +0       0       0       0       0       0       0       0       0       0       0       0       0       0       0       
      +0       0       0       0       0       0
 11105 ;;      Totals:        12       0       0       0       0       0       0       0       0       0       0       0       
      +0       0       0       0       0       0       0       0       0       0       0       0       0       0       0       
      +0       0       0       0       0       0
 11106 ;;Total ram usage:       12 bytes
 11107 ;; Hardware stack levels used: 1
 11108 ;; This function calls:
 11109 ;;		Nothing
 11110 ;; This function is called by:
 11111 ;;		_main
 11112 ;;		_efgtoa
 11113 ;; This function uses a non-reentrant model
 11114 ;;
 11115                           
 11116                           	psect	text18
 11117   006F02                     __ptext18:
 11118                           	callstack 0
 11119   006F02                     ___fleq:
 11120                           	callstack 26
 11121   006F02  0E00               	movlw	0
 11122   006F04  140F               	andwf	___fleq@ff1^0,w,c
 11123   006F06  6E17               	movwf	??___fleq^0,c
 11124   006F08  0E00               	movlw	0
 11125   006F0A  1410               	andwf	(___fleq@ff1+1)^0,w,c
 11126   006F0C  6E18               	movwf	(??___fleq+1)^0,c
 11127   006F0E  0E80               	movlw	128
 11128   006F10  1411               	andwf	(___fleq@ff1+2)^0,w,c
 11129   006F12  6E19               	movwf	(??___fleq+2)^0,c
 11130   006F14  0E7F               	movlw	127
 11131   006F16  1412               	andwf	(___fleq@ff1+3)^0,w,c
 11132   006F18  6E1A               	movwf	(??___fleq+3)^0,c
 11133   006F1A  5017               	movf	??___fleq^0,w,c
 11134   006F1C  1018               	iorwf	(??___fleq+1)^0,w,c
 11135   006F1E  1019               	iorwf	(??___fleq+2)^0,w,c
 11136   006F20  101A               	iorwf	(??___fleq+3)^0,w,c
 11137   006F22  A4D8               	btfss	status,2,c
 11138   006F24  EF96  F037         	goto	u3711
 11139   006F28  EF98  F037         	goto	u3710
 11140   006F2C                     u3711:
 11141   006F2C  EFA0  F037         	goto	l3971
 11142   006F30                     u3710:
 11143   006F30  0E00               	movlw	0
 11144   006F32  6E0F               	movwf	___fleq@ff1^0,c
 11145   006F34  0E00               	movlw	0
 11146   006F36  6E10               	movwf	(___fleq@ff1+1)^0,c
 11147   006F38  0E00               	movlw	0
 11148   006F3A  6E11               	movwf	(___fleq@ff1+2)^0,c
 11149   006F3C  0E00               	movlw	0
 11150   006F3E  6E12               	movwf	(___fleq@ff1+3)^0,c
 11151   006F40                     l3971:
 11152   006F40  0E00               	movlw	0
 11153   006F42  1413               	andwf	___fleq@ff2^0,w,c
 11154   006F44  6E17               	movwf	??___fleq^0,c
 11155   006F46  0E00               	movlw	0
 11156   006F48  1414               	andwf	(___fleq@ff2+1)^0,w,c
 11157   006F4A  6E18               	movwf	(??___fleq+1)^0,c
 11158   006F4C  0E80               	movlw	128
 11159   006F4E  1415               	andwf	(___fleq@ff2+2)^0,w,c
 11160   006F50  6E19               	movwf	(??___fleq+2)^0,c
 11161   006F52  0E7F               	movlw	127
 11162   006F54  1416               	andwf	(___fleq@ff2+3)^0,w,c
 11163   006F56  6E1A               	movwf	(??___fleq+3)^0,c
 11164   006F58  5017               	movf	??___fleq^0,w,c
 11165   006F5A  1018               	iorwf	(??___fleq+1)^0,w,c
 11166   006F5C  1019               	iorwf	(??___fleq+2)^0,w,c
 11167   006F5E  101A               	iorwf	(??___fleq+3)^0,w,c
 11168   006F60  A4D8               	btfss	status,2,c
 11169   006F62  EFB5  F037         	goto	u3721
 11170   006F66  EFB7  F037         	goto	u3720
 11171   006F6A                     u3721:
 11172   006F6A  EFBF  F037         	goto	l3975
 11173   006F6E                     u3720:
 11174   006F6E  0E00               	movlw	0
 11175   006F70  6E13               	movwf	___fleq@ff2^0,c
 11176   006F72  0E00               	movlw	0
 11177   006F74  6E14               	movwf	(___fleq@ff2+1)^0,c
 11178   006F76  0E00               	movlw	0
 11179   006F78  6E15               	movwf	(___fleq@ff2+2)^0,c
 11180   006F7A  0E00               	movlw	0
 11181   006F7C  6E16               	movwf	(___fleq@ff2+3)^0,c
 11182   006F7E                     l3975:
 11183   006F7E  5013               	movf	___fleq@ff2^0,w,c
 11184   006F80  180F               	xorwf	___fleq@ff1^0,w,c
 11185   006F82  E10F               	bnz	u3730
 11186   006F84  5014               	movf	(___fleq@ff2+1)^0,w,c
 11187   006F86  1810               	xorwf	(___fleq@ff1+1)^0,w,c
 11188   006F88  E10C               	bnz	u3730
 11189   006F8A  5015               	movf	(___fleq@ff2+2)^0,w,c
 11190   006F8C  1811               	xorwf	(___fleq@ff1+2)^0,w,c
 11191   006F8E  E109               	bnz	u3730
 11192   006F90  5016               	movf	(___fleq@ff2+3)^0,w,c
 11193   006F92  1812               	xorwf	(___fleq@ff1+3)^0,w,c
 11194   006F94  B4D8               	btfsc	status,2,c
 11195   006F96  EFCF  F037         	goto	u3731
 11196   006F9A  EFD1  F037         	goto	u3730
 11197   006F9E                     u3731:
 11198   006F9E  EFD4  F037         	goto	l3979
 11199   006FA2                     u3730:
 11200   006FA2  90D8               	bcf	status,0,c
 11201   006FA4  EFD5  F037         	goto	l486
 11202   006FA8                     l3979:
 11203   006FA8  80D8               	bsf	status,0,c
 11204   006FAA                     l486:
 11205   006FAA  0012               	return		;funcret
 11206   006FAC                     __end_of___fleq:
 11207                           	callstack 0
 11208                           
 11209 ;; *************** function ___fldiv *****************
 11210 ;; Defined at:
 11211 ;;		line 11 in file "C:\Program Files\Microchip\xc8\v3.00\pic\sources\c99\common\sprcdiv.c"
 11212 ;; Parameters:    Size  Location     Type
 11213 ;;  b               4    0[COMRAM] unsigned char 
 11214 ;;  a               4    4[COMRAM] unsigned char 
 11215 ;; Auto vars:     Size  Location     Type
 11216 ;;  grs             4   19[COMRAM] unsigned long 
 11217 ;;  rem             4   12[COMRAM] unsigned long 
 11218 ;;  new_exp         2   17[COMRAM] short 
 11219 ;;  aexp            1   24[COMRAM] unsigned char 
 11220 ;;  bexp            1   23[COMRAM] unsigned char 
 11221 ;;  sign            1   16[COMRAM] unsigned char 
 11222 ;; Return value:  Size  Location     Type
 11223 ;;                  4    0[COMRAM] unsigned char 
 11224 ;; Registers used:
 11225 ;;		wreg, status,2, status,0
 11226 ;; Tracked objects:
 11227 ;;		On entry : 0/0
 11228 ;;		On exit  : 0/0
 11229 ;;		Unchanged: 0/0
 11230 ;; Data sizes:     COMRAM   BANK0   BANK1   BANK2   BANK3   BANK4   BANK5   BANK6   BANK7   BANK8   BANK9  BANK10  BANK1
      +1  BANK12  BANK13  BANK14  BANK15  BANK16  BANK17  BANK18  BANK19  BANK20  BANK21  BANK22  BANK23  BANK24  BANK25  BANK2
      +6  BANK27  BANK28  BANK29  BANK30  BANK31
 11231 ;;      Params:         8       0       0       0       0       0       0       0       0       0       0       0       
      +0       0       0       0       0       0       0       0       0       0       0       0       0       0       0       
      +0       0       0       0       0       0
 11232 ;;      Locals:        13       0       0       0       0       0       0       0       0       0       0       0       
      +0       0       0       0       0       0       0       0       0       0       0       0       0       0       0       
      +0       0       0       0       0       0
 11233 ;;      Temps:          4       0       0       0       0       0       0       0       0       0       0       0       
      +0       0       0       0       0       0       0       0       0       0       0       0       0       0       0       
      +0       0       0       0       0       0
 11234 ;;      Totals:        25       0       0       0       0       0       0       0       0       0       0       0       
      +0       0       0       0       0       0       0       0       0       0       0       0       0       0       0       
      +0       0       0       0       0       0
 11235 ;;Total ram usage:       25 bytes
 11236 ;; Hardware stack levels used: 1
 11237 ;; This function calls:
 11238 ;;		Nothing
 11239 ;; This function is called by:
 11240 ;;		_efgtoa
 11241 ;; This function uses a non-reentrant model
 11242 ;;
 11243                           
 11244                           	psect	text19
 11245   005D90                     __ptext19:
 11246                           	callstack 0
 11247   005D90                     ___fldiv:
 11248                           	callstack 26
 11249   005D90  5004               	movf	(___fldiv@b+3)^0,w,c
 11250   005D92  0B80               	andlw	128
 11251   005D94  6E11               	movwf	___fldiv@sign^0,c
 11252   005D96  5004               	movf	(___fldiv@b+3)^0,w,c
 11253   005D98  2404               	addwf	(___fldiv@b+3)^0,w,c
 11254   005D9A  6E18               	movwf	___fldiv@bexp^0,c
 11255   005D9C  AE03               	btfss	(___fldiv@b+2)^0,7,c
 11256   005D9E  EFD3  F02E         	goto	u3171
 11257   005DA2  EFD5  F02E         	goto	u3170
 11258   005DA6                     u3171:
 11259   005DA6  EFD6  F02E         	goto	l3623
 11260   005DAA                     u3170:
 11261   005DAA  8018               	bsf	___fldiv@bexp^0,0,c
 11262   005DAC                     l3623:
 11263   005DAC  5018               	movf	___fldiv@bexp^0,w,c
 11264   005DAE  B4D8               	btfsc	status,2,c
 11265   005DB0  EFDC  F02E         	goto	u3181
 11266   005DB4  EFDE  F02E         	goto	u3180
 11267   005DB8                     u3181:
 11268   005DB8  EFF2  F02E         	goto	l3633
 11269   005DBC                     u3180:
 11270   005DBC  2818               	incf	___fldiv@bexp^0,w,c
 11271   005DBE  A4D8               	btfss	status,2,c
 11272   005DC0  EFE4  F02E         	goto	u3191
 11273   005DC4  EFE6  F02E         	goto	u3190
 11274   005DC8                     u3191:
 11275   005DC8  EFEE  F02E         	goto	l3629
 11276   005DCC                     u3190:
 11277   005DCC  0E00               	movlw	0
 11278   005DCE  6E01               	movwf	___fldiv@b^0,c
 11279   005DD0  0E00               	movlw	0
 11280   005DD2  6E02               	movwf	(___fldiv@b+1)^0,c
 11281   005DD4  0E00               	movlw	0
 11282   005DD6  6E03               	movwf	(___fldiv@b+2)^0,c
 11283   005DD8  0E00               	movlw	0
 11284   005DDA  6E04               	movwf	(___fldiv@b+3)^0,c
 11285   005DDC                     l3629:
 11286   005DDC  8E03               	bsf	(___fldiv@b+2)^0,7,c
 11287   005DDE  6A04               	clrf	(___fldiv@b+3)^0,c
 11288   005DE0  EFFA  F02E         	goto	l3635
 11289   005DE4                     l3633:
 11290   005DE4  0E00               	movlw	0
 11291   005DE6  6E01               	movwf	___fldiv@b^0,c
 11292   005DE8  0E00               	movlw	0
 11293   005DEA  6E02               	movwf	(___fldiv@b+1)^0,c
 11294   005DEC  0E00               	movlw	0
 11295   005DEE  6E03               	movwf	(___fldiv@b+2)^0,c
 11296   005DF0  0E00               	movlw	0
 11297   005DF2  6E04               	movwf	(___fldiv@b+3)^0,c
 11298   005DF4                     l3635:
 11299   005DF4  5008               	movf	(___fldiv@a+3)^0,w,c
 11300   005DF6  0B80               	andlw	128
 11301   005DF8  1A11               	xorwf	___fldiv@sign^0,f,c
 11302   005DFA  5008               	movf	(___fldiv@a+3)^0,w,c
 11303   005DFC  2408               	addwf	(___fldiv@a+3)^0,w,c
 11304   005DFE  6E19               	movwf	___fldiv@aexp^0,c
 11305   005E00  AE07               	btfss	(___fldiv@a+2)^0,7,c
 11306   005E02  EF05  F02F         	goto	u3201
 11307   005E06  EF07  F02F         	goto	u3200
 11308   005E0A                     u3201:
 11309   005E0A  EF08  F02F         	goto	l3643
 11310   005E0E                     u3200:
 11311   005E0E  8019               	bsf	___fldiv@aexp^0,0,c
 11312   005E10                     l3643:
 11313   005E10  5019               	movf	___fldiv@aexp^0,w,c
 11314   005E12  B4D8               	btfsc	status,2,c
 11315   005E14  EF0E  F02F         	goto	u3211
 11316   005E18  EF10  F02F         	goto	u3210
 11317   005E1C                     u3211:
 11318   005E1C  EF24  F02F         	goto	l3653
 11319   005E20                     u3210:
 11320   005E20  2819               	incf	___fldiv@aexp^0,w,c
 11321   005E22  A4D8               	btfss	status,2,c
 11322   005E24  EF16  F02F         	goto	u3221
 11323   005E28  EF18  F02F         	goto	u3220
 11324   005E2C                     u3221:
 11325   005E2C  EF20  F02F         	goto	l3649
 11326   005E30                     u3220:
 11327   005E30  0E00               	movlw	0
 11328   005E32  6E05               	movwf	___fldiv@a^0,c
 11329   005E34  0E00               	movlw	0
 11330   005E36  6E06               	movwf	(___fldiv@a+1)^0,c
 11331   005E38  0E00               	movlw	0
 11332   005E3A  6E07               	movwf	(___fldiv@a+2)^0,c
 11333   005E3C  0E00               	movlw	0
 11334   005E3E  6E08               	movwf	(___fldiv@a+3)^0,c
 11335   005E40                     l3649:
 11336   005E40  8E07               	bsf	(___fldiv@a+2)^0,7,c
 11337   005E42  6A08               	clrf	(___fldiv@a+3)^0,c
 11338   005E44  EF2C  F02F         	goto	l3655
 11339   005E48                     l3653:
 11340   005E48  0E00               	movlw	0
 11341   005E4A  6E05               	movwf	___fldiv@a^0,c
 11342   005E4C  0E00               	movlw	0
 11343   005E4E  6E06               	movwf	(___fldiv@a+1)^0,c
 11344   005E50  0E00               	movlw	0
 11345   005E52  6E07               	movwf	(___fldiv@a+2)^0,c
 11346   005E54  0E00               	movlw	0
 11347   005E56  6E08               	movwf	(___fldiv@a+3)^0,c
 11348   005E58                     l3655:
 11349   005E58  5005               	movf	___fldiv@a^0,w,c
 11350   005E5A  1006               	iorwf	(___fldiv@a+1)^0,w,c
 11351   005E5C  1007               	iorwf	(___fldiv@a+2)^0,w,c
 11352   005E5E  1008               	iorwf	(___fldiv@a+3)^0,w,c
 11353   005E60  A4D8               	btfss	status,2,c
 11354   005E62  EF35  F02F         	goto	u3231
 11355   005E66  EF37  F02F         	goto	u3230
 11356   005E6A                     u3231:
 11357   005E6A  EF4F  F02F         	goto	l3667
 11358   005E6E                     u3230:
 11359   005E6E  0E00               	movlw	0
 11360   005E70  6E01               	movwf	___fldiv@b^0,c
 11361   005E72  0E00               	movlw	0
 11362   005E74  6E02               	movwf	(___fldiv@b+1)^0,c
 11363   005E76  0E00               	movlw	0
 11364   005E78  6E03               	movwf	(___fldiv@b+2)^0,c
 11365   005E7A  0E00               	movlw	0
 11366   005E7C  6E04               	movwf	(___fldiv@b+3)^0,c
 11367   005E7E  0E80               	movlw	128
 11368   005E80  1203               	iorwf	(___fldiv@b+2)^0,f,c
 11369   005E82  0E7F               	movlw	127
 11370   005E84  1204               	iorwf	(___fldiv@b+3)^0,f,c
 11371   005E86                     l3661:
 11372   005E86  5011               	movf	___fldiv@sign^0,w,c
 11373   005E88  1204               	iorwf	(___fldiv@b+3)^0,f,c
 11374   005E8A  C001  F001         	movff	___fldiv@b,?___fldiv
 11375   005E8E  C002  F002         	movff	___fldiv@b+1,?___fldiv+1
 11376   005E92  C003  F003         	movff	___fldiv@b+2,?___fldiv+2
 11377   005E96  C004  F004         	movff	___fldiv@b+3,?___fldiv+3
 11378   005E9A  EF8F  F030         	goto	l809
 11379   005E9E                     l3667:
 11380   005E9E  5018               	movf	___fldiv@bexp^0,w,c
 11381   005EA0  A4D8               	btfss	status,2,c
 11382   005EA2  EF55  F02F         	goto	u3241
 11383   005EA6  EF57  F02F         	goto	u3240
 11384   005EAA                     u3241:
 11385   005EAA  EF61  F02F         	goto	l3675
 11386   005EAE                     u3240:
 11387   005EAE  0E00               	movlw	0
 11388   005EB0  6E01               	movwf	?___fldiv^0,c
 11389   005EB2  0E00               	movlw	0
 11390   005EB4  6E02               	movwf	(?___fldiv+1)^0,c
 11391   005EB6  0E00               	movlw	0
 11392   005EB8  6E03               	movwf	(?___fldiv+2)^0,c
 11393   005EBA  0E00               	movlw	0
 11394   005EBC  6E04               	movwf	(?___fldiv+3)^0,c
 11395   005EBE  EF8F  F030         	goto	l809
 11396   005EC2                     l3675:
 11397   005EC2  5019               	movf	___fldiv@aexp^0,w,c
 11398   005EC4  C018  F009         	movff	___fldiv@bexp,??___fldiv
 11399   005EC8  6A0A               	clrf	(??___fldiv+1)^0,c
 11400   005ECA  5E09               	subwf	??___fldiv^0,f,c
 11401   005ECC  0E00               	movlw	0
 11402   005ECE  5A0A               	subwfb	(??___fldiv+1)^0,f,c
 11403   005ED0  0E7F               	movlw	127
 11404   005ED2  2409               	addwf	??___fldiv^0,w,c
 11405   005ED4  6E12               	movwf	___fldiv@new_exp^0,c
 11406   005ED6  0E00               	movlw	0
 11407   005ED8  200A               	addwfc	(??___fldiv+1)^0,w,c
 11408   005EDA  6E13               	movwf	(___fldiv@new_exp+1)^0,c
 11409   005EDC  C001  F00D         	movff	___fldiv@b,___fldiv@rem
 11410   005EE0  C002  F00E         	movff	___fldiv@b+1,___fldiv@rem+1
 11411   005EE4  C003  F00F         	movff	___fldiv@b+2,___fldiv@rem+2
 11412   005EE8  C004  F010         	movff	___fldiv@b+3,___fldiv@rem+3
 11413   005EEC  0E00               	movlw	0
 11414   005EEE  6E01               	movwf	___fldiv@b^0,c
 11415   005EF0  0E00               	movlw	0
 11416   005EF2  6E02               	movwf	(___fldiv@b+1)^0,c
 11417   005EF4  0E00               	movlw	0
 11418   005EF6  6E03               	movwf	(___fldiv@b+2)^0,c
 11419   005EF8  0E00               	movlw	0
 11420   005EFA  6E04               	movwf	(___fldiv@b+3)^0,c
 11421   005EFC  0E00               	movlw	0
 11422   005EFE  6E14               	movwf	___fldiv@grs^0,c
 11423   005F00  0E00               	movlw	0
 11424   005F02  6E15               	movwf	(___fldiv@grs+1)^0,c
 11425   005F04  0E00               	movlw	0
 11426   005F06  6E16               	movwf	(___fldiv@grs+2)^0,c
 11427   005F08  0E00               	movlw	0
 11428   005F0A  6E17               	movwf	(___fldiv@grs+3)^0,c
 11429   005F0C  6A19               	clrf	___fldiv@aexp^0,c
 11430   005F0E  EFC1  F02F         	goto	l811
 11431   005F12                     l3685:
 11432   005F12  5019               	movf	___fldiv@aexp^0,w,c
 11433   005F14  B4D8               	btfsc	status,2,c
 11434   005F16  EF8F  F02F         	goto	u3251
 11435   005F1A  EF91  F02F         	goto	u3250
 11436   005F1E                     u3251:
 11437   005F1E  EFA8  F02F         	goto	l3693
 11438   005F22                     u3250:
 11439   005F22  90D8               	bcf	status,0,c
 11440   005F24  360D               	rlcf	___fldiv@rem^0,f,c
 11441   005F26  360E               	rlcf	(___fldiv@rem+1)^0,f,c
 11442   005F28  360F               	rlcf	(___fldiv@rem+2)^0,f,c
 11443   005F2A  3610               	rlcf	(___fldiv@rem+3)^0,f,c
 11444   005F2C  90D8               	bcf	status,0,c
 11445   005F2E  3601               	rlcf	___fldiv@b^0,f,c
 11446   005F30  3602               	rlcf	(___fldiv@b+1)^0,f,c
 11447   005F32  3603               	rlcf	(___fldiv@b+2)^0,f,c
 11448   005F34  3604               	rlcf	(___fldiv@b+3)^0,f,c
 11449   005F36  AE17               	btfss	(___fldiv@grs+3)^0,7,c
 11450   005F38  EFA0  F02F         	goto	u3261
 11451   005F3C  EFA2  F02F         	goto	u3260
 11452   005F40                     u3261:
 11453   005F40  EFA3  F02F         	goto	l814
 11454   005F44                     u3260:
 11455   005F44  8001               	bsf	___fldiv@b^0,0,c
 11456   005F46                     l814:
 11457   005F46  90D8               	bcf	status,0,c
 11458   005F48  3614               	rlcf	___fldiv@grs^0,f,c
 11459   005F4A  3615               	rlcf	(___fldiv@grs+1)^0,f,c
 11460   005F4C  3616               	rlcf	(___fldiv@grs+2)^0,f,c
 11461   005F4E  3617               	rlcf	(___fldiv@grs+3)^0,f,c
 11462   005F50                     l3693:
 11463   005F50  5005               	movf	___fldiv@a^0,w,c
 11464   005F52  5C0D               	subwf	___fldiv@rem^0,w,c
 11465   005F54  5006               	movf	(___fldiv@a+1)^0,w,c
 11466   005F56  580E               	subwfb	(___fldiv@rem+1)^0,w,c
 11467   005F58  5007               	movf	(___fldiv@a+2)^0,w,c
 11468   005F5A  580F               	subwfb	(___fldiv@rem+2)^0,w,c
 11469   005F5C  5008               	movf	(___fldiv@a+3)^0,w,c
 11470   005F5E  5810               	subwfb	(___fldiv@rem+3)^0,w,c
 11471   005F60  A0D8               	btfss	status,0,c
 11472   005F62  EFB5  F02F         	goto	u3271
 11473   005F66  EFB7  F02F         	goto	u3270
 11474   005F6A                     u3271:
 11475   005F6A  EFC0  F02F         	goto	l3699
 11476   005F6E                     u3270:
 11477   005F6E  8C17               	bsf	(___fldiv@grs+3)^0,6,c
 11478   005F70  5005               	movf	___fldiv@a^0,w,c
 11479   005F72  5E0D               	subwf	___fldiv@rem^0,f,c
 11480   005F74  5006               	movf	(___fldiv@a+1)^0,w,c
 11481   005F76  5A0E               	subwfb	(___fldiv@rem+1)^0,f,c
 11482   005F78  5007               	movf	(___fldiv@a+2)^0,w,c
 11483   005F7A  5A0F               	subwfb	(___fldiv@rem+2)^0,f,c
 11484   005F7C  5008               	movf	(___fldiv@a+3)^0,w,c
 11485   005F7E  5A10               	subwfb	(___fldiv@rem+3)^0,f,c
 11486   005F80                     l3699:
 11487   005F80  2A19               	incf	___fldiv@aexp^0,f,c
 11488   005F82                     l811:
 11489   005F82  0E19               	movlw	25
 11490   005F84  6419               	cpfsgt	___fldiv@aexp^0,c
 11491   005F86  EFC7  F02F         	goto	u3281
 11492   005F8A  EFC9  F02F         	goto	u3280
 11493   005F8E                     u3281:
 11494   005F8E  EF89  F02F         	goto	l3685
 11495   005F92                     u3280:
 11496   005F92  500D               	movf	___fldiv@rem^0,w,c
 11497   005F94  100E               	iorwf	(___fldiv@rem+1)^0,w,c
 11498   005F96  100F               	iorwf	(___fldiv@rem+2)^0,w,c
 11499   005F98  1010               	iorwf	(___fldiv@rem+3)^0,w,c
 11500   005F9A  B4D8               	btfsc	status,2,c
 11501   005F9C  EFD2  F02F         	goto	u3291
 11502   005FA0  EFD4  F02F         	goto	u3290
 11503   005FA4                     u3291:
 11504   005FA4  EFEC  F02F         	goto	l3711
 11505   005FA8                     u3290:
 11506   005FA8  8014               	bsf	___fldiv@grs^0,0,c
 11507   005FAA  EFEC  F02F         	goto	l3711
 11508   005FAE                     l3705:
 11509   005FAE  90D8               	bcf	status,0,c
 11510   005FB0  3601               	rlcf	___fldiv@b^0,f,c
 11511   005FB2  3602               	rlcf	(___fldiv@b+1)^0,f,c
 11512   005FB4  3603               	rlcf	(___fldiv@b+2)^0,f,c
 11513   005FB6  3604               	rlcf	(___fldiv@b+3)^0,f,c
 11514   005FB8  AE17               	btfss	(___fldiv@grs+3)^0,7,c
 11515   005FBA  EFE1  F02F         	goto	u3301
 11516   005FBE  EFE3  F02F         	goto	u3300
 11517   005FC2                     u3301:
 11518   005FC2  EFE4  F02F         	goto	l820
 11519   005FC6                     u3300:
 11520   005FC6  8001               	bsf	___fldiv@b^0,0,c
 11521   005FC8                     l820:
 11522   005FC8  90D8               	bcf	status,0,c
 11523   005FCA  3614               	rlcf	___fldiv@grs^0,f,c
 11524   005FCC  3615               	rlcf	(___fldiv@grs+1)^0,f,c
 11525   005FCE  3616               	rlcf	(___fldiv@grs+2)^0,f,c
 11526   005FD0  3617               	rlcf	(___fldiv@grs+3)^0,f,c
 11527   005FD2  0612               	decf	___fldiv@new_exp^0,f,c
 11528   005FD4  A0D8               	btfss	status,0,c
 11529   005FD6  0613               	decf	(___fldiv@new_exp+1)^0,f,c
 11530   005FD8                     l3711:
 11531   005FD8  AE03               	btfss	(___fldiv@b+2)^0,7,c
 11532   005FDA  EFF1  F02F         	goto	u3311
 11533   005FDE  EFF3  F02F         	goto	u3310
 11534   005FE2                     u3311:
 11535   005FE2  EFD7  F02F         	goto	l3705
 11536   005FE6                     u3310:
 11537   005FE6  6A19               	clrf	___fldiv@aexp^0,c
 11538   005FE8  AE17               	btfss	(___fldiv@grs+3)^0,7,c
 11539   005FEA  EFF9  F02F         	goto	u3321
 11540   005FEE  EFFB  F02F         	goto	u3320
 11541   005FF2                     u3321:
 11542   005FF2  EF1F  F030         	goto	l822
 11543   005FF6                     u3320:
 11544   005FF6  0EFF               	movlw	255
 11545   005FF8  1414               	andwf	___fldiv@grs^0,w,c
 11546   005FFA  6E09               	movwf	??___fldiv^0,c
 11547   005FFC  0EFF               	movlw	255
 11548   005FFE  1415               	andwf	(___fldiv@grs+1)^0,w,c
 11549   006000  6E0A               	movwf	(??___fldiv+1)^0,c
 11550   006002  0EFF               	movlw	255
 11551   006004  1416               	andwf	(___fldiv@grs+2)^0,w,c
 11552   006006  6E0B               	movwf	(??___fldiv+2)^0,c
 11553   006008  0E7F               	movlw	127
 11554   00600A  1417               	andwf	(___fldiv@grs+3)^0,w,c
 11555   00600C  6E0C               	movwf	(??___fldiv+3)^0,c
 11556   00600E  5009               	movf	??___fldiv^0,w,c
 11557   006010  100A               	iorwf	(??___fldiv+1)^0,w,c
 11558   006012  100B               	iorwf	(??___fldiv+2)^0,w,c
 11559   006014  100C               	iorwf	(??___fldiv+3)^0,w,c
 11560   006016  B4D8               	btfsc	status,2,c
 11561   006018  EF10  F030         	goto	u3331
 11562   00601C  EF12  F030         	goto	u3330
 11563   006020                     u3331:
 11564   006020  EF16  F030         	goto	l823
 11565   006024                     u3330:
 11566   006024                     l3715:
 11567   006024  0E01               	movlw	1
 11568   006026  6E19               	movwf	___fldiv@aexp^0,c
 11569   006028  EF1F  F030         	goto	l822
 11570   00602C                     l823:
 11571   00602C  A001               	btfss	___fldiv@b^0,0,c
 11572   00602E  EF1B  F030         	goto	u3341
 11573   006032  EF1D  F030         	goto	u3340
 11574   006036                     u3341:
 11575   006036  EF1F  F030         	goto	l822
 11576   00603A                     u3340:
 11577   00603A  EF12  F030         	goto	l3715
 11578   00603E                     l822:
 11579   00603E  5019               	movf	___fldiv@aexp^0,w,c
 11580   006040  B4D8               	btfsc	status,2,c
 11581   006042  EF25  F030         	goto	u3351
 11582   006046  EF27  F030         	goto	u3350
 11583   00604A                     u3351:
 11584   00604A  EF4B  F030         	goto	l3727
 11585   00604E                     u3350:
 11586   00604E  0E01               	movlw	1
 11587   006050  2601               	addwf	___fldiv@b^0,f,c
 11588   006052  0E00               	movlw	0
 11589   006054  2202               	addwfc	(___fldiv@b+1)^0,f,c
 11590   006056  2203               	addwfc	(___fldiv@b+2)^0,f,c
 11591   006058  2204               	addwfc	(___fldiv@b+3)^0,f,c
 11592   00605A  A004               	btfss	(___fldiv@b+3)^0,0,c
 11593   00605C  EF32  F030         	goto	u3361
 11594   006060  EF34  F030         	goto	u3360
 11595   006064                     u3361:
 11596   006064  EF4B  F030         	goto	l3727
 11597   006068                     u3360:
 11598   006068  C001  F009         	movff	___fldiv@b,??___fldiv
 11599   00606C  C002  F00A         	movff	___fldiv@b+1,??___fldiv+1
 11600   006070  C003  F00B         	movff	___fldiv@b+2,??___fldiv+2
 11601   006074  C004  F00C         	movff	___fldiv@b+3,??___fldiv+3
 11602   006078  340C               	rlcf	(??___fldiv+3)^0,w,c
 11603   00607A  320C               	rrcf	(??___fldiv+3)^0,f,c
 11604   00607C  320B               	rrcf	(??___fldiv+2)^0,f,c
 11605   00607E  320A               	rrcf	(??___fldiv+1)^0,f,c
 11606   006080  3209               	rrcf	??___fldiv^0,f,c
 11607   006082  C009  F001         	movff	??___fldiv,___fldiv@b
 11608   006086  C00A  F002         	movff	??___fldiv+1,___fldiv@b+1
 11609   00608A  C00B  F003         	movff	??___fldiv+2,___fldiv@b+2
 11610   00608E  C00C  F004         	movff	??___fldiv+3,___fldiv@b+3
 11611   006092  4A12               	infsnz	___fldiv@new_exp^0,f,c
 11612   006094  2A13               	incf	(___fldiv@new_exp+1)^0,f,c
 11613   006096                     l3727:
 11614   006096  BE13               	btfsc	(___fldiv@new_exp+1)^0,7,c
 11615   006098  EF56  F030         	goto	u3371
 11616   00609C  5013               	movf	(___fldiv@new_exp+1)^0,w,c
 11617   00609E  E108               	bnz	u3370
 11618   0060A0  2812               	incf	___fldiv@new_exp^0,w,c
 11619   0060A2  A0D8               	btfss	status,0,c
 11620   0060A4  EF56  F030         	goto	u3371
 11621   0060A8  EF58  F030         	goto	u3370
 11622   0060AC                     u3371:
 11623   0060AC  EF63  F030         	goto	l3731
 11624   0060B0                     u3370:
 11625   0060B0  0E00               	movlw	0
 11626   0060B2  6E13               	movwf	(___fldiv@new_exp+1)^0,c
 11627   0060B4  6812               	setf	___fldiv@new_exp^0,c
 11628   0060B6  0E00               	movlw	0
 11629   0060B8  6E01               	movwf	___fldiv@b^0,c
 11630   0060BA  0E00               	movlw	0
 11631   0060BC  6E02               	movwf	(___fldiv@b+1)^0,c
 11632   0060BE  0E00               	movlw	0
 11633   0060C0  6E03               	movwf	(___fldiv@b+2)^0,c
 11634   0060C2  0E00               	movlw	0
 11635   0060C4  6E04               	movwf	(___fldiv@b+3)^0,c
 11636   0060C6                     l3731:
 11637   0060C6  BE13               	btfsc	(___fldiv@new_exp+1)^0,7,c
 11638   0060C8  EF70  F030         	goto	u3380
 11639   0060CC  5013               	movf	(___fldiv@new_exp+1)^0,w,c
 11640   0060CE  E106               	bnz	u3381
 11641   0060D0  0412               	decf	___fldiv@new_exp^0,w,c
 11642   0060D2  B0D8               	btfsc	status,0,c
 11643   0060D4  EF6E  F030         	goto	u3381
 11644   0060D8  EF70  F030         	goto	u3380
 11645   0060DC                     u3381:
 11646   0060DC  EF7D  F030         	goto	l3737
 11647   0060E0                     u3380:
 11648   0060E0  0E00               	movlw	0
 11649   0060E2  6E13               	movwf	(___fldiv@new_exp+1)^0,c
 11650   0060E4  0E00               	movlw	0
 11651   0060E6  6E12               	movwf	___fldiv@new_exp^0,c
 11652   0060E8  0E00               	movlw	0
 11653   0060EA  6E01               	movwf	___fldiv@b^0,c
 11654   0060EC  0E00               	movlw	0
 11655   0060EE  6E02               	movwf	(___fldiv@b+1)^0,c
 11656   0060F0  0E00               	movlw	0
 11657   0060F2  6E03               	movwf	(___fldiv@b+2)^0,c
 11658   0060F4  0E00               	movlw	0
 11659   0060F6  6E04               	movwf	(___fldiv@b+3)^0,c
 11660   0060F8  6A11               	clrf	___fldiv@sign^0,c
 11661   0060FA                     l3737:
 11662   0060FA  C012  F018         	movff	___fldiv@new_exp,___fldiv@bexp
 11663   0060FE  A018               	btfss	___fldiv@bexp^0,0,c
 11664   006100  EF84  F030         	goto	u3391
 11665   006104  EF86  F030         	goto	u3390
 11666   006108                     u3391:
 11667   006108  EF89  F030         	goto	l3743
 11668   00610C                     u3390:
 11669   00610C  8E03               	bsf	(___fldiv@b+2)^0,7,c
 11670   00610E  EF8A  F030         	goto	l3745
 11671   006112                     l3743:
 11672   006112  9E03               	bcf	(___fldiv@b+2)^0,7,c
 11673   006114                     l3745:
 11674   006114  90D8               	bcf	status,0,c
 11675   006116  3018               	rrcf	___fldiv@bexp^0,w,c
 11676   006118  6E04               	movwf	(___fldiv@b+3)^0,c
 11677   00611A  EF43  F02F         	goto	l3661
 11678   00611E                     l809:
 11679   00611E  0012               	return		;funcret
 11680   006120                     __end_of___fldiv:
 11681                           	callstack 0
 11682                           
 11683 ;; *************** function _dtoa *****************
 11684 ;; Defined at:
 11685 ;;		line 513 in file "C:\Program Files\Microchip\xc8\v3.00\pic\sources\c99\common\doprnt.c"
 11686 ;; Parameters:    Size  Location     Type
 11687 ;;  fp              1   22[COMRAM] PTR struct _IO_FILE
 11688 ;;		 -> sprintf@f(11), 
 11689 ;;  d               2   23[COMRAM] int 
 11690 ;; Auto vars:     Size  Location     Type
 11691 ;;  i               2   32[COMRAM] int 
 11692 ;;  p               2   29[COMRAM] int 
 11693 ;;  w               2   27[COMRAM] int 
 11694 ;;  s               1   31[COMRAM] unsigned char 
 11695 ;; Return value:  Size  Location     Type
 11696 ;;                  1    wreg      void 
 11697 ;; Registers used:
 11698 ;;		wreg, fsr1l, fsr1h, fsr2l, fsr2h, status,2, status,0, cstack
 11699 ;; Tracked objects:
 11700 ;;		On entry : 0/0
 11701 ;;		On exit  : 0/0
 11702 ;;		Unchanged: 0/0
 11703 ;; Data sizes:     COMRAM   BANK0   BANK1   BANK2   BANK3   BANK4   BANK5   BANK6   BANK7   BANK8   BANK9  BANK10  BANK1
      +1  BANK12  BANK13  BANK14  BANK15  BANK16  BANK17  BANK18  BANK19  BANK20  BANK21  BANK22  BANK23  BANK24  BANK25  BANK2
      +6  BANK27  BANK28  BANK29  BANK30  BANK31
 11704 ;;      Params:         3       0       0       0       0       0       0       0       0       0       0       0       
      +0       0       0       0       0       0       0       0       0       0       0       0       0       0       0       
      +0       0       0       0       0       0
 11705 ;;      Locals:         9       0       0       0       0       0       0       0       0       0       0       0       
      +0       0       0       0       0       0       0       0       0       0       0       0       0       0       0       
      +0       0       0       0       0       0
 11706 ;;      Temps:          0       0       0       0       0       0       0       0       0       0       0       0       
      +0       0       0       0       0       0       0       0       0       0       0       0       0       0       0       
      +0       0       0       0       0       0
 11707 ;;      Totals:        12       0       0       0       0       0       0       0       0       0       0       0       
      +0       0       0       0       0       0       0       0       0       0       0       0       0       0       0       
      +0       0       0       0       0       0
 11708 ;;Total ram usage:       12 bytes
 11709 ;; Hardware stack levels used: 1
 11710 ;; Hardware stack levels required when called: 4
 11711 ;; This function calls:
 11712 ;;		___awdiv
 11713 ;;		___awmod
 11714 ;;		_abs
 11715 ;;		_pad
 11716 ;; This function is called by:
 11717 ;;		_vfpfcnvrt
 11718 ;; This function uses a non-reentrant model
 11719 ;;
 11720                           
 11721                           	psect	text20
 11722   0067AC                     __ptext20:
 11723                           	callstack 0
 11724   0067AC                     _dtoa:
 11725                           	callstack 23
 11726   0067AC                     
 11727                           ;C:\Program Files\Microchip\xc8\v3.00\pic\sources\c99\common\doprnt.c: 513: static void 
      +                          dtoa(FILE *fp, vfpf_sint_t d);C:\Program Files\Microchip\xc8\v3.00\pic\sources\c99\commo
      +                          n\doprnt.c: 514: {;C:\Program Files\Microchip\xc8\v3.00\pic\sources\c99\common\doprnt.c:
      +                           515:  char s;;C:\Program Files\Microchip\xc8\v3.00\pic\sources\c99\common\doprnt.c: 516
      +                          :     int i, w;;C:\Program Files\Microchip\xc8\v3.00\pic\sources\c99\common\doprnt.c: 51
      +                          8:  int p;;C:\Program Files\Microchip\xc8\v3.00\pic\sources\c99\common\doprnt.c: 524:   
      +                            s = d < 0 ? 1 : 0;
 11728   0067AC  BE19               	btfsc	(dtoa@d+1)^0,7,c
 11729   0067AE  EFDB  F033         	goto	u4141
 11730   0067B2  EFDE  F033         	goto	u4140
 11731   0067B6                     u4141:
 11732   0067B6  0E01               	movlw	1
 11733   0067B8  EFDF  F033         	goto	u4150
 11734   0067BC                     u4140:
 11735   0067BC  0E00               	movlw	0
 11736   0067BE                     u4150:
 11737   0067BE  6E20               	movwf	dtoa@s^0,c
 11738                           
 11739                           ;C:\Program Files\Microchip\xc8\v3.00\pic\sources\c99\common\doprnt.c: 533:     p = (0 <
      +                          = prec) ? prec : 1;
 11740   0067C0  0100               	movlb	0	; () banked
 11741   0067C2  BFA7               	btfsc	(_prec+1)& (0+255),7,b
 11742   0067C4  EFE8  F033         	goto	u4160
 11743   0067C8  EFE6  F033         	goto	u4161
 11744   0067CC                     u4161:
 11745   0067CC  EFEE  F033         	goto	l944
 11746   0067D0                     u4160:
 11747   0067D0                     
 11748                           ; BSR set to: 0
 11749   0067D0  0E00               	movlw	0
 11750   0067D2  6E1F               	movwf	(dtoa@p+1)^0,c
 11751   0067D4  0E01               	movlw	1
 11752   0067D6  6E1E               	movwf	dtoa@p^0,c
 11753   0067D8  EFF2  F033         	goto	l946
 11754   0067DC                     l944:
 11755                           
 11756                           ; BSR set to: 0
 11757   0067DC  C0A6  F01E         	movff	_prec,dtoa@p
 11758   0067E0  C0A7  F01F         	movff	_prec+1,dtoa@p+1
 11759   0067E4                     l946:
 11760                           
 11761                           ; BSR set to: 0
 11762                           ;C:\Program Files\Microchip\xc8\v3.00\pic\sources\c99\common\doprnt.c: 535:     w = widt
      +                          h;
 11763   0067E4  C0A4  F01C         	movff	_width,dtoa@w
 11764   0067E8  C0A5  F01D         	movff	_width+1,dtoa@w+1
 11765   0067EC                     
 11766                           ; BSR set to: 0
 11767                           ;C:\Program Files\Microchip\xc8\v3.00\pic\sources\c99\common\doprnt.c: 536:     if (s
 11768   0067EC  5020               	movf	dtoa@s^0,w,c
 11769   0067EE  B4D8               	btfsc	status,2,c
 11770   0067F0  EFFC  F033         	goto	u4171
 11771   0067F4  EFFE  F033         	goto	u4170
 11772   0067F8                     u4171:
 11773   0067F8  EF15  F034         	goto	l947
 11774   0067FC                     u4170:
 11775   0067FC                     
 11776                           ; BSR set to: 0
 11777                           ;C:\Program Files\Microchip\xc8\v3.00\pic\sources\c99\common\doprnt.c: 540:     ) {;C:\P
      +                          rogram Files\Microchip\xc8\v3.00\pic\sources\c99\common\doprnt.c: 541:         --w;
 11778   0067FC  061C               	decf	dtoa@w^0,f,c
 11779   0067FE  A0D8               	btfss	status,0,c
 11780   006800  061D               	decf	(dtoa@w+1)^0,f,c
 11781   006802                     
 11782                           ; BSR set to: 0
 11783                           ;C:\Program Files\Microchip\xc8\v3.00\pic\sources\c99\common\doprnt.c: 542:   s = s ? '-
      +                          ' : '+';
 11784   006802  5020               	movf	dtoa@s^0,w,c
 11785   006804  A4D8               	btfss	status,2,c
 11786   006806  EF07  F034         	goto	u4181
 11787   00680A  EF09  F034         	goto	u4180
 11788   00680E                     u4181:
 11789   00680E  EF0F  F034         	goto	l4179
 11790   006812                     u4180:
 11791   006812                     
 11792                           ; BSR set to: 0
 11793   006812  0E00               	movlw	0
 11794   006814  6E1B               	movwf	(_dtoa$1025+1)^0,c
 11795   006816  0E2B               	movlw	43
 11796   006818  6E1A               	movwf	_dtoa$1025^0,c
 11797   00681A  EF13  F034         	goto	l4181
 11798   00681E                     l4179:
 11799                           
 11800                           ; BSR set to: 0
 11801   00681E  0E00               	movlw	0
 11802   006820  6E1B               	movwf	(_dtoa$1025+1)^0,c
 11803   006822  0E2D               	movlw	45
 11804   006824  6E1A               	movwf	_dtoa$1025^0,c
 11805   006826                     l4181:
 11806                           
 11807                           ; BSR set to: 0
 11808   006826  C01A  F020         	movff	_dtoa$1025,dtoa@s
 11809   00682A                     l947:
 11810                           
 11811                           ; BSR set to: 0
 11812                           ;C:\Program Files\Microchip\xc8\v3.00\pic\sources\c99\common\doprnt.c: 552:     i = size
      +                          of(dbuf) - 1;
 11813   00682A  0E00               	movlw	0
 11814   00682C  6E22               	movwf	(dtoa@i+1)^0,c
 11815   00682E  0E4F               	movlw	79
 11816   006830  6E21               	movwf	dtoa@i^0,c
 11817   006832                     
 11818                           ; BSR set to: 0
 11819                           ;C:\Program Files\Microchip\xc8\v3.00\pic\sources\c99\common\doprnt.c: 553:     dbuf[i] 
      +                          = '\0';
 11820   006832  0101               	movlb	1	; () banked
 11821   006834  6B4F               	clrf	(_dbuf+79)& (0+255),b
 11822                           
 11823                           ;C:\Program Files\Microchip\xc8\v3.00\pic\sources\c99\common\doprnt.c: 554:     while (!
      +                          (i < 1) && (d != 0
 11824   006836  EF4D  F034         	goto	l4195
 11825   00683A                     l4185:
 11826                           
 11827                           ;C:\Program Files\Microchip\xc8\v3.00\pic\sources\c99\common\doprnt.c: 563:     )) {;C:\
      +                          Program Files\Microchip\xc8\v3.00\pic\sources\c99\common\doprnt.c: 564:         --i;
 11828   00683A  0621               	decf	dtoa@i^0,f,c
 11829   00683C  A0D8               	btfss	status,0,c
 11830   00683E  0622               	decf	(dtoa@i+1)^0,f,c
 11831   006840                     
 11832                           ;C:\Program Files\Microchip\xc8\v3.00\pic\sources\c99\common\doprnt.c: 565:         dbuf
      +                          [i] = (char)((int)'0' + abs(d % 10));
 11833   006840  0E00               	movlw	low _dbuf
 11834   006842  2421               	addwf	dtoa@i^0,w,c
 11835   006844  6ED9               	movwf	fsr2l,c
 11836   006846  0E01               	movlw	high _dbuf
 11837   006848  2022               	addwfc	(dtoa@i+1)^0,w,c
 11838   00684A  6EDA               	movwf	fsr2h,c
 11839   00684C  C018  F001         	movff	dtoa@d,___awmod@dividend
 11840   006850  C019  F002         	movff	dtoa@d+1,___awmod@dividend+1
 11841   006854  0E00               	movlw	0
 11842   006856  6E04               	movwf	(___awmod@divisor+1)^0,c
 11843   006858  0E0A               	movlw	10
 11844   00685A  6E03               	movwf	___awmod@divisor^0,c
 11845   00685C  ECD4  F036         	call	___awmod	;wreg free
 11846   006860  C001  F007         	movff	?___awmod,abs@a
 11847   006864  C002  F008         	movff	?___awmod+1,abs@a+1
 11848   006868  EC6C  F03A         	call	_abs	;wreg free
 11849   00686C  5007               	movf	?_abs^0,w,c
 11850   00686E  0F30               	addlw	48
 11851   006870  6EDF               	movwf	indf2,c
 11852   006872                     
 11853                           ;C:\Program Files\Microchip\xc8\v3.00\pic\sources\c99\common\doprnt.c: 567:         --p;
 11854   006872  061E               	decf	dtoa@p^0,f,c
 11855   006874  A0D8               	btfss	status,0,c
 11856   006876  061F               	decf	(dtoa@p+1)^0,f,c
 11857   006878                     
 11858                           ;C:\Program Files\Microchip\xc8\v3.00\pic\sources\c99\common\doprnt.c: 571:         --w;
 11859   006878  061C               	decf	dtoa@w^0,f,c
 11860   00687A  A0D8               	btfss	status,0,c
 11861   00687C  061D               	decf	(dtoa@w+1)^0,f,c
 11862   00687E                     
 11863                           ;C:\Program Files\Microchip\xc8\v3.00\pic\sources\c99\common\doprnt.c: 572:         d = 
      +                          d / 10;
 11864   00687E  C018  F001         	movff	dtoa@d,___awdiv@dividend
 11865   006882  C019  F002         	movff	dtoa@d+1,___awdiv@dividend+1
 11866   006886  0E00               	movlw	0
 11867   006888  6E04               	movwf	(___awdiv@divisor+1)^0,c
 11868   00688A  0E0A               	movlw	10
 11869   00688C  6E03               	movwf	___awdiv@divisor^0,c
 11870   00688E  EC17  F036         	call	___awdiv	;wreg free
 11871   006892  C001  F018         	movff	?___awdiv,dtoa@d
 11872   006896  C002  F019         	movff	?___awdiv+1,dtoa@d+1
 11873   00689A                     l4195:
 11874                           
 11875                           ;C:\Program Files\Microchip\xc8\v3.00\pic\sources\c99\common\doprnt.c: 554:     while (!
      +                          (i < 1) && (d != 0
 11876   00689A  BE22               	btfsc	(dtoa@i+1)^0,7,c
 11877   00689C  EF58  F034         	goto	u4191
 11878   0068A0  5022               	movf	(dtoa@i+1)^0,w,c
 11879   0068A2  E108               	bnz	u4190
 11880   0068A4  0421               	decf	dtoa@i^0,w,c
 11881   0068A6  A0D8               	btfss	status,0,c
 11882   0068A8  EF58  F034         	goto	u4191
 11883   0068AC  EF5A  F034         	goto	u4190
 11884   0068B0                     u4191:
 11885   0068B0  EF70  F034         	goto	l4201
 11886   0068B4                     u4190:
 11887   0068B4  5018               	movf	dtoa@d^0,w,c
 11888   0068B6  1019               	iorwf	(dtoa@d+1)^0,w,c
 11889   0068B8  A4D8               	btfss	status,2,c
 11890   0068BA  EF61  F034         	goto	u4201
 11891   0068BE  EF63  F034         	goto	u4200
 11892   0068C2                     u4201:
 11893   0068C2  EF1D  F034         	goto	l4185
 11894   0068C6                     u4200:
 11895   0068C6  BE1F               	btfsc	(dtoa@p+1)^0,7,c
 11896   0068C8  EF70  F034         	goto	u4210
 11897   0068CC  501F               	movf	(dtoa@p+1)^0,w,c
 11898   0068CE  E106               	bnz	u4211
 11899   0068D0  041E               	decf	dtoa@p^0,w,c
 11900   0068D2  B0D8               	btfsc	status,0,c
 11901   0068D4  EF6E  F034         	goto	u4211
 11902   0068D8  EF70  F034         	goto	u4210
 11903   0068DC                     u4211:
 11904   0068DC  EF1D  F034         	goto	l4185
 11905   0068E0                     u4210:
 11906   0068E0                     l4201:
 11907                           
 11908                           ;C:\Program Files\Microchip\xc8\v3.00\pic\sources\c99\common\doprnt.c: 576:     if (s !=
      +                           0) {
 11909   0068E0  5020               	movf	dtoa@s^0,w,c
 11910   0068E2  B4D8               	btfsc	status,2,c
 11911   0068E4  EF76  F034         	goto	u4221
 11912   0068E8  EF78  F034         	goto	u4220
 11913   0068EC                     u4221:
 11914   0068EC  EF84  F034         	goto	l4207
 11915   0068F0                     u4220:
 11916   0068F0                     
 11917                           ;C:\Program Files\Microchip\xc8\v3.00\pic\sources\c99\common\doprnt.c: 577:         --i;
 11918   0068F0  0621               	decf	dtoa@i^0,f,c
 11919   0068F2  A0D8               	btfss	status,0,c
 11920   0068F4  0622               	decf	(dtoa@i+1)^0,f,c
 11921   0068F6                     
 11922                           ;C:\Program Files\Microchip\xc8\v3.00\pic\sources\c99\common\doprnt.c: 578:         dbuf
      +                          [i] = s;
 11923   0068F6  0E00               	movlw	low _dbuf
 11924   0068F8  2421               	addwf	dtoa@i^0,w,c
 11925   0068FA  6ED9               	movwf	fsr2l,c
 11926   0068FC  0E01               	movlw	high _dbuf
 11927   0068FE  2022               	addwfc	(dtoa@i+1)^0,w,c
 11928   006900  6EDA               	movwf	fsr2h,c
 11929   006902  0060  F083  FFDF   	movff	dtoa@s,indf2
 11930   006908                     l4207:
 11931                           
 11932                           ;C:\Program Files\Microchip\xc8\v3.00\pic\sources\c99\common\doprnt.c: 582:     return (
      +                          void) pad(fp, &dbuf[i], w);
 11933   006908  C017  F00F         	movff	dtoa@fp,pad@fp
 11934   00690C  0E00               	movlw	low _dbuf
 11935   00690E  2421               	addwf	dtoa@i^0,w,c
 11936   006910  6E10               	movwf	pad@buf^0,c
 11937   006912  0E01               	movlw	high _dbuf
 11938   006914  2022               	addwfc	(dtoa@i+1)^0,w,c
 11939   006916  6E11               	movwf	(pad@buf+1)^0,c
 11940   006918  C01C  F012         	movff	dtoa@w,pad@p
 11941   00691C  C01D  F013         	movff	dtoa@w+1,pad@p+1
 11942   006920  ECD6  F037         	call	_pad	;wreg free
 11943   006924  0012               	return		;funcret
 11944   006926                     __end_of_dtoa:
 11945                           	callstack 0
 11946                           
 11947 ;; *************** function _pad *****************
 11948 ;; Defined at:
 11949 ;;		line 193 in file "C:\Program Files\Microchip\xc8\v3.00\pic\sources\c99\common\doprnt.c"
 11950 ;; Parameters:    Size  Location     Type
 11951 ;;  fp              1   14[COMRAM] PTR struct _IO_FILE
 11952 ;;		 -> sprintf@f(11), 
 11953 ;;  buf             2   15[COMRAM] PTR unsigned char 
 11954 ;;		 -> dbuf(80), 
 11955 ;;  p               2   17[COMRAM] int 
 11956 ;; Auto vars:     Size  Location     Type
 11957 ;;  i               2   20[COMRAM] int 
 11958 ;; Return value:  Size  Location     Type
 11959 ;;                  1    wreg      void 
 11960 ;; Registers used:
 11961 ;;		wreg, fsr1l, fsr1h, fsr2l, fsr2h, status,2, status,0, cstack
 11962 ;; Tracked objects:
 11963 ;;		On entry : 0/0
 11964 ;;		On exit  : 0/0
 11965 ;;		Unchanged: 0/0
 11966 ;; Data sizes:     COMRAM   BANK0   BANK1   BANK2   BANK3   BANK4   BANK5   BANK6   BANK7   BANK8   BANK9  BANK10  BANK1
      +1  BANK12  BANK13  BANK14  BANK15  BANK16  BANK17  BANK18  BANK19  BANK20  BANK21  BANK22  BANK23  BANK24  BANK25  BANK2
      +6  BANK27  BANK28  BANK29  BANK30  BANK31
 11967 ;;      Params:         5       0       0       0       0       0       0       0       0       0       0       0       
      +0       0       0       0       0       0       0       0       0       0       0       0       0       0       0       
      +0       0       0       0       0       0
 11968 ;;      Locals:         2       0       0       0       0       0       0       0       0       0       0       0       
      +0       0       0       0       0       0       0       0       0       0       0       0       0       0       0       
      +0       0       0       0       0       0
 11969 ;;      Temps:          1       0       0       0       0       0       0       0       0       0       0       0       
      +0       0       0       0       0       0       0       0       0       0       0       0       0       0       0       
      +0       0       0       0       0       0
 11970 ;;      Totals:         8       0       0       0       0       0       0       0       0       0       0       0       
      +0       0       0       0       0       0       0       0       0       0       0       0       0       0       0       
      +0       0       0       0       0       0
 11971 ;;Total ram usage:        8 bytes
 11972 ;; Hardware stack levels used: 1
 11973 ;; Hardware stack levels required when called: 3
 11974 ;; This function calls:
 11975 ;;		_fputc
 11976 ;;		_fputs
 11977 ;; This function is called by:
 11978 ;;		_dtoa
 11979 ;;		_efgtoa
 11980 ;; This function uses a non-reentrant model
 11981 ;;
 11982                           
 11983                           	psect	text21
 11984   006FAC                     __ptext21:
 11985                           	callstack 0
 11986   006FAC                     _pad:
 11987                           	callstack 23
 11988   006FAC                     
 11989                           ;C:\Program Files\Microchip\xc8\v3.00\pic\sources\c99\common\doprnt.c: 193: static void 
      +                          pad(FILE *fp, char *buf, int p);C:\Program Files\Microchip\xc8\v3.00\pic\sources\c99\com
      +                          mon\doprnt.c: 194: {;C:\Program Files\Microchip\xc8\v3.00\pic\sources\c99\common\doprnt.
      +                          c: 195:     int i;;C:\Program Files\Microchip\xc8\v3.00\pic\sources\c99\common\doprnt.c:
      +                           199:     if (flags & (1 << 0)) {
 11990   006FAC  A05E               	btfss	_flags^0,0,c
 11991   006FAE  EFDB  F037         	goto	u3871
 11992   006FB2  EFDD  F037         	goto	u3870
 11993   006FB6                     u3871:
 11994   006FB6  EFE5  F037         	goto	l4061
 11995   006FBA                     u3870:
 11996   006FBA                     
 11997                           ;C:\Program Files\Microchip\xc8\v3.00\pic\sources\c99\common\doprnt.c: 200:         fput
      +                          s((const char *)buf, fp);
 11998   006FBA  C010  F009         	movff	pad@buf,fputs@s
 11999   006FBE  C011  F00A         	movff	pad@buf+1,fputs@s+1
 12000   006FC2  C00F  F00B         	movff	pad@fp,fputs@fp
 12001   006FC6  ECDA  F039         	call	_fputs	;wreg free
 12002   006FCA                     l4061:
 12003                           
 12004                           ;C:\Program Files\Microchip\xc8\v3.00\pic\sources\c99\common\doprnt.c: 205:  if (p < 0) 
      +                          {
 12005   006FCA  BE13               	btfsc	(pad@p+1)^0,7,c
 12006   006FCC  EFEC  F037         	goto	u3880
 12007   006FD0  EFEA  F037         	goto	u3881
 12008   006FD4                     u3881:
 12009   006FD4  EFF0  F037         	goto	l935
 12010   006FD8                     u3880:
 12011   006FD8                     
 12012                           ;C:\Program Files\Microchip\xc8\v3.00\pic\sources\c99\common\doprnt.c: 206:   p = 0;
 12013   006FD8  0E00               	movlw	0
 12014   006FDA  6E13               	movwf	(pad@p+1)^0,c
 12015   006FDC  0E00               	movlw	0
 12016   006FDE  6E12               	movwf	pad@p^0,c
 12017   006FE0                     l935:
 12018                           
 12019                           ;C:\Program Files\Microchip\xc8\v3.00\pic\sources\c99\common\doprnt.c: 208:     i = 0;
 12020   006FE0  0E00               	movlw	0
 12021   006FE2  6E16               	movwf	(pad@i+1)^0,c
 12022   006FE4  0E00               	movlw	0
 12023   006FE6  6E15               	movwf	pad@i^0,c
 12024                           
 12025                           ;C:\Program Files\Microchip\xc8\v3.00\pic\sources\c99\common\doprnt.c: 209:     while (i
      +                           < p) {
 12026   006FE8  EF00  F038         	goto	l4069
 12027   006FEC                     l4065:
 12028                           
 12029                           ;C:\Program Files\Microchip\xc8\v3.00\pic\sources\c99\common\doprnt.c: 210:         fput
      +                          c(' ', fp);
 12030   006FEC  0E00               	movlw	0
 12031   006FEE  6E02               	movwf	(fputc@c+1)^0,c
 12032   006FF0  0E20               	movlw	32
 12033   006FF2  6E01               	movwf	fputc@c^0,c
 12034   006FF4  C00F  F003         	movff	pad@fp,fputc@fp
 12035   006FF8  EC2B  F037         	call	_fputc	;wreg free
 12036   006FFC                     
 12037                           ;C:\Program Files\Microchip\xc8\v3.00\pic\sources\c99\common\doprnt.c: 211:         ++i;
 12038   006FFC  4A15               	infsnz	pad@i^0,f,c
 12039   006FFE  2A16               	incf	(pad@i+1)^0,f,c
 12040   007000                     l4069:
 12041                           
 12042                           ;C:\Program Files\Microchip\xc8\v3.00\pic\sources\c99\common\doprnt.c: 209:     while (i
      +                           < p) {
 12043   007000  5012               	movf	pad@p^0,w,c
 12044   007002  5C15               	subwf	pad@i^0,w,c
 12045   007004  5016               	movf	(pad@i+1)^0,w,c
 12046   007006  0A80               	xorlw	128
 12047   007008  6E14               	movwf	??_pad^0,c
 12048   00700A  5013               	movf	(pad@p+1)^0,w,c
 12049   00700C  0A80               	xorlw	128
 12050   00700E  5814               	subwfb	??_pad^0,w,c
 12051   007010  A0D8               	btfss	status,0,c
 12052   007012  EF0D  F038         	goto	u3891
 12053   007016  EF0F  F038         	goto	u3890
 12054   00701A                     u3891:
 12055   00701A  EFF6  F037         	goto	l4065
 12056   00701E                     u3890:
 12057   00701E                     
 12058                           ;C:\Program Files\Microchip\xc8\v3.00\pic\sources\c99\common\doprnt.c: 216:     if (!(fl
      +                          ags & (1 << 0))) {
 12059   00701E  B05E               	btfsc	_flags^0,0,c
 12060   007020  EF14  F038         	goto	u3901
 12061   007024  EF16  F038         	goto	u3900
 12062   007028                     u3901:
 12063   007028  EF1E  F038         	goto	l940
 12064   00702C                     u3900:
 12065   00702C                     
 12066                           ;C:\Program Files\Microchip\xc8\v3.00\pic\sources\c99\common\doprnt.c: 218:         fput
      +                          s((const char *)buf, fp);
 12067   00702C  C010  F009         	movff	pad@buf,fputs@s
 12068   007030  C011  F00A         	movff	pad@buf+1,fputs@s+1
 12069   007034  C00F  F00B         	movff	pad@fp,fputs@fp
 12070   007038  ECDA  F039         	call	_fputs	;wreg free
 12071   00703C                     l940:
 12072   00703C  0012               	return		;funcret
 12073   00703E                     __end_of_pad:
 12074                           	callstack 0
 12075                           
 12076 ;; *************** function _fputs *****************
 12077 ;; Defined at:
 12078 ;;		line 8 in file "C:\Program Files\Microchip\xc8\v3.00\pic\sources\c99\common\nf_fputs.c"
 12079 ;; Parameters:    Size  Location     Type
 12080 ;;  s               2    8[COMRAM] PTR const unsigned char 
 12081 ;;		 -> dbuf(80), 
 12082 ;;  fp              1   10[COMRAM] PTR struct _IO_FILE
 12083 ;;		 -> sprintf@f(11), 
 12084 ;; Auto vars:     Size  Location     Type
 12085 ;;  i               2   12[COMRAM] int 
 12086 ;;  c               1   11[COMRAM] unsigned char 
 12087 ;; Return value:  Size  Location     Type
 12088 ;;                  2    8[COMRAM] int 
 12089 ;; Registers used:
 12090 ;;		wreg, fsr1l, fsr1h, fsr2l, fsr2h, status,2, status,0, cstack
 12091 ;; Tracked objects:
 12092 ;;		On entry : 0/0
 12093 ;;		On exit  : 0/0
 12094 ;;		Unchanged: 0/0
 12095 ;; Data sizes:     COMRAM   BANK0   BANK1   BANK2   BANK3   BANK4   BANK5   BANK6   BANK7   BANK8   BANK9  BANK10  BANK1
      +1  BANK12  BANK13  BANK14  BANK15  BANK16  BANK17  BANK18  BANK19  BANK20  BANK21  BANK22  BANK23  BANK24  BANK25  BANK2
      +6  BANK27  BANK28  BANK29  BANK30  BANK31
 12096 ;;      Params:         3       0       0       0       0       0       0       0       0       0       0       0       
      +0       0       0       0       0       0       0       0       0       0       0       0       0       0       0       
      +0       0       0       0       0       0
 12097 ;;      Locals:         3       0       0       0       0       0       0       0       0       0       0       0       
      +0       0       0       0       0       0       0       0       0       0       0       0       0       0       0       
      +0       0       0       0       0       0
 12098 ;;      Temps:          0       0       0       0       0       0       0       0       0       0       0       0       
      +0       0       0       0       0       0       0       0       0       0       0       0       0       0       0       
      +0       0       0       0       0       0
 12099 ;;      Totals:         6       0       0       0       0       0       0       0       0       0       0       0       
      +0       0       0       0       0       0       0       0       0       0       0       0       0       0       0       
      +0       0       0       0       0       0
 12100 ;;Total ram usage:        6 bytes
 12101 ;; Hardware stack levels used: 1
 12102 ;; Hardware stack levels required when called: 2
 12103 ;; This function calls:
 12104 ;;		_fputc
 12105 ;; This function is called by:
 12106 ;;		_pad
 12107 ;; This function uses a non-reentrant model
 12108 ;;
 12109                           
 12110                           	psect	text22
 12111   0073B4                     __ptext22:
 12112                           	callstack 0
 12113   0073B4                     _fputs:
 12114                           	callstack 23
 12115   0073B4  0E00               	movlw	0
 12116   0073B6  6E0E               	movwf	(fputs@i+1)^0,c
 12117   0073B8  0E00               	movlw	0
 12118   0073BA  6E0D               	movwf	fputs@i^0,c
 12119   0073BC  EFE9  F039         	goto	l3615
 12120   0073C0                     l3611:
 12121   0073C0  C00C  F001         	movff	fputs@c,fputc@c
 12122   0073C4  6A02               	clrf	(fputc@c+1)^0,c
 12123   0073C6  C00B  F003         	movff	fputs@fp,fputc@fp
 12124   0073CA  EC2B  F037         	call	_fputc	;wreg free
 12125   0073CE  4A0D               	infsnz	fputs@i^0,f,c
 12126   0073D0  2A0E               	incf	(fputs@i+1)^0,f,c
 12127   0073D2                     l3615:
 12128   0073D2  500D               	movf	fputs@i^0,w,c
 12129   0073D4  2409               	addwf	fputs@s^0,w,c
 12130   0073D6  6ED9               	movwf	fsr2l,c
 12131   0073D8  500E               	movf	(fputs@i+1)^0,w,c
 12132   0073DA  200A               	addwfc	(fputs@s+1)^0,w,c
 12133   0073DC  6EDA               	movwf	fsr2h,c
 12134   0073DE  50DF               	movf	indf2,w,c
 12135   0073E0  6E0C               	movwf	fputs@c^0,c
 12136   0073E2  500C               	movf	fputs@c^0,w,c
 12137   0073E4  A4D8               	btfss	status,2,c
 12138   0073E6  EFF7  F039         	goto	u3161
 12139   0073EA  EFF9  F039         	goto	u3160
 12140   0073EE                     u3161:
 12141   0073EE  EFE0  F039         	goto	l3611
 12142   0073F2                     u3160:
 12143   0073F2  0012               	return		;funcret
 12144   0073F4                     __end_of_fputs:
 12145                           	callstack 0
 12146                           
 12147 ;; *************** function _fputc *****************
 12148 ;; Defined at:
 12149 ;;		line 8 in file "C:\Program Files\Microchip\xc8\v3.00\pic\sources\c99\common\nf_fputc.c"
 12150 ;; Parameters:    Size  Location     Type
 12151 ;;  c               2    0[COMRAM] int 
 12152 ;;  fp              1    2[COMRAM] PTR struct _IO_FILE
 12153 ;;		 -> sprintf@f(11), 
 12154 ;; Auto vars:     Size  Location     Type
 12155 ;;		None
 12156 ;; Return value:  Size  Location     Type
 12157 ;;                  2    0[COMRAM] int 
 12158 ;; Registers used:
 12159 ;;		wreg, fsr1l, fsr1h, fsr2l, fsr2h, status,2, status,0, cstack
 12160 ;; Tracked objects:
 12161 ;;		On entry : 0/0
 12162 ;;		On exit  : 0/0
 12163 ;;		Unchanged: 0/0
 12164 ;; Data sizes:     COMRAM   BANK0   BANK1   BANK2   BANK3   BANK4   BANK5   BANK6   BANK7   BANK8   BANK9  BANK10  BANK1
      +1  BANK12  BANK13  BANK14  BANK15  BANK16  BANK17  BANK18  BANK19  BANK20  BANK21  BANK22  BANK23  BANK24  BANK25  BANK2
      +6  BANK27  BANK28  BANK29  BANK30  BANK31
 12165 ;;      Params:         3       0       0       0       0       0       0       0       0       0       0       0       
      +0       0       0       0       0       0       0       0       0       0       0       0       0       0       0       
      +0       0       0       0       0       0
 12166 ;;      Locals:         0       0       0       0       0       0       0       0       0       0       0       0       
      +0       0       0       0       0       0       0       0       0       0       0       0       0       0       0       
      +0       0       0       0       0       0
 12167 ;;      Temps:          5       0       0       0       0       0       0       0       0       0       0       0       
      +0       0       0       0       0       0       0       0       0       0       0       0       0       0       0       
      +0       0       0       0       0       0
 12168 ;;      Totals:         8       0       0       0       0       0       0       0       0       0       0       0       
      +0       0       0       0       0       0       0       0       0       0       0       0       0       0       0       
      +0       0       0       0       0       0
 12169 ;;Total ram usage:        8 bytes
 12170 ;; Hardware stack levels used: 1
 12171 ;; Hardware stack levels required when called: 1
 12172 ;; This function calls:
 12173 ;;		_putch
 12174 ;; This function is called by:
 12175 ;;		_pad
 12176 ;;		_vfpfcnvrt
 12177 ;;		_fputs
 12178 ;; This function uses a non-reentrant model
 12179 ;;
 12180                           
 12181                           	psect	text23
 12182   006E56                     __ptext23:
 12183                           	callstack 0
 12184   006E56                     _fputc:
 12185                           	callstack 26
 12186   006E56  5003               	movf	fputc@fp^0,w,c
 12187   006E58  B4D8               	btfsc	status,2,c
 12188   006E5A  EF31  F037         	goto	u2731
 12189   006E5E  EF33  F037         	goto	u2730
 12190   006E62                     u2731:
 12191   006E62  EF3B  F037         	goto	l3405
 12192   006E66                     u2730:
 12193   006E66  5003               	movf	fputc@fp^0,w,c
 12194   006E68  A4D8               	btfss	status,2,c
 12195   006E6A  EF39  F037         	goto	u2741
 12196   006E6E  EF3B  F037         	goto	u2740
 12197   006E72                     u2741:
 12198   006E72  EF40  F037         	goto	l3407
 12199   006E76                     u2740:
 12200   006E76                     l3405:
 12201   006E76  5001               	movf	fputc@c^0,w,c
 12202   006E78  ECD1  F03A         	call	_putch
 12203   006E7C  EF80  F037         	goto	l1105
 12204   006E80                     l3407:
 12205   006E80  5003               	movf	fputc@fp^0,w,c
 12206   006E82  6ED9               	movwf	fsr2l,c
 12207   006E84  6ADA               	clrf	fsr2h,c
 12208   006E86  0E09               	movlw	9
 12209   006E88  26D9               	addwf	fsr2l,f,c
 12210   006E8A  50DE               	movf	postinc2,w,c
 12211   006E8C  10DE               	iorwf	postinc2,w,c
 12212   006E8E  B4D8               	btfsc	status,2,c
 12213   006E90  EF4C  F037         	goto	u2751
 12214   006E94  EF4E  F037         	goto	u2750
 12215   006E98                     u2751:
 12216   006E98  EF67  F037         	goto	l3411
 12217   006E9C                     u2750:
 12218   006E9C  5003               	movf	fputc@fp^0,w,c
 12219   006E9E  6ED9               	movwf	fsr2l,c
 12220   006EA0  6ADA               	clrf	fsr2h,c
 12221   006EA2  0E09               	movlw	9
 12222   006EA4  26D9               	addwf	fsr2l,f,c
 12223   006EA6  5003               	movf	fputc@fp^0,w,c
 12224   006EA8  6EE1               	movwf	fsr1l,c
 12225   006EAA  6AE2               	clrf	fsr1h,c
 12226   006EAC  0E02               	movlw	2
 12227   006EAE  26E1               	addwf	fsr1l,f,c
 12228   006EB0  50DE               	movf	postinc2,w,c
 12229   006EB2  5CE6               	subwf	postinc1,w,c
 12230   006EB4  50E6               	movf	postinc1,w,c
 12231   006EB6  0A80               	xorlw	128
 12232   006EB8  6E08               	movwf	(??_fputc+4)^0,c
 12233   006EBA  50DE               	movf	postinc2,w,c
 12234   006EBC  0A80               	xorlw	128
 12235   006EBE  5808               	subwfb	(??_fputc+4)^0,w,c
 12236   006EC0  B0D8               	btfsc	status,0,c
 12237   006EC2  EF65  F037         	goto	u2761
 12238   006EC6  EF67  F037         	goto	u2760
 12239   006ECA                     u2761:
 12240   006ECA  EF80  F037         	goto	l1105
 12241   006ECE                     u2760:
 12242   006ECE                     l3411:
 12243   006ECE  5003               	movf	fputc@fp^0,w,c
 12244   006ED0  6ED9               	movwf	fsr2l,c
 12245   006ED2  6ADA               	clrf	fsr2h,c
 12246   006ED4  0E02               	movlw	2
 12247   006ED6  26D9               	addwf	fsr2l,f,c
 12248   006ED8  50DF               	movf	indf2,w,c
 12249   006EDA  6E04               	movwf	??_fputc^0,c
 12250   006EDC  5003               	movf	fputc@fp^0,w,c
 12251   006EDE  6ED9               	movwf	fsr2l,c
 12252   006EE0  6ADA               	clrf	fsr2h,c
 12253   006EE2  50DF               	movf	indf2,w,c
 12254   006EE4  2404               	addwf	??_fputc^0,w,c
 12255   006EE6  6ED9               	movwf	fsr2l,c
 12256   006EE8  6ADA               	clrf	fsr2h,c
 12257   006EEA  0060  F007  FFDF   	movff	fputc@c,indf2
 12258   006EF0  5003               	movf	fputc@fp^0,w,c
 12259   006EF2  6ED9               	movwf	fsr2l,c
 12260   006EF4  6ADA               	clrf	fsr2h,c
 12261   006EF6  0E02               	movlw	2
 12262   006EF8  26D9               	addwf	fsr2l,f,c
 12263   006EFA  2ADE               	incf	postinc2,f,c
 12264   006EFC  0E00               	movlw	0
 12265   006EFE  22DD               	addwfc	postdec2,f,c
 12266   006F00                     l1105:
 12267   006F00  0012               	return		;funcret
 12268   006F02                     __end_of_fputc:
 12269                           	callstack 0
 12270                           
 12271 ;; *************** function _putch *****************
 12272 ;; Defined at:
 12273 ;;		line 7 in file "C:\Program Files\Microchip\xc8\v3.00\pic\sources\c99\common\putch.c"
 12274 ;; Parameters:    Size  Location     Type
 12275 ;;  c               1    wreg     unsigned char 
 12276 ;; Auto vars:     Size  Location     Type
 12277 ;;  c               1    0[COMRAM] unsigned char 
 12278 ;; Return value:  Size  Location     Type
 12279 ;;                  1    wreg      void 
 12280 ;; Registers used:
 12281 ;;		wreg
 12282 ;; Tracked objects:
 12283 ;;		On entry : 0/0
 12284 ;;		On exit  : 0/0
 12285 ;;		Unchanged: 0/0
 12286 ;; Data sizes:     COMRAM   BANK0   BANK1   BANK2   BANK3   BANK4   BANK5   BANK6   BANK7   BANK8   BANK9  BANK10  BANK1
      +1  BANK12  BANK13  BANK14  BANK15  BANK16  BANK17  BANK18  BANK19  BANK20  BANK21  BANK22  BANK23  BANK24  BANK25  BANK2
      +6  BANK27  BANK28  BANK29  BANK30  BANK31
 12287 ;;      Params:         0       0       0       0       0       0       0       0       0       0       0       0       
      +0       0       0       0       0       0       0       0       0       0       0       0       0       0       0       
      +0       0       0       0       0       0
 12288 ;;      Locals:         0       0       0       0       0       0       0       0       0       0       0       0       
      +0       0       0       0       0       0       0       0       0       0       0       0       0       0       0       
      +0       0       0       0       0       0
 12289 ;;      Temps:          0       0       0       0       0       0       0       0       0       0       0       0       
      +0       0       0       0       0       0       0       0       0       0       0       0       0       0       0       
      +0       0       0       0       0       0
 12290 ;;      Totals:         0       0       0       0       0       0       0       0       0       0       0       0       
      +0       0       0       0       0       0       0       0       0       0       0       0       0       0       0       
      +0       0       0       0       0       0
 12291 ;;Total ram usage:        0 bytes
 12292 ;; Hardware stack levels used: 1
 12293 ;; This function calls:
 12294 ;;		Nothing
 12295 ;; This function is called by:
 12296 ;;		_fputc
 12297 ;; This function uses a non-reentrant model
 12298 ;;
 12299                           
 12300                           	psect	text24
 12301   0075A2                     __ptext24:
 12302                           	callstack 0
 12303   0075A2                     _putch:
 12304                           	callstack 26
 12305   0075A2  0012               	return		;funcret
 12306   0075A4                     __end_of_putch:
 12307                           	callstack 0
 12308                           
 12309 ;; *************** function _abs *****************
 12310 ;; Defined at:
 12311 ;;		line 1 in file "C:\Program Files\Microchip\xc8\v3.00\pic\sources\c99\common\abs.c"
 12312 ;; Parameters:    Size  Location     Type
 12313 ;;  a               2    6[COMRAM] int 
 12314 ;; Auto vars:     Size  Location     Type
 12315 ;;		None
 12316 ;; Return value:  Size  Location     Type
 12317 ;;                  2    6[COMRAM] int 
 12318 ;; Registers used:
 12319 ;;		wreg, status,2, status,0
 12320 ;; Tracked objects:
 12321 ;;		On entry : 0/0
 12322 ;;		On exit  : 0/0
 12323 ;;		Unchanged: 0/0
 12324 ;; Data sizes:     COMRAM   BANK0   BANK1   BANK2   BANK3   BANK4   BANK5   BANK6   BANK7   BANK8   BANK9  BANK10  BANK1
      +1  BANK12  BANK13  BANK14  BANK15  BANK16  BANK17  BANK18  BANK19  BANK20  BANK21  BANK22  BANK23  BANK24  BANK25  BANK2
      +6  BANK27  BANK28  BANK29  BANK30  BANK31
 12325 ;;      Params:         2       0       0       0       0       0       0       0       0       0       0       0       
      +0       0       0       0       0       0       0       0       0       0       0       0       0       0       0       
      +0       0       0       0       0       0
 12326 ;;      Locals:         0       0       0       0       0       0       0       0       0       0       0       0       
      +0       0       0       0       0       0       0       0       0       0       0       0       0       0       0       
      +0       0       0       0       0       0
 12327 ;;      Temps:          2       0       0       0       0       0       0       0       0       0       0       0       
      +0       0       0       0       0       0       0       0       0       0       0       0       0       0       0       
      +0       0       0       0       0       0
 12328 ;;      Totals:         4       0       0       0       0       0       0       0       0       0       0       0       
      +0       0       0       0       0       0       0       0       0       0       0       0       0       0       0       
      +0       0       0       0       0       0
 12329 ;;Total ram usage:        4 bytes
 12330 ;; Hardware stack levels used: 1
 12331 ;; This function calls:
 12332 ;;		Nothing
 12333 ;; This function is called by:
 12334 ;;		_dtoa
 12335 ;; This function uses a non-reentrant model
 12336 ;;
 12337                           
 12338                           	psect	text25
 12339   0074D8                     __ptext25:
 12340                           	callstack 0
 12341   0074D8                     _abs:
 12342                           	callstack 26
 12343   0074D8  BE08               	btfsc	(abs@a+1)^0,7,c
 12344   0074DA  EF71  F03A         	goto	u3911
 12345   0074DE  EF73  F03A         	goto	u3910
 12346   0074E2                     u3911:
 12347   0074E2  EF79  F03A         	goto	l1064
 12348   0074E6                     u3910:
 12349   0074E6  C007  F007         	movff	abs@a,?_abs
 12350   0074EA  C008  F008         	movff	abs@a+1,?_abs+1
 12351   0074EE  EF85  F03A         	goto	l1067
 12352   0074F2                     l1064:
 12353   0074F2  C007  F009         	movff	abs@a,??_abs
 12354   0074F6  C008  F00A         	movff	abs@a+1,??_abs+1
 12355   0074FA  1E09               	comf	??_abs^0,f,c
 12356   0074FC  1E0A               	comf	(??_abs+1)^0,f,c
 12357   0074FE  4A09               	infsnz	??_abs^0,f,c
 12358   007500  2A0A               	incf	(??_abs+1)^0,f,c
 12359   007502  C009  F007         	movff	??_abs,?_abs
 12360   007506  C00A  F008         	movff	??_abs+1,?_abs+1
 12361   00750A                     l1067:
 12362   00750A  0012               	return		;funcret
 12363   00750C                     __end_of_abs:
 12364                           	callstack 0
 12365                           
 12366 ;; *************** function ___awmod *****************
 12367 ;; Defined at:
 12368 ;;		line 7 in file "C:\Program Files\Microchip\xc8\v3.00\pic\sources\c99\common\awmod.c"
 12369 ;; Parameters:    Size  Location     Type
 12370 ;;  dividend        2    0[COMRAM] int 
 12371 ;;  divisor         2    2[COMRAM] int 
 12372 ;; Auto vars:     Size  Location     Type
 12373 ;;  sign            1    5[COMRAM] unsigned char 
 12374 ;;  counter         1    4[COMRAM] unsigned char 
 12375 ;; Return value:  Size  Location     Type
 12376 ;;                  2    0[COMRAM] int 
 12377 ;; Registers used:
 12378 ;;		wreg, status,2, status,0
 12379 ;; Tracked objects:
 12380 ;;		On entry : 0/0
 12381 ;;		On exit  : 0/0
 12382 ;;		Unchanged: 0/0
 12383 ;; Data sizes:     COMRAM   BANK0   BANK1   BANK2   BANK3   BANK4   BANK5   BANK6   BANK7   BANK8   BANK9  BANK10  BANK1
      +1  BANK12  BANK13  BANK14  BANK15  BANK16  BANK17  BANK18  BANK19  BANK20  BANK21  BANK22  BANK23  BANK24  BANK25  BANK2
      +6  BANK27  BANK28  BANK29  BANK30  BANK31
 12384 ;;      Params:         4       0       0       0       0       0       0       0       0       0       0       0       
      +0       0       0       0       0       0       0       0       0       0       0       0       0       0       0       
      +0       0       0       0       0       0
 12385 ;;      Locals:         2       0       0       0       0       0       0       0       0       0       0       0       
      +0       0       0       0       0       0       0       0       0       0       0       0       0       0       0       
      +0       0       0       0       0       0
 12386 ;;      Temps:          0       0       0       0       0       0       0       0       0       0       0       0       
      +0       0       0       0       0       0       0       0       0       0       0       0       0       0       0       
      +0       0       0       0       0       0
 12387 ;;      Totals:         6       0       0       0       0       0       0       0       0       0       0       0       
      +0       0       0       0       0       0       0       0       0       0       0       0       0       0       0       
      +0       0       0       0       0       0
 12388 ;;Total ram usage:        6 bytes
 12389 ;; Hardware stack levels used: 1
 12390 ;; This function calls:
 12391 ;;		Nothing
 12392 ;; This function is called by:
 12393 ;;		_dtoa
 12394 ;; This function uses a non-reentrant model
 12395 ;;
 12396                           
 12397                           	psect	text26
 12398   006DA8                     __ptext26:
 12399                           	callstack 0
 12400   006DA8                     ___awmod:
 12401                           	callstack 26
 12402   006DA8  6A06               	clrf	___awmod@sign^0,c
 12403   006DAA  BE02               	btfsc	(___awmod@dividend+1)^0,7,c
 12404   006DAC  EFDC  F036         	goto	u3650
 12405   006DB0  EFDA  F036         	goto	u3651
 12406   006DB4                     u3651:
 12407   006DB4  EFE2  F036         	goto	l3939
 12408   006DB8                     u3650:
 12409   006DB8  6C01               	negf	___awmod@dividend^0,c
 12410   006DBA  1E02               	comf	(___awmod@dividend+1)^0,f,c
 12411   006DBC  B0D8               	btfsc	status,0,c
 12412   006DBE  2A02               	incf	(___awmod@dividend+1)^0,f,c
 12413   006DC0  0E01               	movlw	1
 12414   006DC2  6E06               	movwf	___awmod@sign^0,c
 12415   006DC4                     l3939:
 12416   006DC4  BE04               	btfsc	(___awmod@divisor+1)^0,7,c
 12417   006DC6  EFE9  F036         	goto	u3660
 12418   006DCA  EFE7  F036         	goto	u3661
 12419   006DCE                     u3661:
 12420   006DCE  EFED  F036         	goto	l3943
 12421   006DD2                     u3660:
 12422   006DD2  6C03               	negf	___awmod@divisor^0,c
 12423   006DD4  1E04               	comf	(___awmod@divisor+1)^0,f,c
 12424   006DD6  B0D8               	btfsc	status,0,c
 12425   006DD8  2A04               	incf	(___awmod@divisor+1)^0,f,c
 12426   006DDA                     l3943:
 12427   006DDA  5003               	movf	___awmod@divisor^0,w,c
 12428   006DDC  1004               	iorwf	(___awmod@divisor+1)^0,w,c
 12429   006DDE  B4D8               	btfsc	status,2,c
 12430   006DE0  EFF4  F036         	goto	u3671
 12431   006DE4  EFF6  F036         	goto	u3670
 12432   006DE8                     u3671:
 12433   006DE8  EF1A  F037         	goto	l3959
 12434   006DEC                     u3670:
 12435   006DEC  0E01               	movlw	1
 12436   006DEE  6E05               	movwf	___awmod@counter^0,c
 12437   006DF0  EFFE  F036         	goto	l3949
 12438   006DF4                     l3947:
 12439   006DF4  90D8               	bcf	status,0,c
 12440   006DF6  3603               	rlcf	___awmod@divisor^0,f,c
 12441   006DF8  3604               	rlcf	(___awmod@divisor+1)^0,f,c
 12442   006DFA  2A05               	incf	___awmod@counter^0,f,c
 12443   006DFC                     l3949:
 12444   006DFC  AE04               	btfss	(___awmod@divisor+1)^0,7,c
 12445   006DFE  EF03  F037         	goto	u3681
 12446   006E02  EF05  F037         	goto	u3680
 12447   006E06                     u3681:
 12448   006E06  EFFA  F036         	goto	l3947
 12449   006E0A                     u3680:
 12450   006E0A                     l3951:
 12451   006E0A  5003               	movf	___awmod@divisor^0,w,c
 12452   006E0C  5C01               	subwf	___awmod@dividend^0,w,c
 12453   006E0E  5004               	movf	(___awmod@divisor+1)^0,w,c
 12454   006E10  5802               	subwfb	(___awmod@dividend+1)^0,w,c
 12455   006E12  A0D8               	btfss	status,0,c
 12456   006E14  EF0E  F037         	goto	u3691
 12457   006E18  EF10  F037         	goto	u3690
 12458   006E1C                     u3691:
 12459   006E1C  EF14  F037         	goto	l3955
 12460   006E20                     u3690:
 12461   006E20  5003               	movf	___awmod@divisor^0,w,c
 12462   006E22  5E01               	subwf	___awmod@dividend^0,f,c
 12463   006E24  5004               	movf	(___awmod@divisor+1)^0,w,c
 12464   006E26  5A02               	subwfb	(___awmod@dividend+1)^0,f,c
 12465   006E28                     l3955:
 12466   006E28  90D8               	bcf	status,0,c
 12467   006E2A  3204               	rrcf	(___awmod@divisor+1)^0,f,c
 12468   006E2C  3203               	rrcf	___awmod@divisor^0,f,c
 12469   006E2E  2E05               	decfsz	___awmod@counter^0,f,c
 12470   006E30  EF05  F037         	goto	l3951
 12471   006E34                     l3959:
 12472   006E34  5006               	movf	___awmod@sign^0,w,c
 12473   006E36  B4D8               	btfsc	status,2,c
 12474   006E38  EF20  F037         	goto	u3701
 12475   006E3C  EF22  F037         	goto	u3700
 12476   006E40                     u3701:
 12477   006E40  EF26  F037         	goto	l3963
 12478   006E44                     u3700:
 12479   006E44  6C01               	negf	___awmod@dividend^0,c
 12480   006E46  1E02               	comf	(___awmod@dividend+1)^0,f,c
 12481   006E48  B0D8               	btfsc	status,0,c
 12482   006E4A  2A02               	incf	(___awmod@dividend+1)^0,f,c
 12483   006E4C                     l3963:
 12484   006E4C  C001  F001         	movff	___awmod@dividend,?___awmod
 12485   006E50  C002  F002         	movff	___awmod@dividend+1,?___awmod+1
 12486   006E54  0012               	return		;funcret
 12487   006E56                     __end_of___awmod:
 12488                           	callstack 0
 12489                           
 12490 ;; *************** function ___awdiv *****************
 12491 ;; Defined at:
 12492 ;;		line 7 in file "C:\Program Files\Microchip\xc8\v3.00\pic\sources\c99\common\awdiv.c"
 12493 ;; Parameters:    Size  Location     Type
 12494 ;;  dividend        2    0[COMRAM] int 
 12495 ;;  divisor         2    2[COMRAM] int 
 12496 ;; Auto vars:     Size  Location     Type
 12497 ;;  quotient        2    6[COMRAM] int 
 12498 ;;  sign            1    5[COMRAM] unsigned char 
 12499 ;;  counter         1    4[COMRAM] unsigned char 
 12500 ;; Return value:  Size  Location     Type
 12501 ;;                  2    0[COMRAM] int 
 12502 ;; Registers used:
 12503 ;;		wreg, status,2, status,0
 12504 ;; Tracked objects:
 12505 ;;		On entry : 0/0
 12506 ;;		On exit  : 0/0
 12507 ;;		Unchanged: 0/0
 12508 ;; Data sizes:     COMRAM   BANK0   BANK1   BANK2   BANK3   BANK4   BANK5   BANK6   BANK7   BANK8   BANK9  BANK10  BANK1
      +1  BANK12  BANK13  BANK14  BANK15  BANK16  BANK17  BANK18  BANK19  BANK20  BANK21  BANK22  BANK23  BANK24  BANK25  BANK2
      +6  BANK27  BANK28  BANK29  BANK30  BANK31
 12509 ;;      Params:         4       0       0       0       0       0       0       0       0       0       0       0       
      +0       0       0       0       0       0       0       0       0       0       0       0       0       0       0       
      +0       0       0       0       0       0
 12510 ;;      Locals:         4       0       0       0       0       0       0       0       0       0       0       0       
      +0       0       0       0       0       0       0       0       0       0       0       0       0       0       0       
      +0       0       0       0       0       0
 12511 ;;      Temps:          0       0       0       0       0       0       0       0       0       0       0       0       
      +0       0       0       0       0       0       0       0       0       0       0       0       0       0       0       
      +0       0       0       0       0       0
 12512 ;;      Totals:         8       0       0       0       0       0       0       0       0       0       0       0       
      +0       0       0       0       0       0       0       0       0       0       0       0       0       0       0       
      +0       0       0       0       0       0
 12513 ;;Total ram usage:        8 bytes
 12514 ;; Hardware stack levels used: 1
 12515 ;; This function calls:
 12516 ;;		Nothing
 12517 ;; This function is called by:
 12518 ;;		_dtoa
 12519 ;; This function uses a non-reentrant model
 12520 ;;
 12521                           
 12522                           	psect	text27
 12523   006C2E                     __ptext27:
 12524                           	callstack 0
 12525   006C2E                     ___awdiv:
 12526                           	callstack 26
 12527   006C2E  6A06               	clrf	___awdiv@sign^0,c
 12528   006C30  BE04               	btfsc	(___awdiv@divisor+1)^0,7,c
 12529   006C32  EF1F  F036         	goto	u3590
 12530   006C36  EF1D  F036         	goto	u3591
 12531   006C3A                     u3591:
 12532   006C3A  EF25  F036         	goto	l3895
 12533   006C3E                     u3590:
 12534   006C3E  6C03               	negf	___awdiv@divisor^0,c
 12535   006C40  1E04               	comf	(___awdiv@divisor+1)^0,f,c
 12536   006C42  B0D8               	btfsc	status,0,c
 12537   006C44  2A04               	incf	(___awdiv@divisor+1)^0,f,c
 12538   006C46  0E01               	movlw	1
 12539   006C48  6E06               	movwf	___awdiv@sign^0,c
 12540   006C4A                     l3895:
 12541   006C4A  BE02               	btfsc	(___awdiv@dividend+1)^0,7,c
 12542   006C4C  EF2C  F036         	goto	u3600
 12543   006C50  EF2A  F036         	goto	u3601
 12544   006C54                     u3601:
 12545   006C54  EF32  F036         	goto	l3901
 12546   006C58                     u3600:
 12547   006C58  6C01               	negf	___awdiv@dividend^0,c
 12548   006C5A  1E02               	comf	(___awdiv@dividend+1)^0,f,c
 12549   006C5C  B0D8               	btfsc	status,0,c
 12550   006C5E  2A02               	incf	(___awdiv@dividend+1)^0,f,c
 12551   006C60  0E01               	movlw	1
 12552   006C62  1A06               	xorwf	___awdiv@sign^0,f,c
 12553   006C64                     l3901:
 12554   006C64  0E00               	movlw	0
 12555   006C66  6E08               	movwf	(___awdiv@quotient+1)^0,c
 12556   006C68  0E00               	movlw	0
 12557   006C6A  6E07               	movwf	___awdiv@quotient^0,c
 12558   006C6C  5003               	movf	___awdiv@divisor^0,w,c
 12559   006C6E  1004               	iorwf	(___awdiv@divisor+1)^0,w,c
 12560   006C70  B4D8               	btfsc	status,2,c
 12561   006C72  EF3D  F036         	goto	u3611
 12562   006C76  EF3F  F036         	goto	u3610
 12563   006C7A                     u3611:
 12564   006C7A  EF67  F036         	goto	l3923
 12565   006C7E                     u3610:
 12566   006C7E  0E01               	movlw	1
 12567   006C80  6E05               	movwf	___awdiv@counter^0,c
 12568   006C82  EF47  F036         	goto	l3909
 12569   006C86                     l3907:
 12570   006C86  90D8               	bcf	status,0,c
 12571   006C88  3603               	rlcf	___awdiv@divisor^0,f,c
 12572   006C8A  3604               	rlcf	(___awdiv@divisor+1)^0,f,c
 12573   006C8C  2A05               	incf	___awdiv@counter^0,f,c
 12574   006C8E                     l3909:
 12575   006C8E  AE04               	btfss	(___awdiv@divisor+1)^0,7,c
 12576   006C90  EF4C  F036         	goto	u3621
 12577   006C94  EF4E  F036         	goto	u3620
 12578   006C98                     u3621:
 12579   006C98  EF43  F036         	goto	l3907
 12580   006C9C                     u3620:
 12581   006C9C                     l3911:
 12582   006C9C  90D8               	bcf	status,0,c
 12583   006C9E  3607               	rlcf	___awdiv@quotient^0,f,c
 12584   006CA0  3608               	rlcf	(___awdiv@quotient+1)^0,f,c
 12585   006CA2  5003               	movf	___awdiv@divisor^0,w,c
 12586   006CA4  5C01               	subwf	___awdiv@dividend^0,w,c
 12587   006CA6  5004               	movf	(___awdiv@divisor+1)^0,w,c
 12588   006CA8  5802               	subwfb	(___awdiv@dividend+1)^0,w,c
 12589   006CAA  A0D8               	btfss	status,0,c
 12590   006CAC  EF5A  F036         	goto	u3631
 12591   006CB0  EF5C  F036         	goto	u3630
 12592   006CB4                     u3631:
 12593   006CB4  EF61  F036         	goto	l3919
 12594   006CB8                     u3630:
 12595   006CB8  5003               	movf	___awdiv@divisor^0,w,c
 12596   006CBA  5E01               	subwf	___awdiv@dividend^0,f,c
 12597   006CBC  5004               	movf	(___awdiv@divisor+1)^0,w,c
 12598   006CBE  5A02               	subwfb	(___awdiv@dividend+1)^0,f,c
 12599   006CC0  8007               	bsf	___awdiv@quotient^0,0,c
 12600   006CC2                     l3919:
 12601   006CC2  90D8               	bcf	status,0,c
 12602   006CC4  3204               	rrcf	(___awdiv@divisor+1)^0,f,c
 12603   006CC6  3203               	rrcf	___awdiv@divisor^0,f,c
 12604   006CC8  2E05               	decfsz	___awdiv@counter^0,f,c
 12605   006CCA  EF4E  F036         	goto	l3911
 12606   006CCE                     l3923:
 12607   006CCE  5006               	movf	___awdiv@sign^0,w,c
 12608   006CD0  B4D8               	btfsc	status,2,c
 12609   006CD2  EF6D  F036         	goto	u3641
 12610   006CD6  EF6F  F036         	goto	u3640
 12611   006CDA                     u3641:
 12612   006CDA  EF73  F036         	goto	l3927
 12613   006CDE                     u3640:
 12614   006CDE  6C07               	negf	___awdiv@quotient^0,c
 12615   006CE0  1E08               	comf	(___awdiv@quotient+1)^0,f,c
 12616   006CE2  B0D8               	btfsc	status,0,c
 12617   006CE4  2A08               	incf	(___awdiv@quotient+1)^0,f,c
 12618   006CE6                     l3927:
 12619   006CE6  C007  F001         	movff	___awdiv@quotient,?___awdiv
 12620   006CEA  C008  F002         	movff	___awdiv@quotient+1,?___awdiv+1
 12621   006CEE  0012               	return		;funcret
 12622   006CF0                     __end_of___awdiv:
 12623                           	callstack 0
 12624                           
 12625 ;; *************** function _rand *****************
 12626 ;; Defined at:
 12627 ;;		line 11 in file "C:\Program Files\Microchip\xc8\v3.00\pic\sources\c99\common\rand.c"
 12628 ;; Parameters:    Size  Location     Type
 12629 ;;		None
 12630 ;; Auto vars:     Size  Location     Type
 12631 ;;		None
 12632 ;; Return value:  Size  Location     Type
 12633 ;;                  2   12[COMRAM] int 
 12634 ;; Registers used:
 12635 ;;		wreg, status,2, status,0, cstack
 12636 ;; Tracked objects:
 12637 ;;		On entry : 0/0
 12638 ;;		On exit  : 0/0
 12639 ;;		Unchanged: 0/0
 12640 ;; Data sizes:     COMRAM   BANK0   BANK1   BANK2   BANK3   BANK4   BANK5   BANK6   BANK7   BANK8   BANK9  BANK10  BANK1
      +1  BANK12  BANK13  BANK14  BANK15  BANK16  BANK17  BANK18  BANK19  BANK20  BANK21  BANK22  BANK23  BANK24  BANK25  BANK2
      +6  BANK27  BANK28  BANK29  BANK30  BANK31
 12641 ;;      Params:         2       0       0       0       0       0       0       0       0       0       0       0       
      +0       0       0       0       0       0       0       0       0       0       0       0       0       0       0       
      +0       0       0       0       0       0
 12642 ;;      Locals:         0       0       0       0       0       0       0       0       0       0       0       0       
      +0       0       0       0       0       0       0       0       0       0       0       0       0       0       0       
      +0       0       0       0       0       0
 12643 ;;      Temps:          4       0       0       0       0       0       0       0       0       0       0       0       
      +0       0       0       0       0       0       0       0       0       0       0       0       0       0       0       
      +0       0       0       0       0       0
 12644 ;;      Totals:         6       0       0       0       0       0       0       0       0       0       0       0       
      +0       0       0       0       0       0       0       0       0       0       0       0       0       0       0       
      +0       0       0       0       0       0
 12645 ;;Total ram usage:        6 bytes
 12646 ;; Hardware stack levels used: 1
 12647 ;; Hardware stack levels required when called: 1
 12648 ;; This function calls:
 12649 ;;		___lmul
 12650 ;; This function is called by:
 12651 ;;		_main
 12652 ;; This function uses a non-reentrant model
 12653 ;;
 12654                           
 12655                           	psect	text28
 12656   0070B0                     __ptext28:
 12657                           	callstack 0
 12658   0070B0                     _rand:
 12659                           	callstack 29
 12660   0070B0  C0B6  F001         	movff	_seed,___lmul@multiplier
 12661   0070B4  C0B7  F002         	movff	_seed+1,___lmul@multiplier+1
 12662   0070B8  C0B8  F003         	movff	_seed+2,___lmul@multiplier+2
 12663   0070BC  C0B9  F004         	movff	_seed+3,___lmul@multiplier+3
 12664   0070C0  0E2D               	movlw	45
 12665   0070C2  6E05               	movwf	___lmul@multiplicand^0,c
 12666   0070C4  0E7F               	movlw	127
 12667   0070C6  6E06               	movwf	(___lmul@multiplicand+1)^0,c
 12668   0070C8  0E95               	movlw	149
 12669   0070CA  6E07               	movwf	(___lmul@multiplicand+2)^0,c
 12670   0070CC  0E4C               	movlw	76
 12671   0070CE  6E08               	movwf	(___lmul@multiplicand+3)^0,c
 12672   0070D0  EC8F  F038         	call	___lmul	;wreg free
 12673   0070D4  0E01               	movlw	1
 12674   0070D6  2401               	addwf	?___lmul^0,w,c
 12675   0070D8  0100               	movlb	0	; () banked
 12676   0070DA  6FB6               	movwf	_seed& (0+255),b
 12677   0070DC  0E00               	movlw	0
 12678   0070DE  2002               	addwfc	(?___lmul+1)^0,w,c
 12679   0070E0  6FB7               	movwf	(_seed+1)& (0+255),b
 12680   0070E2  0E00               	movlw	0
 12681   0070E4  2003               	addwfc	(?___lmul+2)^0,w,c
 12682   0070E6  6FB8               	movwf	(_seed+2)& (0+255),b
 12683   0070E8  0E00               	movlw	0
 12684   0070EA  2004               	addwfc	(?___lmul+3)^0,w,c
 12685   0070EC  6FB9               	movwf	(_seed+3)& (0+255),b
 12686   0070EE                     
 12687                           ; BSR set to: 0
 12688   0070EE  C0B6  F00F         	movff	_seed,??_rand
 12689   0070F2  C0B7  F010         	movff	_seed+1,??_rand+1
 12690   0070F6  C0B8  F011         	movff	_seed+2,??_rand+2
 12691   0070FA  C0B9  F012         	movff	_seed+3,??_rand+3
 12692   0070FE  0E12               	movlw	18
 12693   007100  EF87  F038         	goto	u4700
 12694   007104                     u4705:
 12695   007104  90D8               	bcf	status,0,c
 12696   007106  3212               	rrcf	(??_rand+3)^0,f,c
 12697   007108  3211               	rrcf	(??_rand+2)^0,f,c
 12698   00710A  3210               	rrcf	(??_rand+1)^0,f,c
 12699   00710C  320F               	rrcf	??_rand^0,f,c
 12700   00710E                     u4700:
 12701   00710E  2EE8               	decfsz	wreg,f,c
 12702   007110  EF82  F038         	goto	u4705
 12703   007114  C00F  F00D         	movff	??_rand,?_rand
 12704   007118  C010  F00E         	movff	??_rand+1,?_rand+1
 12705   00711C                     
 12706                           ; BSR set to: 0
 12707   00711C  0012               	return		;funcret
 12708   00711E                     __end_of_rand:
 12709                           	callstack 0
 12710                           
 12711 ;; *************** function ___lmul *****************
 12712 ;; Defined at:
 12713 ;;		line 15 in file "C:\Program Files\Microchip\xc8\v3.00\pic\sources\c99\common\Umul32.c"
 12714 ;; Parameters:    Size  Location     Type
 12715 ;;  multiplier      4    0[COMRAM] unsigned long 
 12716 ;;  multiplicand    4    4[COMRAM] unsigned long 
 12717 ;; Auto vars:     Size  Location     Type
 12718 ;;  product         4    8[COMRAM] unsigned long 
 12719 ;; Return value:  Size  Location     Type
 12720 ;;                  4    0[COMRAM] unsigned long 
 12721 ;; Registers used:
 12722 ;;		wreg, status,2, status,0
 12723 ;; Tracked objects:
 12724 ;;		On entry : 0/0
 12725 ;;		On exit  : 0/0
 12726 ;;		Unchanged: 0/0
 12727 ;; Data sizes:     COMRAM   BANK0   BANK1   BANK2   BANK3   BANK4   BANK5   BANK6   BANK7   BANK8   BANK9  BANK10  BANK1
      +1  BANK12  BANK13  BANK14  BANK15  BANK16  BANK17  BANK18  BANK19  BANK20  BANK21  BANK22  BANK23  BANK24  BANK25  BANK2
      +6  BANK27  BANK28  BANK29  BANK30  BANK31
 12728 ;;      Params:         8       0       0       0       0       0       0       0       0       0       0       0       
      +0       0       0       0       0       0       0       0       0       0       0       0       0       0       0       
      +0       0       0       0       0       0
 12729 ;;      Locals:         4       0       0       0       0       0       0       0       0       0       0       0       
      +0       0       0       0       0       0       0       0       0       0       0       0       0       0       0       
      +0       0       0       0       0       0
 12730 ;;      Temps:          0       0       0       0       0       0       0       0       0       0       0       0       
      +0       0       0       0       0       0       0       0       0       0       0       0       0       0       0       
      +0       0       0       0       0       0
 12731 ;;      Totals:        12       0       0       0       0       0       0       0       0       0       0       0       
      +0       0       0       0       0       0       0       0       0       0       0       0       0       0       0       
      +0       0       0       0       0       0
 12732 ;;Total ram usage:       12 bytes
 12733 ;; Hardware stack levels used: 1
 12734 ;; This function calls:
 12735 ;;		Nothing
 12736 ;; This function is called by:
 12737 ;;		_rand
 12738 ;; This function uses a non-reentrant model
 12739 ;;
 12740                           
 12741                           	psect	text29
 12742   00711E                     __ptext29:
 12743                           	callstack 0
 12744   00711E                     ___lmul:
 12745                           	callstack 29
 12746   00711E  0E00               	movlw	0
 12747   007120  6E09               	movwf	___lmul@product^0,c
 12748   007122  0E00               	movlw	0
 12749   007124  6E0A               	movwf	(___lmul@product+1)^0,c
 12750   007126  0E00               	movlw	0
 12751   007128  6E0B               	movwf	(___lmul@product+2)^0,c
 12752   00712A  0E00               	movlw	0
 12753   00712C  6E0C               	movwf	(___lmul@product+3)^0,c
 12754   00712E                     l4555:
 12755   00712E  A001               	btfss	___lmul@multiplier^0,0,c
 12756   007130  EF9C  F038         	goto	u4661
 12757   007134  EF9E  F038         	goto	u4660
 12758   007138                     u4661:
 12759   007138  EFA6  F038         	goto	l4559
 12760   00713C                     u4660:
 12761   00713C  5005               	movf	___lmul@multiplicand^0,w,c
 12762   00713E  2609               	addwf	___lmul@product^0,f,c
 12763   007140  5006               	movf	(___lmul@multiplicand+1)^0,w,c
 12764   007142  220A               	addwfc	(___lmul@product+1)^0,f,c
 12765   007144  5007               	movf	(___lmul@multiplicand+2)^0,w,c
 12766   007146  220B               	addwfc	(___lmul@product+2)^0,f,c
 12767   007148  5008               	movf	(___lmul@multiplicand+3)^0,w,c
 12768   00714A  220C               	addwfc	(___lmul@product+3)^0,f,c
 12769   00714C                     l4559:
 12770   00714C  90D8               	bcf	status,0,c
 12771   00714E  3605               	rlcf	___lmul@multiplicand^0,f,c
 12772   007150  3606               	rlcf	(___lmul@multiplicand+1)^0,f,c
 12773   007152  3607               	rlcf	(___lmul@multiplicand+2)^0,f,c
 12774   007154  3608               	rlcf	(___lmul@multiplicand+3)^0,f,c
 12775   007156  90D8               	bcf	status,0,c
 12776   007158  3204               	rrcf	(___lmul@multiplier+3)^0,f,c
 12777   00715A  3203               	rrcf	(___lmul@multiplier+2)^0,f,c
 12778   00715C  3202               	rrcf	(___lmul@multiplier+1)^0,f,c
 12779   00715E  3201               	rrcf	___lmul@multiplier^0,f,c
 12780   007160  5001               	movf	___lmul@multiplier^0,w,c
 12781   007162  1002               	iorwf	(___lmul@multiplier+1)^0,w,c
 12782   007164  1003               	iorwf	(___lmul@multiplier+2)^0,w,c
 12783   007166  1004               	iorwf	(___lmul@multiplier+3)^0,w,c
 12784   007168  A4D8               	btfss	status,2,c
 12785   00716A  EFB9  F038         	goto	u4671
 12786   00716E  EFBB  F038         	goto	u4670
 12787   007172                     u4671:
 12788   007172  EF97  F038         	goto	l4555
 12789   007176                     u4670:
 12790   007176  C009  F001         	movff	___lmul@product,?___lmul
 12791   00717A  C00A  F002         	movff	___lmul@product+1,?___lmul+1
 12792   00717E  C00B  F003         	movff	___lmul@product+2,?___lmul+2
 12793   007182  C00C  F004         	movff	___lmul@product+3,?___lmul+3
 12794   007186  0012               	return		;funcret
 12795   007188                     __end_of___lmul:
 12796                           	callstack 0
 12797                           
 12798 ;; *************** function ___xxtofl *****************
 12799 ;; Defined at:
 12800 ;;		line 10 in file "C:\Program Files\Microchip\xc8\v3.00\pic\sources\c99\common\xxtofl.c"
 12801 ;; Parameters:    Size  Location     Type
 12802 ;;  sign            1    wreg     unsigned char 
 12803 ;;  val             4    0[COMRAM] long 
 12804 ;; Auto vars:     Size  Location     Type
 12805 ;;  sign            1    8[COMRAM] unsigned char 
 12806 ;;  arg             4   10[COMRAM] unsigned long 
 12807 ;;  exp             1    9[COMRAM] unsigned char 
 12808 ;; Return value:  Size  Location     Type
 12809 ;;                  4    0[COMRAM] unsigned char 
 12810 ;; Registers used:
 12811 ;;		wreg, status,2, status,0
 12812 ;; Tracked objects:
 12813 ;;		On entry : 0/0
 12814 ;;		On exit  : 0/0
 12815 ;;		Unchanged: 0/0
 12816 ;; Data sizes:     COMRAM   BANK0   BANK1   BANK2   BANK3   BANK4   BANK5   BANK6   BANK7   BANK8   BANK9  BANK10  BANK1
      +1  BANK12  BANK13  BANK14  BANK15  BANK16  BANK17  BANK18  BANK19  BANK20  BANK21  BANK22  BANK23  BANK24  BANK25  BANK2
      +6  BANK27  BANK28  BANK29  BANK30  BANK31
 12817 ;;      Params:         4       0       0       0       0       0       0       0       0       0       0       0       
      +0       0       0       0       0       0       0       0       0       0       0       0       0       0       0       
      +0       0       0       0       0       0
 12818 ;;      Locals:         6       0       0       0       0       0       0       0       0       0       0       0       
      +0       0       0       0       0       0       0       0       0       0       0       0       0       0       0       
      +0       0       0       0       0       0
 12819 ;;      Temps:          4       0       0       0       0       0       0       0       0       0       0       0       
      +0       0       0       0       0       0       0       0       0       0       0       0       0       0       0       
      +0       0       0       0       0       0
 12820 ;;      Totals:        14       0       0       0       0       0       0       0       0       0       0       0       
      +0       0       0       0       0       0       0       0       0       0       0       0       0       0       0       
      +0       0       0       0       0       0
 12821 ;;Total ram usage:       14 bytes
 12822 ;; Hardware stack levels used: 1
 12823 ;; This function calls:
 12824 ;;		Nothing
 12825 ;; This function is called by:
 12826 ;;		_main
 12827 ;; This function uses a non-reentrant model
 12828 ;;
 12829                           
 12830                           	psect	text30
 12831   0065F8                     __ptext30:
 12832                           	callstack 0
 12833   0065F8                     ___xxtofl:
 12834                           	callstack 30
 12835                           
 12836                           ;incstack = 0
 12837                           ;___xxtofl@sign stored from wreg
 12838   0065F8  6E09               	movwf	___xxtofl@sign^0,c
 12839   0065FA  5009               	movf	___xxtofl@sign^0,w,c
 12840   0065FC  B4D8               	btfsc	status,2,c
 12841   0065FE  EF03  F033         	goto	u4731
 12842   006602  EF05  F033         	goto	u4730
 12843   006606                     u4731:
 12844   006606  EF27  F033         	goto	l882
 12845   00660A                     u4730:
 12846   00660A  BE04               	btfsc	(___xxtofl@val+3)^0,7,c
 12847   00660C  EF0C  F033         	goto	u4740
 12848   006610  EF0A  F033         	goto	u4741
 12849   006614                     u4741:
 12850   006614  EF27  F033         	goto	l882
 12851   006618                     u4740:
 12852   006618  C001  F005         	movff	___xxtofl@val,??___xxtofl
 12853   00661C  C002  F006         	movff	___xxtofl@val+1,??___xxtofl+1
 12854   006620  C003  F007         	movff	___xxtofl@val+2,??___xxtofl+2
 12855   006624  C004  F008         	movff	___xxtofl@val+3,??___xxtofl+3
 12856   006628  1E05               	comf	??___xxtofl^0,f,c
 12857   00662A  1E06               	comf	(??___xxtofl+1)^0,f,c
 12858   00662C  1E07               	comf	(??___xxtofl+2)^0,f,c
 12859   00662E  1E08               	comf	(??___xxtofl+3)^0,f,c
 12860   006630  2A05               	incf	??___xxtofl^0,f,c
 12861   006632  0E00               	movlw	0
 12862   006634  2206               	addwfc	(??___xxtofl+1)^0,f,c
 12863   006636  2207               	addwfc	(??___xxtofl+2)^0,f,c
 12864   006638  2208               	addwfc	(??___xxtofl+3)^0,f,c
 12865   00663A  C005  F00B         	movff	??___xxtofl,___xxtofl@arg
 12866   00663E  C006  F00C         	movff	??___xxtofl+1,___xxtofl@arg+1
 12867   006642  C007  F00D         	movff	??___xxtofl+2,___xxtofl@arg+2
 12868   006646  C008  F00E         	movff	??___xxtofl+3,___xxtofl@arg+3
 12869   00664A  EF2F  F033         	goto	l4671
 12870   00664E                     l882:
 12871   00664E  C001  F00B         	movff	___xxtofl@val,___xxtofl@arg
 12872   006652  C002  F00C         	movff	___xxtofl@val+1,___xxtofl@arg+1
 12873   006656  C003  F00D         	movff	___xxtofl@val+2,___xxtofl@arg+2
 12874   00665A  C004  F00E         	movff	___xxtofl@val+3,___xxtofl@arg+3
 12875   00665E                     l4671:
 12876   00665E  5001               	movf	___xxtofl@val^0,w,c
 12877   006660  1002               	iorwf	(___xxtofl@val+1)^0,w,c
 12878   006662  1003               	iorwf	(___xxtofl@val+2)^0,w,c
 12879   006664  1004               	iorwf	(___xxtofl@val+3)^0,w,c
 12880   006666  A4D8               	btfss	status,2,c
 12881   006668  EF38  F033         	goto	u4751
 12882   00666C  EF3A  F033         	goto	u4750
 12883   006670                     u4751:
 12884   006670  EF44  F033         	goto	l4677
 12885   006674                     u4750:
 12886   006674  0E00               	movlw	0
 12887   006676  6E01               	movwf	?___xxtofl^0,c
 12888   006678  0E00               	movlw	0
 12889   00667A  6E02               	movwf	(?___xxtofl+1)^0,c
 12890   00667C  0E00               	movlw	0
 12891   00667E  6E03               	movwf	(?___xxtofl+2)^0,c
 12892   006680  0E00               	movlw	0
 12893   006682  6E04               	movwf	(?___xxtofl+3)^0,c
 12894   006684  EFD5  F033         	goto	l885
 12895   006688                     l4677:
 12896   006688  0E96               	movlw	150
 12897   00668A  6E0A               	movwf	___xxtofl@exp^0,c
 12898   00668C  EF4E  F033         	goto	l4681
 12899   006690                     l4679:
 12900   006690  2A0A               	incf	___xxtofl@exp^0,f,c
 12901   006692  90D8               	bcf	status,0,c
 12902   006694  320E               	rrcf	(___xxtofl@arg+3)^0,f,c
 12903   006696  320D               	rrcf	(___xxtofl@arg+2)^0,f,c
 12904   006698  320C               	rrcf	(___xxtofl@arg+1)^0,f,c
 12905   00669A  320B               	rrcf	___xxtofl@arg^0,f,c
 12906   00669C                     l4681:
 12907   00669C  0E00               	movlw	0
 12908   00669E  140B               	andwf	___xxtofl@arg^0,w,c
 12909   0066A0  6E05               	movwf	??___xxtofl^0,c
 12910   0066A2  0E00               	movlw	0
 12911   0066A4  140C               	andwf	(___xxtofl@arg+1)^0,w,c
 12912   0066A6  6E06               	movwf	(??___xxtofl+1)^0,c
 12913   0066A8  0E00               	movlw	0
 12914   0066AA  140D               	andwf	(___xxtofl@arg+2)^0,w,c
 12915   0066AC  6E07               	movwf	(??___xxtofl+2)^0,c
 12916   0066AE  0EFE               	movlw	254
 12917   0066B0  140E               	andwf	(___xxtofl@arg+3)^0,w,c
 12918   0066B2  6E08               	movwf	(??___xxtofl+3)^0,c
 12919   0066B4  5005               	movf	??___xxtofl^0,w,c
 12920   0066B6  1006               	iorwf	(??___xxtofl+1)^0,w,c
 12921   0066B8  1007               	iorwf	(??___xxtofl+2)^0,w,c
 12922   0066BA  1008               	iorwf	(??___xxtofl+3)^0,w,c
 12923   0066BC  A4D8               	btfss	status,2,c
 12924   0066BE  EF63  F033         	goto	u4761
 12925   0066C2  EF65  F033         	goto	u4760
 12926   0066C6                     u4761:
 12927   0066C6  EF48  F033         	goto	l4679
 12928   0066CA                     u4760:
 12929   0066CA  EF73  F033         	goto	l889
 12930   0066CE                     l4683:
 12931   0066CE  2A0A               	incf	___xxtofl@exp^0,f,c
 12932   0066D0  0E01               	movlw	1
 12933   0066D2  260B               	addwf	___xxtofl@arg^0,f,c
 12934   0066D4  0E00               	movlw	0
 12935   0066D6  220C               	addwfc	(___xxtofl@arg+1)^0,f,c
 12936   0066D8  220D               	addwfc	(___xxtofl@arg+2)^0,f,c
 12937   0066DA  220E               	addwfc	(___xxtofl@arg+3)^0,f,c
 12938   0066DC  90D8               	bcf	status,0,c
 12939   0066DE  320E               	rrcf	(___xxtofl@arg+3)^0,f,c
 12940   0066E0  320D               	rrcf	(___xxtofl@arg+2)^0,f,c
 12941   0066E2  320C               	rrcf	(___xxtofl@arg+1)^0,f,c
 12942   0066E4  320B               	rrcf	___xxtofl@arg^0,f,c
 12943   0066E6                     l889:
 12944   0066E6  0E00               	movlw	0
 12945   0066E8  140B               	andwf	___xxtofl@arg^0,w,c
 12946   0066EA  6E05               	movwf	??___xxtofl^0,c
 12947   0066EC  0E00               	movlw	0
 12948   0066EE  140C               	andwf	(___xxtofl@arg+1)^0,w,c
 12949   0066F0  6E06               	movwf	(??___xxtofl+1)^0,c
 12950   0066F2  0E00               	movlw	0
 12951   0066F4  140D               	andwf	(___xxtofl@arg+2)^0,w,c
 12952   0066F6  6E07               	movwf	(??___xxtofl+2)^0,c
 12953   0066F8  0EFF               	movlw	255
 12954   0066FA  140E               	andwf	(___xxtofl@arg+3)^0,w,c
 12955   0066FC  6E08               	movwf	(??___xxtofl+3)^0,c
 12956   0066FE  5005               	movf	??___xxtofl^0,w,c
 12957   006700  1006               	iorwf	(??___xxtofl+1)^0,w,c
 12958   006702  1007               	iorwf	(??___xxtofl+2)^0,w,c
 12959   006704  1008               	iorwf	(??___xxtofl+3)^0,w,c
 12960   006706  A4D8               	btfss	status,2,c
 12961   006708  EF88  F033         	goto	u4771
 12962   00670C  EF8A  F033         	goto	u4770
 12963   006710                     u4771:
 12964   006710  EF67  F033         	goto	l4683
 12965   006714                     u4770:
 12966   006714  EF92  F033         	goto	l4691
 12967   006718                     l4689:
 12968   006718  060A               	decf	___xxtofl@exp^0,f,c
 12969   00671A  90D8               	bcf	status,0,c
 12970   00671C  360B               	rlcf	___xxtofl@arg^0,f,c
 12971   00671E  360C               	rlcf	(___xxtofl@arg+1)^0,f,c
 12972   006720  360D               	rlcf	(___xxtofl@arg+2)^0,f,c
 12973   006722  360E               	rlcf	(___xxtofl@arg+3)^0,f,c
 12974   006724                     l4691:
 12975   006724  BE0D               	btfsc	(___xxtofl@arg+2)^0,7,c
 12976   006726  EF97  F033         	goto	u4781
 12977   00672A  EF99  F033         	goto	u4780
 12978   00672E                     u4781:
 12979   00672E  EFA1  F033         	goto	l896
 12980   006732                     u4780:
 12981   006732  0E02               	movlw	2
 12982   006734  600A               	cpfslt	___xxtofl@exp^0,c
 12983   006736  EF9F  F033         	goto	u4791
 12984   00673A  EFA1  F033         	goto	u4790
 12985   00673E                     u4791:
 12986   00673E  EF8C  F033         	goto	l4689
 12987   006742                     u4790:
 12988   006742                     l896:
 12989   006742  B00A               	btfsc	___xxtofl@exp^0,0,c
 12990   006744  EFA6  F033         	goto	u4801
 12991   006748  EFA8  F033         	goto	u4800
 12992   00674C                     u4801:
 12993   00674C  EFA9  F033         	goto	l4697
 12994   006750                     u4800:
 12995   006750  9E0D               	bcf	(___xxtofl@arg+2)^0,7,c
 12996   006752                     l4697:
 12997   006752  90D8               	bcf	status,0,c
 12998   006754  320A               	rrcf	___xxtofl@exp^0,f,c
 12999   006756  C00A  F005         	movff	___xxtofl@exp,??___xxtofl
 13000   00675A  6A06               	clrf	(??___xxtofl+1)^0,c
 13001   00675C  6A07               	clrf	(??___xxtofl+2)^0,c
 13002   00675E  6A08               	clrf	(??___xxtofl+3)^0,c
 13003   006760  C005  F008         	movff	??___xxtofl,??___xxtofl+3
 13004   006764  6A07               	clrf	(??___xxtofl+2)^0,c
 13005   006766  6A06               	clrf	(??___xxtofl+1)^0,c
 13006   006768  6A05               	clrf	??___xxtofl^0,c
 13007   00676A  5005               	movf	??___xxtofl^0,w,c
 13008   00676C  120B               	iorwf	___xxtofl@arg^0,f,c
 13009   00676E  5006               	movf	(??___xxtofl+1)^0,w,c
 13010   006770  120C               	iorwf	(___xxtofl@arg+1)^0,f,c
 13011   006772  5007               	movf	(??___xxtofl+2)^0,w,c
 13012   006774  120D               	iorwf	(___xxtofl@arg+2)^0,f,c
 13013   006776  5008               	movf	(??___xxtofl+3)^0,w,c
 13014   006778  120E               	iorwf	(___xxtofl@arg+3)^0,f,c
 13015   00677A  5009               	movf	___xxtofl@sign^0,w,c
 13016   00677C  B4D8               	btfsc	status,2,c
 13017   00677E  EFC3  F033         	goto	u4811
 13018   006782  EFC5  F033         	goto	u4810
 13019   006786                     u4811:
 13020   006786  EFCD  F033         	goto	l4707
 13021   00678A                     u4810:
 13022   00678A  BE04               	btfsc	(___xxtofl@val+3)^0,7,c
 13023   00678C  EFCC  F033         	goto	u4820
 13024   006790  EFCA  F033         	goto	u4821
 13025   006794                     u4821:
 13026   006794  EFCD  F033         	goto	l4707
 13027   006798                     u4820:
 13028   006798  8E0E               	bsf	(___xxtofl@arg+3)^0,7,c
 13029   00679A                     l4707:
 13030   00679A  C00B  F001         	movff	___xxtofl@arg,?___xxtofl
 13031   00679E  C00C  F002         	movff	___xxtofl@arg+1,?___xxtofl+1
 13032   0067A2  C00D  F003         	movff	___xxtofl@arg+2,?___xxtofl+2
 13033   0067A6  C00E  F004         	movff	___xxtofl@arg+3,?___xxtofl+3
 13034   0067AA                     l885:
 13035   0067AA  0012               	return		;funcret
 13036   0067AC                     __end_of___xxtofl:
 13037                           	callstack 0
 13038                           
 13039 ;; *************** function _LCD_String_xy *****************
 13040 ;; Defined at:
 13041 ;;		line 54 in file "./functions.h"
 13042 ;; Parameters:    Size  Location     Type
 13043 ;;  row             1    wreg     unsigned char 
 13044 ;;  pos             1    9[COMRAM] unsigned char 
 13045 ;;  msg             2   10[COMRAM] PTR const unsigned char 
 13046 ;;		 -> STR_144(13), STR_142(4), STR_141(13), STR_140(13), 
 13047 ;;		 -> STR_139(10), STR_138(13), STR_136(13), STR_134(5), 
 13048 ;;		 -> STR_133(13), STR_132(17), STR_131(16), STR_130(17), 
 13049 ;;		 -> STR_129(13), STR_128(10), STR_127(13), STR_125(13), 
 13050 ;;		 -> STR_123(5), STR_122(13), STR_121(17), STR_120(16), 
 13051 ;;		 -> STR_119(17), STR_118(13), STR_117(10), STR_116(13), 
 13052 ;;		 -> STR_114(13), STR_112(5), STR_111(13), STR_109(13), 
 13053 ;;		 -> STR_107(4), STR_106(13), STR_105(13), STR_104(10), 
 13054 ;;		 -> STR_103(13), STR_101(13), STR_99(5), STR_98(13), 
 13055 ;;		 -> STR_97(17), STR_96(16), STR_95(17), STR_94(13), 
 13056 ;;		 -> STR_93(10), STR_92(13), STR_90(13), STR_88(5), 
 13057 ;;		 -> STR_87(13), STR_86(17), STR_85(16), STR_84(17), 
 13058 ;;		 -> STR_83(13), STR_82(10), STR_81(13), STR_79(13), 
 13059 ;;		 -> STR_77(5), STR_76(13), STR_74(13), STR_72(4), 
 13060 ;;		 -> STR_71(13), STR_70(13), STR_69(10), STR_68(13), 
 13061 ;;		 -> STR_66(13), STR_64(5), STR_63(13), STR_62(17), 
 13062 ;;		 -> STR_61(16), STR_60(17), STR_59(13), STR_58(10), 
 13063 ;;		 -> STR_57(13), STR_55(13), STR_53(5), STR_52(13), 
 13064 ;;		 -> STR_51(17), STR_50(16), STR_49(17), STR_48(13), 
 13065 ;;		 -> STR_47(10), STR_46(13), STR_44(13), STR_42(5), 
 13066 ;;		 -> STR_41(13), STR_39(13), STR_37(4), STR_36(13), 
 13067 ;;		 -> STR_35(13), STR_34(10), STR_33(13), STR_31(13), 
 13068 ;;		 -> STR_29(5), STR_28(13), STR_27(17), STR_26(16), 
 13069 ;;		 -> STR_25(17), STR_24(13), STR_23(10), STR_22(13), 
 13070 ;;		 -> STR_20(13), STR_18(5), STR_17(13), STR_16(17), 
 13071 ;;		 -> STR_15(16), STR_14(17), STR_13(13), STR_12(10), 
 13072 ;;		 -> STR_11(13), STR_9(13), STR_7(5), STR_6(13), 
 13073 ;;		 -> STR_5(15), STR_4(15), STR_3(15), STR_2(18), 
 13074 ;;		 -> data(10), 
 13075 ;; Auto vars:     Size  Location     Type
 13076 ;;  row             1   12[COMRAM] unsigned char 
 13077 ;;  location        1   13[COMRAM] unsigned char 
 13078 ;; Return value:  Size  Location     Type
 13079 ;;                  1    wreg      void 
 13080 ;; Registers used:
 13081 ;;		wreg, fsr1l, fsr1h, status,2, status,0, tblptrl, tblptrh, tblptru, cstack
 13082 ;; Tracked objects:
 13083 ;;		On entry : 0/0
 13084 ;;		On exit  : 0/0
 13085 ;;		Unchanged: 0/0
 13086 ;; Data sizes:     COMRAM   BANK0   BANK1   BANK2   BANK3   BANK4   BANK5   BANK6   BANK7   BANK8   BANK9  BANK10  BANK1
      +1  BANK12  BANK13  BANK14  BANK15  BANK16  BANK17  BANK18  BANK19  BANK20  BANK21  BANK22  BANK23  BANK24  BANK25  BANK2
      +6  BANK27  BANK28  BANK29  BANK30  BANK31
 13087 ;;      Params:         3       0       0       0       0       0       0       0       0       0       0       0       
      +0       0       0       0       0       0       0       0       0       0       0       0       0       0       0       
      +0       0       0       0       0       0
 13088 ;;      Locals:         2       0       0       0       0       0       0       0       0       0       0       0       
      +0       0       0       0       0       0       0       0       0       0       0       0       0       0       0       
      +0       0       0       0       0       0
 13089 ;;      Temps:          0       0       0       0       0       0       0       0       0       0       0       0       
      +0       0       0       0       0       0       0       0       0       0       0       0       0       0       0       
      +0       0       0       0       0       0
 13090 ;;      Totals:         5       0       0       0       0       0       0       0       0       0       0       0       
      +0       0       0       0       0       0       0       0       0       0       0       0       0       0       0       
      +0       0       0       0       0       0
 13091 ;;Total ram usage:        5 bytes
 13092 ;; Hardware stack levels used: 1
 13093 ;; Hardware stack levels required when called: 3
 13094 ;; This function calls:
 13095 ;;		_LCD_Command
 13096 ;;		_LCD_String
 13097 ;; This function is called by:
 13098 ;;		_main
 13099 ;; This function uses a non-reentrant model
 13100 ;;
 13101                           
 13102                           	psect	text31
 13103   0073F4                     __ptext31:
 13104                           	callstack 0
 13105   0073F4                     _LCD_String_xy:
 13106                           	callstack 27
 13107                           
 13108                           ;incstack = 0
 13109                           ;LCD_String_xy@row stored from wreg
 13110   0073F4  6E0D               	movwf	LCD_String_xy@row^0,c
 13111   0073F6                     
 13112                           ;./functions.h: 57:     if(row<=1)
 13113   0073F6  0E02               	movlw	2
 13114   0073F8  600D               	cpfslt	LCD_String_xy@row^0,c
 13115   0073FA  EF01  F03A         	goto	u4691
 13116   0073FE  EF03  F03A         	goto	u4690
 13117   007402                     u4691:
 13118   007402  EF0C  F03A         	goto	l4631
 13119   007406                     u4690:
 13120   007406                     
 13121                           ;./functions.h: 58:     {;./functions.h: 59:         location=(0x80) | ((pos) & 0x0f);
 13122   007406  500A               	movf	LCD_String_xy@pos^0,w,c
 13123   007408  0B0F               	andlw	15
 13124   00740A  0980               	iorlw	128
 13125   00740C  6E0E               	movwf	LCD_String_xy@location^0,c
 13126   00740E                     
 13127                           ;./functions.h: 60:         LCD_Command(location);
 13128   00740E  500E               	movf	LCD_String_xy@location^0,w,c
 13129   007410  ECBE  F03A         	call	_LCD_Command
 13130                           
 13131                           ;./functions.h: 61:     }
 13132   007414  EF13  F03A         	goto	l4635
 13133   007418                     l4631:
 13134                           
 13135                           ;./functions.h: 63:     {;./functions.h: 64:         location=(0xC0) | ((pos) & 0x0f);
 13136   007418  500A               	movf	LCD_String_xy@pos^0,w,c
 13137   00741A  0B0F               	andlw	15
 13138   00741C  09C0               	iorlw	192
 13139   00741E  6E0E               	movwf	LCD_String_xy@location^0,c
 13140   007420                     
 13141                           ;./functions.h: 65:         LCD_Command(location);
 13142   007420  500E               	movf	LCD_String_xy@location^0,w,c
 13143   007422  ECBE  F03A         	call	_LCD_Command
 13144   007426                     l4635:
 13145                           
 13146                           ;./functions.h: 67:     LCD_String(msg);
 13147   007426  C00B  F008         	movff	LCD_String_xy@msg,LCD_String@msg
 13148   00742A  C00C  F009         	movff	LCD_String_xy@msg+1,LCD_String@msg+1
 13149   00742E  EC1F  F038         	call	_LCD_String	;wreg free
 13150   007432  0012               	return		;funcret
 13151   007434                     __end_of_LCD_String_xy:
 13152                           	callstack 0
 13153                           
 13154 ;; *************** function _LCD_String *****************
 13155 ;; Defined at:
 13156 ;;		line 45 in file "./functions.h"
 13157 ;; Parameters:    Size  Location     Type
 13158 ;;  msg             2    7[COMRAM] PTR const unsigned char 
 13159 ;;		 -> STR_144(13), STR_142(4), STR_141(13), STR_140(13), 
 13160 ;;		 -> STR_139(10), STR_138(13), STR_136(13), STR_134(5), 
 13161 ;;		 -> STR_133(13), STR_132(17), STR_131(16), STR_130(17), 
 13162 ;;		 -> STR_129(13), STR_128(10), STR_127(13), STR_125(13), 
 13163 ;;		 -> STR_123(5), STR_122(13), STR_121(17), STR_120(16), 
 13164 ;;		 -> STR_119(17), STR_118(13), STR_117(10), STR_116(13), 
 13165 ;;		 -> STR_114(13), STR_112(5), STR_111(13), STR_109(13), 
 13166 ;;		 -> STR_107(4), STR_106(13), STR_105(13), STR_104(10), 
 13167 ;;		 -> STR_103(13), STR_101(13), STR_99(5), STR_98(13), 
 13168 ;;		 -> STR_97(17), STR_96(16), STR_95(17), STR_94(13), 
 13169 ;;		 -> STR_93(10), STR_92(13), STR_90(13), STR_88(5), 
 13170 ;;		 -> STR_87(13), STR_86(17), STR_85(16), STR_84(17), 
 13171 ;;		 -> STR_83(13), STR_82(10), STR_81(13), STR_79(13), 
 13172 ;;		 -> STR_77(5), STR_76(13), STR_74(13), STR_72(4), 
 13173 ;;		 -> STR_71(13), STR_70(13), STR_69(10), STR_68(13), 
 13174 ;;		 -> STR_66(13), STR_64(5), STR_63(13), STR_62(17), 
 13175 ;;		 -> STR_61(16), STR_60(17), STR_59(13), STR_58(10), 
 13176 ;;		 -> STR_57(13), STR_55(13), STR_53(5), STR_52(13), 
 13177 ;;		 -> STR_51(17), STR_50(16), STR_49(17), STR_48(13), 
 13178 ;;		 -> STR_47(10), STR_46(13), STR_44(13), STR_42(5), 
 13179 ;;		 -> STR_41(13), STR_39(13), STR_37(4), STR_36(13), 
 13180 ;;		 -> STR_35(13), STR_34(10), STR_33(13), STR_31(13), 
 13181 ;;		 -> STR_29(5), STR_28(13), STR_27(17), STR_26(16), 
 13182 ;;		 -> STR_25(17), STR_24(13), STR_23(10), STR_22(13), 
 13183 ;;		 -> STR_20(13), STR_18(5), STR_17(13), STR_16(17), 
 13184 ;;		 -> STR_15(16), STR_14(17), STR_13(13), STR_12(10), 
 13185 ;;		 -> STR_11(13), STR_9(13), STR_7(5), STR_6(13), 
 13186 ;;		 -> STR_5(15), STR_4(15), STR_3(15), STR_2(18), 
 13187 ;;		 -> data(10), 
 13188 ;; Auto vars:     Size  Location     Type
 13189 ;;		None
 13190 ;; Return value:  Size  Location     Type
 13191 ;;                  1    wreg      void 
 13192 ;; Registers used:
 13193 ;;		wreg, fsr1l, fsr1h, status,2, status,0, tblptrl, tblptrh, tblptru, cstack
 13194 ;; Tracked objects:
 13195 ;;		On entry : 0/0
 13196 ;;		On exit  : 0/0
 13197 ;;		Unchanged: 0/0
 13198 ;; Data sizes:     COMRAM   BANK0   BANK1   BANK2   BANK3   BANK4   BANK5   BANK6   BANK7   BANK8   BANK9  BANK10  BANK1
      +1  BANK12  BANK13  BANK14  BANK15  BANK16  BANK17  BANK18  BANK19  BANK20  BANK21  BANK22  BANK23  BANK24  BANK25  BANK2
      +6  BANK27  BANK28  BANK29  BANK30  BANK31
 13199 ;;      Params:         2       0       0       0       0       0       0       0       0       0       0       0       
      +0       0       0       0       0       0       0       0       0       0       0       0       0       0       0       
      +0       0       0       0       0       0
 13200 ;;      Locals:         0       0       0       0       0       0       0       0       0       0       0       0       
      +0       0       0       0       0       0       0       0       0       0       0       0       0       0       0       
      +0       0       0       0       0       0
 13201 ;;      Temps:          0       0       0       0       0       0       0       0       0       0       0       0       
      +0       0       0       0       0       0       0       0       0       0       0       0       0       0       0       
      +0       0       0       0       0       0
 13202 ;;      Totals:         2       0       0       0       0       0       0       0       0       0       0       0       
      +0       0       0       0       0       0       0       0       0       0       0       0       0       0       0       
      +0       0       0       0       0       0
 13203 ;;Total ram usage:        2 bytes
 13204 ;; Hardware stack levels used: 1
 13205 ;; Hardware stack levels required when called: 2
 13206 ;; This function calls:
 13207 ;;		_LCD_Char
 13208 ;; This function is called by:
 13209 ;;		_LCD_String_xy
 13210 ;; This function uses a non-reentrant model
 13211 ;;
 13212                           
 13213                           	psect	text32
 13214   00703E                     __ptext32:
 13215                           	callstack 0
 13216   00703E                     _LCD_String:
 13217                           	callstack 27
 13218   00703E                     
 13219                           ;./functions.h: 45: void LCD_String(const char *msg);./functions.h: 46: {;./functions.h:
      +                           47:     while((*msg)!=0)
 13220   00703E  EF3A  F038         	goto	l4551
 13221   007042                     l4547:
 13222                           
 13223                           ;./functions.h: 48:     {;./functions.h: 49:       LCD_Char(*msg);
 13224   007042  0060  F023  FFF6   	movff	LCD_String@msg,tblptrl
 13225   007048  0060  F027  FFF7   	movff	LCD_String@msg+1,tblptrh
 13226   00704E  0E00               	movlw	low (__smallconst shr (0+16))
 13227   007050  6EF8               	movwf	tblptru,c
 13228   007052  0E1F               	movlw	(high __ramtop+-1)
 13229   007054  64F7               	cpfsgt	tblptrh,c
 13230   007056  D003               	bra	u4637
 13231   007058  0008               	tblrd		*
 13232   00705A  50F5               	movf	tablat,w,c
 13233   00705C  D007               	bra	u4630
 13234   00705E                     u4637:
 13235   00705E  006F FFDB FFE1     	movff	tblptrl,fsr1l
 13236   007064  006F FFDF FFE2     	movff	tblptrh,fsr1h
 13237   00706A  50E7               	movf	indf1,w,c
 13238   00706C                     u4630:
 13239   00706C  ECAF  F03A         	call	_LCD_Char
 13240   007070                     
 13241                           ;./functions.h: 50:       msg++;
 13242   007070  4A08               	infsnz	LCD_String@msg^0,f,c
 13243   007072  2A09               	incf	(LCD_String@msg+1)^0,f,c
 13244   007074                     l4551:
 13245                           
 13246                           ;./functions.h: 47:     while((*msg)!=0)
 13247   007074  0060  F023  FFF6   	movff	LCD_String@msg,tblptrl
 13248   00707A  0060  F027  FFF7   	movff	LCD_String@msg+1,tblptrh
 13249   007080  0E00               	movlw	low (__smallconst shr (0+16))
 13250   007082  6EF8               	movwf	tblptru,c
 13251   007084  0E1F               	movlw	(high __ramtop+-1)
 13252   007086  64F7               	cpfsgt	tblptrh,c
 13253   007088  D003               	bra	u4647
 13254   00708A  0008               	tblrd		*
 13255   00708C  50F5               	movf	tablat,w,c
 13256   00708E  D007               	bra	u4640
 13257   007090                     u4647:
 13258   007090  006F FFDB FFE1     	movff	tblptrl,fsr1l
 13259   007096  006F FFDF FFE2     	movff	tblptrh,fsr1h
 13260   00709C  50E7               	movf	indf1,w,c
 13261   00709E                     u4640:
 13262   00709E  0900               	iorlw	0
 13263   0070A0  A4D8               	btfss	status,2,c
 13264   0070A2  EF55  F038         	goto	u4651
 13265   0070A6  EF57  F038         	goto	u4650
 13266   0070AA                     u4651:
 13267   0070AA  EF21  F038         	goto	l4547
 13268   0070AE                     u4650:
 13269   0070AE  0012               	return		;funcret
 13270   0070B0                     __end_of_LCD_String:
 13271                           	callstack 0
 13272                           
 13273 ;; *************** function _LCD_Char *****************
 13274 ;; Defined at:
 13275 ;;		line 34 in file "./functions.h"
 13276 ;; Parameters:    Size  Location     Type
 13277 ;;  dat             1    wreg     unsigned char 
 13278 ;; Auto vars:     Size  Location     Type
 13279 ;;  dat             1    6[COMRAM] unsigned char 
 13280 ;; Return value:  Size  Location     Type
 13281 ;;                  1    wreg      void 
 13282 ;; Registers used:
 13283 ;;		wreg, status,2, status,0, cstack
 13284 ;; Tracked objects:
 13285 ;;		On entry : 0/0
 13286 ;;		On exit  : 0/0
 13287 ;;		Unchanged: 0/0
 13288 ;; Data sizes:     COMRAM   BANK0   BANK1   BANK2   BANK3   BANK4   BANK5   BANK6   BANK7   BANK8   BANK9  BANK10  BANK1
      +1  BANK12  BANK13  BANK14  BANK15  BANK16  BANK17  BANK18  BANK19  BANK20  BANK21  BANK22  BANK23  BANK24  BANK25  BANK2
      +6  BANK27  BANK28  BANK29  BANK30  BANK31
 13289 ;;      Params:         0       0       0       0       0       0       0       0       0       0       0       0       
      +0       0       0       0       0       0       0       0       0       0       0       0       0       0       0       
      +0       0       0       0       0       0
 13290 ;;      Locals:         1       0       0       0       0       0       0       0       0       0       0       0       
      +0       0       0       0       0       0       0       0       0       0       0       0       0       0       0       
      +0       0       0       0       0       0
 13291 ;;      Temps:          0       0       0       0       0       0       0       0       0       0       0       0       
      +0       0       0       0       0       0       0       0       0       0       0       0       0       0       0       
      +0       0       0       0       0       0
 13292 ;;      Totals:         1       0       0       0       0       0       0       0       0       0       0       0       
      +0       0       0       0       0       0       0       0       0       0       0       0       0       0       0       
      +0       0       0       0       0       0
 13293 ;;Total ram usage:        1 bytes
 13294 ;; Hardware stack levels used: 1
 13295 ;; Hardware stack levels required when called: 1
 13296 ;; This function calls:
 13297 ;;		_MSdelay
 13298 ;; This function is called by:
 13299 ;;		_LCD_String
 13300 ;; This function uses a non-reentrant model
 13301 ;;
 13302                           
 13303                           	psect	text33
 13304   00755E                     __ptext33:
 13305                           	callstack 0
 13306   00755E                     _LCD_Char:
 13307                           	callstack 27
 13308                           
 13309                           ;incstack = 0
 13310                           ;LCD_Char@dat stored from wreg
 13311   00755E  6E07               	movwf	LCD_Char@dat^0,c
 13312   007560                     
 13313                           ;./functions.h: 34: void LCD_Char(char dat);./functions.h: 35: {;./functions.h: 36:     
      +                          LATB= dat;
 13314   007560  0060  F01F  FFBB   	movff	LCD_Char@dat,16315	;volatile
 13315   007566                     
 13316                           ;./functions.h: 37:     LATDbits.LATD4 = 1;
 13317   007566  88BD               	bsf	189,4,c	;volatile
 13318   007568                     
 13319                           ;./functions.h: 38:     LATDbits.LATD5=1;
 13320   007568  8ABD               	bsf	189,5,c	;volatile
 13321   00756A                     
 13322                           ;./functions.h: 39:     __nop();
 13323   00756A  0000               	nop	
 13324   00756C                     
 13325                           ;./functions.h: 40:     LATDbits.LATD5=0;
 13326   00756C  9ABD               	bcf	189,5,c	;volatile
 13327   00756E                     
 13328                           ;./functions.h: 41:     MSdelay(1);
 13329   00756E  0E00               	movlw	0
 13330   007570  6E02               	movwf	(MSdelay@val+1)^0,c
 13331   007572  0E01               	movlw	1
 13332   007574  6E01               	movwf	MSdelay@val^0,c
 13333   007576  EC4D  F039         	call	_MSdelay	;wreg free
 13334   00757A  0012               	return		;funcret
 13335   00757C                     __end_of_LCD_Char:
 13336                           	callstack 0
 13337                           
 13338 ;; *************** function _LCD_Init *****************
 13339 ;; Defined at:
 13340 ;;		line 56 in file "./init.h"
 13341 ;; Parameters:    Size  Location     Type
 13342 ;;		None
 13343 ;; Auto vars:     Size  Location     Type
 13344 ;;		None
 13345 ;; Return value:  Size  Location     Type
 13346 ;;                  1    wreg      void 
 13347 ;; Registers used:
 13348 ;;		wreg, status,2, status,0, cstack
 13349 ;; Tracked objects:
 13350 ;;		On entry : 0/0
 13351 ;;		On exit  : 0/0
 13352 ;;		Unchanged: 0/0
 13353 ;; Data sizes:     COMRAM   BANK0   BANK1   BANK2   BANK3   BANK4   BANK5   BANK6   BANK7   BANK8   BANK9  BANK10  BANK1
      +1  BANK12  BANK13  BANK14  BANK15  BANK16  BANK17  BANK18  BANK19  BANK20  BANK21  BANK22  BANK23  BANK24  BANK25  BANK2
      +6  BANK27  BANK28  BANK29  BANK30  BANK31
 13354 ;;      Params:         0       0       0       0       0       0       0       0       0       0       0       0       
      +0       0       0       0       0       0       0       0       0       0       0       0       0       0       0       
      +0       0       0       0       0       0
 13355 ;;      Locals:         0       0       0       0       0       0       0       0       0       0       0       0       
      +0       0       0       0       0       0       0       0       0       0       0       0       0       0       0       
      +0       0       0       0       0       0
 13356 ;;      Temps:          0       0       0       0       0       0       0       0       0       0       0       0       
      +0       0       0       0       0       0       0       0       0       0       0       0       0       0       0       
      +0       0       0       0       0       0
 13357 ;;      Totals:         0       0       0       0       0       0       0       0       0       0       0       0       
      +0       0       0       0       0       0       0       0       0       0       0       0       0       0       0       
      +0       0       0       0       0       0
 13358 ;;Total ram usage:        0 bytes
 13359 ;; Hardware stack levels used: 1
 13360 ;; Hardware stack levels required when called: 2
 13361 ;; This function calls:
 13362 ;;		_LCD_Command
 13363 ;;		_MSdelay
 13364 ;; This function is called by:
 13365 ;;		_main
 13366 ;; This function uses a non-reentrant model
 13367 ;;
 13368                           
 13369                           	psect	text34
 13370   0074A2                     __ptext34:
 13371                           	callstack 0
 13372   0074A2                     _LCD_Init:
 13373                           	callstack 28
 13374   0074A2                     
 13375                           ;./init.h: 57:     MSdelay(15);
 13376   0074A2  0E00               	movlw	0
 13377   0074A4  6E02               	movwf	(MSdelay@val+1)^0,c
 13378   0074A6  0E0F               	movlw	15
 13379   0074A8  6E01               	movwf	MSdelay@val^0,c
 13380   0074AA  EC4D  F039         	call	_MSdelay	;wreg free
 13381   0074AE                     
 13382                           ;./init.h: 58:     TRISB = 0x00;
 13383   0074AE  6AC3               	clrf	195,c	;volatile
 13384   0074B0                     
 13385                           ;./init.h: 59:     TRISD = 0xC0;
 13386   0074B0  0EC0               	movlw	192
 13387   0074B2  6EC5               	movwf	197,c	;volatile
 13388   0074B4                     
 13389                           ;./init.h: 60:     TRISE = 0xFF;
 13390   0074B4  68C6               	setf	198,c	;volatile
 13391   0074B6                     
 13392                           ;./init.h: 61:     ANSELD = 0x00;
 13393   0074B6  013A               	movlb	58	; () banked
 13394   0074B8  6B70               	clrf	112,b	;volatile
 13395   0074BA                     
 13396                           ; BSR set to: 58
 13397                           ;./init.h: 62:     ANSELB = 0x00;
 13398   0074BA  6B50               	clrf	80,b	;volatile
 13399   0074BC                     
 13400                           ; BSR set to: 58
 13401                           ;./init.h: 63:     ANSELE = 0x00;
 13402   0074BC  6B80               	clrf	128,b	;volatile
 13403   0074BE                     
 13404                           ; BSR set to: 58
 13405                           ;./init.h: 64:     LCD_Command(0x01);
 13406   0074BE  0E01               	movlw	1
 13407   0074C0  ECBE  F03A         	call	_LCD_Command
 13408   0074C4                     
 13409                           ;./init.h: 65:     LCD_Command(0x38);
 13410   0074C4  0E38               	movlw	56
 13411   0074C6  ECBE  F03A         	call	_LCD_Command
 13412   0074CA                     
 13413                           ;./init.h: 66:     LCD_Command(0x0c);
 13414   0074CA  0E0C               	movlw	12
 13415   0074CC  ECBE  F03A         	call	_LCD_Command
 13416   0074D0                     
 13417                           ;./init.h: 67:     LCD_Command(0x06);
 13418   0074D0  0E06               	movlw	6
 13419   0074D2  ECBE  F03A         	call	_LCD_Command
 13420   0074D6  0012               	return		;funcret
 13421   0074D8                     __end_of_LCD_Init:
 13422                           	callstack 0
 13423                           
 13424 ;; *************** function _LCD_Clear *****************
 13425 ;; Defined at:
 13426 ;;		line 19 in file "./functions.h"
 13427 ;; Parameters:    Size  Location     Type
 13428 ;;		None
 13429 ;; Auto vars:     Size  Location     Type
 13430 ;;		None
 13431 ;; Return value:  Size  Location     Type
 13432 ;;                  1    wreg      void 
 13433 ;; Registers used:
 13434 ;;		wreg, status,2, status,0, cstack
 13435 ;; Tracked objects:
 13436 ;;		On entry : 0/0
 13437 ;;		On exit  : 0/0
 13438 ;;		Unchanged: 0/0
 13439 ;; Data sizes:     COMRAM   BANK0   BANK1   BANK2   BANK3   BANK4   BANK5   BANK6   BANK7   BANK8   BANK9  BANK10  BANK1
      +1  BANK12  BANK13  BANK14  BANK15  BANK16  BANK17  BANK18  BANK19  BANK20  BANK21  BANK22  BANK23  BANK24  BANK25  BANK2
      +6  BANK27  BANK28  BANK29  BANK30  BANK31
 13440 ;;      Params:         0       0       0       0       0       0       0       0       0       0       0       0       
      +0       0       0       0       0       0       0       0       0       0       0       0       0       0       0       
      +0       0       0       0       0       0
 13441 ;;      Locals:         0       0       0       0       0       0       0       0       0       0       0       0       
      +0       0       0       0       0       0       0       0       0       0       0       0       0       0       0       
      +0       0       0       0       0       0
 13442 ;;      Temps:          0       0       0       0       0       0       0       0       0       0       0       0       
      +0       0       0       0       0       0       0       0       0       0       0       0       0       0       0       
      +0       0       0       0       0       0
 13443 ;;      Totals:         0       0       0       0       0       0       0       0       0       0       0       0       
      +0       0       0       0       0       0       0       0       0       0       0       0       0       0       0       
      +0       0       0       0       0       0
 13444 ;;Total ram usage:        0 bytes
 13445 ;; Hardware stack levels used: 1
 13446 ;; Hardware stack levels required when called: 2
 13447 ;; This function calls:
 13448 ;;		_LCD_Command
 13449 ;; This function is called by:
 13450 ;;		_main
 13451 ;; This function uses a non-reentrant model
 13452 ;;
 13453                           
 13454                           	psect	text35
 13455   00759A                     __ptext35:
 13456                           	callstack 0
 13457   00759A                     _LCD_Clear:
 13458                           	callstack 28
 13459   00759A                     
 13460                           ;./functions.h: 21:         LCD_Command(0x01);
 13461   00759A  0E01               	movlw	1
 13462   00759C  ECBE  F03A         	call	_LCD_Command
 13463   0075A0  0012               	return		;funcret
 13464   0075A2                     __end_of_LCD_Clear:
 13465                           	callstack 0
 13466                           
 13467 ;; *************** function _LCD_Command *****************
 13468 ;; Defined at:
 13469 ;;		line 24 in file "./functions.h"
 13470 ;; Parameters:    Size  Location     Type
 13471 ;;  cmd             1    wreg     unsigned char 
 13472 ;; Auto vars:     Size  Location     Type
 13473 ;;  cmd             1    6[COMRAM] unsigned char 
 13474 ;; Return value:  Size  Location     Type
 13475 ;;                  1    wreg      void 
 13476 ;; Registers used:
 13477 ;;		wreg, status,2, status,0, cstack
 13478 ;; Tracked objects:
 13479 ;;		On entry : 0/0
 13480 ;;		On exit  : 0/0
 13481 ;;		Unchanged: 0/0
 13482 ;; Data sizes:     COMRAM   BANK0   BANK1   BANK2   BANK3   BANK4   BANK5   BANK6   BANK7   BANK8   BANK9  BANK10  BANK1
      +1  BANK12  BANK13  BANK14  BANK15  BANK16  BANK17  BANK18  BANK19  BANK20  BANK21  BANK22  BANK23  BANK24  BANK25  BANK2
      +6  BANK27  BANK28  BANK29  BANK30  BANK31
 13483 ;;      Params:         0       0       0       0       0       0       0       0       0       0       0       0       
      +0       0       0       0       0       0       0       0       0       0       0       0       0       0       0       
      +0       0       0       0       0       0
 13484 ;;      Locals:         1       0       0       0       0       0       0       0       0       0       0       0       
      +0       0       0       0       0       0       0       0       0       0       0       0       0       0       0       
      +0       0       0       0       0       0
 13485 ;;      Temps:          0       0       0       0       0       0       0       0       0       0       0       0       
      +0       0       0       0       0       0       0       0       0       0       0       0       0       0       0       
      +0       0       0       0       0       0
 13486 ;;      Totals:         1       0       0       0       0       0       0       0       0       0       0       0       
      +0       0       0       0       0       0       0       0       0       0       0       0       0       0       0       
      +0       0       0       0       0       0
 13487 ;;Total ram usage:        1 bytes
 13488 ;; Hardware stack levels used: 1
 13489 ;; Hardware stack levels required when called: 1
 13490 ;; This function calls:
 13491 ;;		_MSdelay
 13492 ;; This function is called by:
 13493 ;;		_LCD_Init
 13494 ;;		_LCD_Clear
 13495 ;;		_LCD_String_xy
 13496 ;; This function uses a non-reentrant model
 13497 ;;
 13498                           
 13499                           	psect	text36
 13500   00757C                     __ptext36:
 13501                           	callstack 0
 13502   00757C                     _LCD_Command:
 13503                           	callstack 28
 13504                           
 13505                           ;incstack = 0
 13506                           ;LCD_Command@cmd stored from wreg
 13507   00757C  6E07               	movwf	LCD_Command@cmd^0,c
 13508   00757E                     
 13509                           ;./functions.h: 24: void LCD_Command(char cmd );./functions.h: 25: {;./functions.h: 26: 
      +                              LATB= cmd;
 13510   00757E  0060  F01F  FFBB   	movff	LCD_Command@cmd,16315	;volatile
 13511   007584                     
 13512                           ;./functions.h: 27:     LATDbits.LATD4 = 0;
 13513   007584  98BD               	bcf	189,4,c	;volatile
 13514   007586                     
 13515                           ;./functions.h: 28:     LATDbits.LATD5 = 1;
 13516   007586  8ABD               	bsf	189,5,c	;volatile
 13517   007588                     
 13518                           ;./functions.h: 29:     __nop();
 13519   007588  0000               	nop	
 13520   00758A                     
 13521                           ;./functions.h: 30:     LATDbits.LATD5 = 0;
 13522   00758A  9ABD               	bcf	189,5,c	;volatile
 13523   00758C                     
 13524                           ;./functions.h: 31:     MSdelay(3);
 13525   00758C  0E00               	movlw	0
 13526   00758E  6E02               	movwf	(MSdelay@val+1)^0,c
 13527   007590  0E03               	movlw	3
 13528   007592  6E01               	movwf	MSdelay@val^0,c
 13529   007594  EC4D  F039         	call	_MSdelay	;wreg free
 13530   007598  0012               	return		;funcret
 13531   00759A                     __end_of_LCD_Command:
 13532                           	callstack 0
 13533                           
 13534 ;; *************** function _MSdelay *****************
 13535 ;; Defined at:
 13536 ;;		line 71 in file "./functions.h"
 13537 ;; Parameters:    Size  Location     Type
 13538 ;;  val             2    0[COMRAM] unsigned int 
 13539 ;; Auto vars:     Size  Location     Type
 13540 ;;  j               2    4[COMRAM] unsigned int 
 13541 ;;  i               2    2[COMRAM] unsigned int 
 13542 ;; Return value:  Size  Location     Type
 13543 ;;                  1    wreg      void 
 13544 ;; Registers used:
 13545 ;;		wreg, status,2, status,0
 13546 ;; Tracked objects:
 13547 ;;		On entry : 0/0
 13548 ;;		On exit  : 0/0
 13549 ;;		Unchanged: 0/0
 13550 ;; Data sizes:     COMRAM   BANK0   BANK1   BANK2   BANK3   BANK4   BANK5   BANK6   BANK7   BANK8   BANK9  BANK10  BANK1
      +1  BANK12  BANK13  BANK14  BANK15  BANK16  BANK17  BANK18  BANK19  BANK20  BANK21  BANK22  BANK23  BANK24  BANK25  BANK2
      +6  BANK27  BANK28  BANK29  BANK30  BANK31
 13551 ;;      Params:         2       0       0       0       0       0       0       0       0       0       0       0       
      +0       0       0       0       0       0       0       0       0       0       0       0       0       0       0       
      +0       0       0       0       0       0
 13552 ;;      Locals:         4       0       0       0       0       0       0       0       0       0       0       0       
      +0       0       0       0       0       0       0       0       0       0       0       0       0       0       0       
      +0       0       0       0       0       0
 13553 ;;      Temps:          0       0       0       0       0       0       0       0       0       0       0       0       
      +0       0       0       0       0       0       0       0       0       0       0       0       0       0       0       
      +0       0       0       0       0       0
 13554 ;;      Totals:         6       0       0       0       0       0       0       0       0       0       0       0       
      +0       0       0       0       0       0       0       0       0       0       0       0       0       0       0       
      +0       0       0       0       0       0
 13555 ;;Total ram usage:        6 bytes
 13556 ;; Hardware stack levels used: 1
 13557 ;; This function calls:
 13558 ;;		Nothing
 13559 ;; This function is called by:
 13560 ;;		_LCD_Init
 13561 ;;		_LCD_Command
 13562 ;;		_LCD_Char
 13563 ;;		_main
 13564 ;; This function uses a non-reentrant model
 13565 ;;
 13566                           
 13567                           	psect	text37
 13568   00729A                     __ptext37:
 13569                           	callstack 0
 13570   00729A                     _MSdelay:
 13571                           	callstack 30
 13572   00729A                     
 13573                           ;./functions.h: 71: void MSdelay(unsigned int val);./functions.h: 72: {;./functions.h: 7
      +                          3:      unsigned int i,j;;./functions.h: 74:         for(i=0;i<val;i++)
 13574   00729A  0E00               	movlw	0
 13575   00729C  6E04               	movwf	(MSdelay@i+1)^0,c
 13576   00729E  0E00               	movlw	0
 13577   0072A0  6E03               	movwf	MSdelay@i^0,c
 13578   0072A2  EF66  F039         	goto	l4165
 13579   0072A6                     l4153:
 13580                           
 13581                           ;./functions.h: 75:             for(j=0;j<165;j++);
 13582   0072A6  0E00               	movlw	0
 13583   0072A8  6E06               	movwf	(MSdelay@j+1)^0,c
 13584   0072AA  0E00               	movlw	0
 13585   0072AC  6E05               	movwf	MSdelay@j^0,c
 13586   0072AE                     l4159:
 13587   0072AE  4A05               	infsnz	MSdelay@j^0,f,c
 13588   0072B0  2A06               	incf	(MSdelay@j+1)^0,f,c
 13589   0072B2  5006               	movf	(MSdelay@j+1)^0,w,c
 13590   0072B4  E109               	bnz	u4120
 13591   0072B6  0EA5               	movlw	165
 13592   0072B8  5C05               	subwf	MSdelay@j^0,w,c
 13593   0072BA  A0D8               	btfss	status,0,c
 13594   0072BC  EF62  F039         	goto	u4121
 13595   0072C0  EF64  F039         	goto	u4120
 13596   0072C4                     u4121:
 13597   0072C4  EF57  F039         	goto	l4159
 13598   0072C8                     u4120:
 13599   0072C8  4A03               	infsnz	MSdelay@i^0,f,c
 13600   0072CA  2A04               	incf	(MSdelay@i+1)^0,f,c
 13601   0072CC                     l4165:
 13602   0072CC  5001               	movf	MSdelay@val^0,w,c
 13603   0072CE  5C03               	subwf	MSdelay@i^0,w,c
 13604   0072D0  5002               	movf	(MSdelay@val+1)^0,w,c
 13605   0072D2  5804               	subwfb	(MSdelay@i+1)^0,w,c
 13606   0072D4  A0D8               	btfss	status,0,c
 13607   0072D6  EF6F  F039         	goto	u4131
 13608   0072DA  EF71  F039         	goto	u4130
 13609   0072DE                     u4131:
 13610   0072DE  EF53  F039         	goto	l4153
 13611   0072E2                     u4130:
 13612   0072E2  0012               	return		;funcret
 13613   0072E4                     __end_of_MSdelay:
 13614                           	callstack 0
 13615                           
 13616 ;; *************** function _ADC_Init *****************
 13617 ;; Defined at:
 13618 ;;		line 33 in file "./init.h"
 13619 ;; Parameters:    Size  Location     Type
 13620 ;;		None
 13621 ;; Auto vars:     Size  Location     Type
 13622 ;;		None
 13623 ;; Return value:  Size  Location     Type
 13624 ;;                  1    wreg      void 
 13625 ;; Registers used:
 13626 ;;		wreg, status,2
 13627 ;; Tracked objects:
 13628 ;;		On entry : 0/0
 13629 ;;		On exit  : 0/0
 13630 ;;		Unchanged: 0/0
 13631 ;; Data sizes:     COMRAM   BANK0   BANK1   BANK2   BANK3   BANK4   BANK5   BANK6   BANK7   BANK8   BANK9  BANK10  BANK1
      +1  BANK12  BANK13  BANK14  BANK15  BANK16  BANK17  BANK18  BANK19  BANK20  BANK21  BANK22  BANK23  BANK24  BANK25  BANK2
      +6  BANK27  BANK28  BANK29  BANK30  BANK31
 13632 ;;      Params:         0       0       0       0       0       0       0       0       0       0       0       0       
      +0       0       0       0       0       0       0       0       0       0       0       0       0       0       0       
      +0       0       0       0       0       0
 13633 ;;      Locals:         0       0       0       0       0       0       0       0       0       0       0       0       
      +0       0       0       0       0       0       0       0       0       0       0       0       0       0       0       
      +0       0       0       0       0       0
 13634 ;;      Temps:          0       0       0       0       0       0       0       0       0       0       0       0       
      +0       0       0       0       0       0       0       0       0       0       0       0       0       0       0       
      +0       0       0       0       0       0
 13635 ;;      Totals:         0       0       0       0       0       0       0       0       0       0       0       0       
      +0       0       0       0       0       0       0       0       0       0       0       0       0       0       0       
      +0       0       0       0       0       0
 13636 ;;Total ram usage:        0 bytes
 13637 ;; Hardware stack levels used: 1
 13638 ;; This function calls:
 13639 ;;		Nothing
 13640 ;; This function is called by:
 13641 ;;		_main
 13642 ;; This function uses a non-reentrant model
 13643 ;;
 13644                           
 13645                           	psect	text38
 13646   007536                     __ptext38:
 13647                           	callstack 0
 13648   007536                     _ADC_Init:
 13649                           	callstack 30
 13650   007536                     
 13651                           ;./init.h: 36:     ADCON0bits.FM = 1;
 13652   007536  013E               	movlb	62	; () banked
 13653   007538  51F8               	movf	248,w,b	;volatile
 13654   00753A  0BF3               	andlw	-13
 13655   00753C  0904               	iorlw	4
 13656   00753E  6FF8               	movwf	248,b	;volatile
 13657   007540                     
 13658                           ; BSR set to: 62
 13659                           ;./init.h: 37:     ADCON0bits.CS = 1;
 13660   007540  89F8               	bsf	248,4,b	;volatile
 13661   007542                     
 13662                           ; BSR set to: 62
 13663                           ;./init.h: 39:     TRISAbits.TRISA0 = 1;
 13664   007542  80C2               	bsf	194,0,c	;volatile
 13665   007544                     
 13666                           ; BSR set to: 62
 13667                           ;./init.h: 40:     ANSELAbits.ANSELA0 = 1;
 13668   007544  013A               	movlb	58	; () banked
 13669   007546  8140               	bsf	64,0,b	;volatile
 13670   007548                     
 13671                           ; BSR set to: 58
 13672                           ;./init.h: 42:     ADPCH = 0x00;
 13673   007548  013E               	movlb	62	; () banked
 13674   00754A  6BF1               	clrf	241,b	;volatile
 13675   00754C                     
 13676                           ; BSR set to: 62
 13677                           ;./init.h: 43:     ADCLK = 0x00;
 13678   00754C  6BFF               	clrf	255,b	;volatile
 13679   00754E                     
 13680                           ; BSR set to: 62
 13681                           ;./init.h: 45:     ADRESH = 0x00;
 13682   00754E  6BF0               	clrf	240,b	;volatile
 13683   007550                     
 13684                           ; BSR set to: 62
 13685                           ;./init.h: 46:     ADRESL = 0x00;
 13686   007550  6BEF               	clrf	239,b	;volatile
 13687   007552                     
 13688                           ; BSR set to: 62
 13689                           ;./init.h: 48:     ADPREL = 0x00;
 13690   007552  6BF6               	clrf	246,b	;volatile
 13691   007554                     
 13692                           ; BSR set to: 62
 13693                           ;./init.h: 49:     ADPREH = 0x00;
 13694   007554  6BF7               	clrf	247,b	;volatile
 13695   007556                     
 13696                           ; BSR set to: 62
 13697                           ;./init.h: 51:     ADACQL = 0x00;
 13698   007556  6BF3               	clrf	243,b	;volatile
 13699   007558                     
 13700                           ; BSR set to: 62
 13701                           ;./init.h: 52:     ADACQH = 0x00;
 13702   007558  6BF4               	clrf	244,b	;volatile
 13703   00755A                     
 13704                           ; BSR set to: 62
 13705                           ;./init.h: 54:     ADCON0bits.ON = 1;
 13706   00755A  8FF8               	bsf	248,7,b	;volatile
 13707   00755C                     
 13708                           ; BSR set to: 62
 13709   00755C  0012               	return		;funcret
 13710   00755E                     __end_of_ADC_Init:
 13711                           	callstack 0
 13712                           
 13713                           	psect	rparam
 13714   000001                     ___rparam_used  equ	1
 13715   000000                     ___param_bank   equ	0
 13716   000000                     __Lparam        equ	__Lrparam
 13717   000000                     __Hparam        equ	__Hrparam
 13718                           
 13719                           	psect	config
 13720                           
 13721                           ;Config register CONFIG1L @ 0x300000
 13722                           ;	External Oscillator Selection
 13723                           ;	FEXTOSC = LP, LP (crystal oscillator) optimized for 32.768 kHz; PFM set to low power
 13724                           ;	Reset Oscillator Selection
 13725                           ;	RSTOSC = EXTOSC, EXTOSC operating per FEXTOSC bits (device manufacturing default)
 13726   300000                     	org	3145728
 13727   300000  F8                 	db	248
 13728                           
 13729                           ;Config register CONFIG1H @ 0x300001
 13730                           ;	Clock out Enable bit
 13731                           ;	CLKOUTEN = OFF, CLKOUT function is disabled
 13732                           ;	PRLOCKED One-Way Set Enable bit
 13733                           ;	PR1WAY = ON, PRLOCK bit can be cleared and set only once
 13734                           ;	Clock Switch Enable bit
 13735                           ;	CSWEN = ON, Writing to NOSC and NDIV is allowed
 13736                           ;	Fail-Safe Clock Monitor Enable bit
 13737                           ;	FCMEN = ON, Fail-Safe Clock Monitor enabled
 13738   300001                     	org	3145729
 13739   300001  FF                 	db	255
 13740                           
 13741                           ;Config register CONFIG2L @ 0x300002
 13742                           ;	MCLR Enable bit
 13743                           ;	MCLRE = EXTMCLR, If LVP = 0, MCLR pin is MCLR; If LVP = 1, RE3 pin function is MCLR
 13744                           ;	Power-up timer selection bits
 13745                           ;	PWRTS = PWRT_OFF, PWRT is disabled
 13746                           ;	Multi-vector enable bit
 13747                           ;	MVECEN = ON, Multi-vector enabled, Vector table used for interrupts
 13748                           ;	IVTLOCK bit One-way set enable bit
 13749                           ;	IVT1WAY = ON, IVTLOCK bit can be cleared and set only once
 13750                           ;	Low Power BOR Enable bit
 13751                           ;	LPBOREN = OFF, ULPBOR disabled
 13752                           ;	Brown-out Reset Enable bits
 13753                           ;	BOREN = SBORDIS, Brown-out Reset enabled , SBOREN bit is ignored
 13754   300002                     	org	3145730
 13755   300002  FF                 	db	255
 13756                           
 13757                           ;Config register CONFIG2H @ 0x300003
 13758                           ;	Brown-out Reset Voltage Selection bits
 13759                           ;	BORV = VBOR_2P45, Brown-out Reset Voltage (VBOR) set to 2.45V
 13760                           ;	ZCD Disable bit
 13761                           ;	ZCD = OFF, ZCD disabled. ZCD can be enabled by setting the ZCDSEN bit of ZCDCON
 13762                           ;	PPSLOCK bit One-Way Set Enable bit
 13763                           ;	PPS1WAY = ON, PPSLOCK bit can be cleared and set only once; PPS registers remain locke
      +                          d after one clear/set cycle
 13764                           ;	Stack Full/Underflow Reset Enable bit
 13765                           ;	STVREN = ON, Stack full/underflow will cause Reset
 13766                           ;	Debugger Enable bit
 13767                           ;	DEBUG = OFF, Background debugger disabled
 13768                           ;	Extended Instruction Set Enable bit
 13769                           ;	XINST = OFF, Extended Instruction Set and Indexed Addressing Mode disabled
 13770   300003                     	org	3145731
 13771   300003  FF                 	db	255
 13772                           
 13773                           ;Config register CONFIG3L @ 0x300004
 13774                           ;	WDT Period selection bits
 13775                           ;	WDTCPS = WDTCPS_31, Divider ratio 1:65536; software control of WDTPS
 13776                           ;	WDT operating mode
 13777                           ;	WDTE = OFF, WDT Disabled; SWDTEN is ignored
 13778   300004                     	org	3145732
 13779   300004  9F                 	db	159
 13780                           
 13781                           ;Config register CONFIG3H @ 0x300005
 13782                           ;	WDT Window Select bits
 13783                           ;	WDTCWS = WDTCWS_7, window always open (100%); software control; keyed access not requi
      +                          red
 13784                           ;	WDT input clock selector
 13785                           ;	WDTCCS = SC, Software Control
 13786   300005                     	org	3145733
 13787   300005  FF                 	db	255
 13788                           
 13789                           ;Config register CONFIG4L @ 0x300006
 13790                           ;	Boot Block Size selection bits
 13791                           ;	BBSIZE = BBSIZE_512, Boot Block size is 512 words
 13792                           ;	Boot Block enable bit
 13793                           ;	BBEN = OFF, Boot block disabled
 13794                           ;	Storage Area Flash enable bit
 13795                           ;	SAFEN = OFF, SAF disabled
 13796                           ;	Application Block write protection bit
 13797                           ;	WRTAPP = OFF, Application Block not write protected
 13798   300006                     	org	3145734
 13799   300006  FF                 	db	255
 13800                           
 13801                           ;Config register CONFIG4H @ 0x300007
 13802                           ;	Boot Block Write Protection bit
 13803                           ;	WRTB = OFF, Boot Block not write-protected
 13804                           ;	Configuration Register Write Protection bit
 13805                           ;	WRTC = OFF, Configuration registers not write-protected
 13806                           ;	Data EEPROM Write Protection bit
 13807                           ;	WRTD = OFF, Data EEPROM not write-protected
 13808                           ;	SAF Write protection bit
 13809                           ;	WRTSAF = OFF, SAF not Write Protected
 13810                           ;	Low Voltage Programming Enable bit
 13811                           ;	LVP = ON, Low voltage programming enabled. MCLR/VPP pin function is MCLR. MCLRE config
      +                          uration bit is ignored
 13812   300007                     	org	3145735
 13813   300007  FF                 	db	255
 13814                           
 13815                           ;Config register CONFIG5L @ 0x300008
 13816                           ;	PFM and Data EEPROM Code Protection bit
 13817                           ;	CP = OFF, PFM and Data EEPROM code protection disabled
 13818   300008                     	org	3145736
 13819   300008  FF                 	db	255
 13820                           
 13821                           ;Config register CONFIG5H @ 0x300009
 13822                           ;	unspecified, using default values
 13823   300009                     	org	3145737
 13824   300009  FF                 	db	255
 13825                           tosu	equ	0x3FFF
 13826                           tosh	equ	0x3FFE
 13827                           tosl	equ	0x3FFD
 13828                           stkptr	equ	0x3FFC
 13829                           pclatu	equ	0x3FFB
 13830                           pclath	equ	0x3FFA
 13831                           pcl	equ	0x3FF9
 13832                           tblptru	equ	0x3FF8
 13833                           tblptrh	equ	0x3FF7
 13834                           tblptrl	equ	0x3FF6
 13835                           tablat	equ	0x3FF5
 13836                           prodh	equ	0x3FF4
 13837                           prodl	equ	0x3FF3
 13838                           indf0	equ	0x3FEF
 13839                           postinc0	equ	0x3FEE
 13840                           postdec0	equ	0x3FED
 13841                           preinc0	equ	0x3FEC
 13842                           plusw0	equ	0x3FEB
 13843                           fsr0h	equ	0x3FEA
 13844                           fsr0l	equ	0x3FE9
 13845                           wreg	equ	0x3FE8
 13846                           indf1	equ	0x3FE7
 13847                           postinc1	equ	0x3FE6
 13848                           postdec1	equ	0x3FE5
 13849                           preinc1	equ	0x3FE4
 13850                           plusw1	equ	0x3FE3
 13851                           fsr1h	equ	0x3FE2
 13852                           fsr1l	equ	0x3FE1
 13853                           bsr	equ	0x3FE0
 13854                           indf2	equ	0x3FDF
 13855                           postinc2	equ	0x3FDE
 13856                           postdec2	equ	0x3FDD
 13857                           preinc2	equ	0x3FDC
 13858                           plusw2	equ	0x3FDB
 13859                           fsr2h	equ	0x3FDA
 13860                           fsr2l	equ	0x3FD9
 13861                           status	equ	0x3FD8

Data Sizes:
    Strings     190
    Constant    0
    Data        0
    BSS         127
    Persistent  0
    Stack       0

Auto Spaces:
    Space          Size  Autos    Used
    COMRAM           95     85      94
    BANK0           160     52      90
    BANK1           256      0      80
    BANK2           256      0       0
    BANK3           256      0       0
    BANK4           256      0       0
    BANK5           256      0       0
    BANK6           256      0       0
    BANK7           256      0       0
    BANK8           256      0       0
    BANK9           256      0       0
    BANK10          256      0       0
    BANK11          256      0       0
    BANK12          256      0       0
    BANK13          256      0       0
    BANK14          256      0       0
    BANK15          256      0       0
    BANK16          256      0       0
    BANK17          256      0       0
    BANK18          256      0       0
    BANK19          256      0       0
    BANK20          256      0       0
    BANK21          256      0       0
    BANK22          256      0       0
    BANK23          256      0       0
    BANK24          256      0       0
    BANK25          256      0       0
    BANK26          256      0       0
    BANK27          256      0       0
    BANK28          256      0       0
    BANK29          256      0       0
    BANK30          256      0       0
    BANK31          256      0       0

Pointer List with Targets:

    dtoa@fp	PTR struct _IO_FILE size(1) Largest target is 12
		 -> sprintf@f(COMRAM[11]), 

    efgtoa@fp	PTR struct _IO_FILE size(1) Largest target is 12
		 -> sprintf@f(COMRAM[11]), 

    f$.$buffer	PTR unsigned char  size(1) Largest target is 10
		 -> data(BANK0[10]), 

    f$.$source	PTR const unsigned char  size(2) Largest target is 0

    fputc@fp	PTR struct _IO_FILE size(1) Largest target is 12
		 -> sprintf@f(COMRAM[11]), 

    fputc@fp$.$buffer	PTR unsigned char  size(1) Largest target is 10
		 -> data(BANK0[10]), 

    fputc@fp$.$source	PTR const unsigned char  size(2) Largest target is 0

    fputs@fp	PTR struct _IO_FILE size(1) Largest target is 12
		 -> sprintf@f(COMRAM[11]), 

    fputs@s	PTR const unsigned char  size(2) Largest target is 80
		 -> dbuf(BANK1[80]), 

    LCD_String@msg	PTR const unsigned char  size(2) Largest target is 18
		 -> data(BANK0[10]), STR_101(CODE[13]), STR_103(CODE[13]), STR_104(CODE[10]), 
		 -> STR_105(CODE[13]), STR_106(CODE[13]), STR_107(CODE[4]), STR_109(CODE[13]), 
		 -> STR_11(CODE[13]), STR_111(CODE[13]), STR_112(CODE[5]), STR_114(CODE[13]), 
		 -> STR_116(CODE[13]), STR_117(CODE[10]), STR_118(CODE[13]), STR_119(CODE[17]), 
		 -> STR_12(CODE[10]), STR_120(CODE[16]), STR_121(CODE[17]), STR_122(CODE[13]), 
		 -> STR_123(CODE[5]), STR_125(CODE[13]), STR_127(CODE[13]), STR_128(CODE[10]), 
		 -> STR_129(CODE[13]), STR_13(CODE[13]), STR_130(CODE[17]), STR_131(CODE[16]), 
		 -> STR_132(CODE[17]), STR_133(CODE[13]), STR_134(CODE[5]), STR_136(CODE[13]), 
		 -> STR_138(CODE[13]), STR_139(CODE[10]), STR_14(CODE[17]), STR_140(CODE[13]), 
		 -> STR_141(CODE[13]), STR_142(CODE[4]), STR_144(CODE[13]), STR_15(CODE[16]), 
		 -> STR_16(CODE[17]), STR_17(CODE[13]), STR_18(CODE[5]), STR_2(CODE[18]), 
		 -> STR_20(CODE[13]), STR_22(CODE[13]), STR_23(CODE[10]), STR_24(CODE[13]), 
		 -> STR_25(CODE[17]), STR_26(CODE[16]), STR_27(CODE[17]), STR_28(CODE[13]), 
		 -> STR_29(CODE[5]), STR_3(CODE[15]), STR_31(CODE[13]), STR_33(CODE[13]), 
		 -> STR_34(CODE[10]), STR_35(CODE[13]), STR_36(CODE[13]), STR_37(CODE[4]), 
		 -> STR_39(CODE[13]), STR_4(CODE[15]), STR_41(CODE[13]), STR_42(CODE[5]), 
		 -> STR_44(CODE[13]), STR_46(CODE[13]), STR_47(CODE[10]), STR_48(CODE[13]), 
		 -> STR_49(CODE[17]), STR_5(CODE[15]), STR_50(CODE[16]), STR_51(CODE[17]), 
		 -> STR_52(CODE[13]), STR_53(CODE[5]), STR_55(CODE[13]), STR_57(CODE[13]), 
		 -> STR_58(CODE[10]), STR_59(CODE[13]), STR_6(CODE[13]), STR_60(CODE[17]), 
		 -> STR_61(CODE[16]), STR_62(CODE[17]), STR_63(CODE[13]), STR_64(CODE[5]), 
		 -> STR_66(CODE[13]), STR_68(CODE[13]), STR_69(CODE[10]), STR_7(CODE[5]), 
		 -> STR_70(CODE[13]), STR_71(CODE[13]), STR_72(CODE[4]), STR_74(CODE[13]), 
		 -> STR_76(CODE[13]), STR_77(CODE[5]), STR_79(CODE[13]), STR_81(CODE[13]), 
		 -> STR_82(CODE[10]), STR_83(CODE[13]), STR_84(CODE[17]), STR_85(CODE[16]), 
		 -> STR_86(CODE[17]), STR_87(CODE[13]), STR_88(CODE[5]), STR_9(CODE[13]), 
		 -> STR_90(CODE[13]), STR_92(CODE[13]), STR_93(CODE[10]), STR_94(CODE[13]), 
		 -> STR_95(CODE[17]), STR_96(CODE[16]), STR_97(CODE[17]), STR_98(CODE[13]), 
		 -> STR_99(CODE[5]), 

    LCD_String_xy@msg	PTR const unsigned char  size(2) Largest target is 18
		 -> data(BANK0[10]), STR_101(CODE[13]), STR_103(CODE[13]), STR_104(CODE[10]), 
		 -> STR_105(CODE[13]), STR_106(CODE[13]), STR_107(CODE[4]), STR_109(CODE[13]), 
		 -> STR_11(CODE[13]), STR_111(CODE[13]), STR_112(CODE[5]), STR_114(CODE[13]), 
		 -> STR_116(CODE[13]), STR_117(CODE[10]), STR_118(CODE[13]), STR_119(CODE[17]), 
		 -> STR_12(CODE[10]), STR_120(CODE[16]), STR_121(CODE[17]), STR_122(CODE[13]), 
		 -> STR_123(CODE[5]), STR_125(CODE[13]), STR_127(CODE[13]), STR_128(CODE[10]), 
		 -> STR_129(CODE[13]), STR_13(CODE[13]), STR_130(CODE[17]), STR_131(CODE[16]), 
		 -> STR_132(CODE[17]), STR_133(CODE[13]), STR_134(CODE[5]), STR_136(CODE[13]), 
		 -> STR_138(CODE[13]), STR_139(CODE[10]), STR_14(CODE[17]), STR_140(CODE[13]), 
		 -> STR_141(CODE[13]), STR_142(CODE[4]), STR_144(CODE[13]), STR_15(CODE[16]), 
		 -> STR_16(CODE[17]), STR_17(CODE[13]), STR_18(CODE[5]), STR_2(CODE[18]), 
		 -> STR_20(CODE[13]), STR_22(CODE[13]), STR_23(CODE[10]), STR_24(CODE[13]), 
		 -> STR_25(CODE[17]), STR_26(CODE[16]), STR_27(CODE[17]), STR_28(CODE[13]), 
		 -> STR_29(CODE[5]), STR_3(CODE[15]), STR_31(CODE[13]), STR_33(CODE[13]), 
		 -> STR_34(CODE[10]), STR_35(CODE[13]), STR_36(CODE[13]), STR_37(CODE[4]), 
		 -> STR_39(CODE[13]), STR_4(CODE[15]), STR_41(CODE[13]), STR_42(CODE[5]), 
		 -> STR_44(CODE[13]), STR_46(CODE[13]), STR_47(CODE[10]), STR_48(CODE[13]), 
		 -> STR_49(CODE[17]), STR_5(CODE[15]), STR_50(CODE[16]), STR_51(CODE[17]), 
		 -> STR_52(CODE[13]), STR_53(CODE[5]), STR_55(CODE[13]), STR_57(CODE[13]), 
		 -> STR_58(CODE[10]), STR_59(CODE[13]), STR_6(CODE[13]), STR_60(CODE[17]), 
		 -> STR_61(CODE[16]), STR_62(CODE[17]), STR_63(CODE[13]), STR_64(CODE[5]), 
		 -> STR_66(CODE[13]), STR_68(CODE[13]), STR_69(CODE[10]), STR_7(CODE[5]), 
		 -> STR_70(CODE[13]), STR_71(CODE[13]), STR_72(CODE[4]), STR_74(CODE[13]), 
		 -> STR_76(CODE[13]), STR_77(CODE[5]), STR_79(CODE[13]), STR_81(CODE[13]), 
		 -> STR_82(CODE[10]), STR_83(CODE[13]), STR_84(CODE[17]), STR_85(CODE[16]), 
		 -> STR_86(CODE[17]), STR_87(CODE[13]), STR_88(CODE[5]), STR_9(CODE[13]), 
		 -> STR_90(CODE[13]), STR_92(CODE[13]), STR_93(CODE[10]), STR_94(CODE[13]), 
		 -> STR_95(CODE[17]), STR_96(CODE[16]), STR_97(CODE[17]), STR_98(CODE[13]), 
		 -> STR_99(CODE[5]), 

    memcpy@d	PTR unsigned char  size(2) Largest target is 80
		 -> dbuf(BANK1[80]), 

    memcpy@d1	PTR void  size(2) Largest target is 80
		 -> dbuf(BANK1[80]), 

    memcpy@s	PTR const unsigned char  size(2) Largest target is 80
		 -> dbuf(BANK1[80]), 

    memcpy@s1	PTR const void  size(2) Largest target is 80
		 -> dbuf(BANK1[80]), 

    pad@buf	PTR unsigned char  size(2) Largest target is 80
		 -> dbuf(BANK1[80]), 

    pad@fp	PTR struct _IO_FILE size(1) Largest target is 12
		 -> sprintf@f(COMRAM[11]), 

    read_prec_or_width@ap	PTR PTR void [1] size(1) Largest target is 1
		 -> sprintf@ap(COMRAM[1]), 

    read_prec_or_width@fmt	PTR PTR const unsigned char  size(1) Largest target is 1
		 -> vfprintf@cfmt(COMRAM[1]), 

    S915$buffer	PTR unsigned char  size(1) Largest target is 10
		 -> data(BANK0[10]), 

    S915$source	PTR const unsigned char  size(2) Largest target is 0

    sp__memcpy	PTR void  size(2) Largest target is 80
		 -> dbuf(BANK1[80]), 

    sp__strcat	PTR unsigned char  size(1) Largest target is 10
		 -> data(BANK0[10]), 

    sp__strcpy	PTR unsigned char  size(2) Largest target is 80
		 -> dbuf(BANK1[80]), 

    sprintf@ap	PTR void [1] size(1) Largest target is 2
		 -> ?_sprintf(BANK0[2]), 

    sprintf@fmt	PTR const unsigned char  size(1) Largest target is 6
		 -> STR_1(CODE[5]), STR_10(CODE[5]), STR_100(CODE[5]), STR_102(CODE[5]), 
		 -> STR_108(CODE[6]), STR_113(CODE[5]), STR_115(CODE[5]), STR_124(CODE[5]), 
		 -> STR_126(CODE[5]), STR_135(CODE[5]), STR_137(CODE[5]), STR_143(CODE[6]), 
		 -> STR_19(CODE[5]), STR_21(CODE[5]), STR_30(CODE[5]), STR_32(CODE[5]), 
		 -> STR_38(CODE[6]), STR_43(CODE[5]), STR_45(CODE[5]), STR_54(CODE[5]), 
		 -> STR_56(CODE[5]), STR_65(CODE[5]), STR_67(CODE[5]), STR_73(CODE[6]), 
		 -> STR_78(CODE[5]), STR_8(CODE[5]), STR_80(CODE[5]), STR_89(CODE[5]), 
		 -> STR_91(CODE[5]), 

    sprintf@s	PTR unsigned char  size(1) Largest target is 10
		 -> data(BANK0[10]), 

    strcat@dest	PTR unsigned char  size(1) Largest target is 10
		 -> data(BANK0[10]), 

    strcat@src	PTR const unsigned char  size(1) Largest target is 3
		 -> STR_110(CODE[3]), STR_145(CODE[3]), STR_40(CODE[3]), STR_75(CODE[3]), 

    strcpy@d	PTR unsigned char  size(2) Largest target is 80
		 -> dbuf(BANK1[80]), 

    strcpy@dest	PTR unsigned char  size(2) Largest target is 80
		 -> dbuf(BANK1[80]), 

    strcpy@src	PTR const unsigned char  size(1) Largest target is 4
		 -> STR_146(CODE[4]), STR_149(CODE[4]), 

    vfpfcnvrt@ap	PTR PTR void  size(1) Largest target is 1
		 -> sprintf@ap(COMRAM[1]), 

    vfpfcnvrt@cp	PTR unsigned char  size(1) Largest target is 6
		 -> STR_1(CODE[5]), STR_10(CODE[5]), STR_100(CODE[5]), STR_102(CODE[5]), 
		 -> STR_108(CODE[6]), STR_113(CODE[5]), STR_115(CODE[5]), STR_124(CODE[5]), 
		 -> STR_126(CODE[5]), STR_135(CODE[5]), STR_137(CODE[5]), STR_143(CODE[6]), 
		 -> STR_19(CODE[5]), STR_21(CODE[5]), STR_30(CODE[5]), STR_32(CODE[5]), 
		 -> STR_38(CODE[6]), STR_43(CODE[5]), STR_45(CODE[5]), STR_54(CODE[5]), 
		 -> STR_56(CODE[5]), STR_65(CODE[5]), STR_67(CODE[5]), STR_73(CODE[6]), 
		 -> STR_78(CODE[5]), STR_8(CODE[5]), STR_80(CODE[5]), STR_89(CODE[5]), 
		 -> STR_91(CODE[5]), 

    vfpfcnvrt@fmt	PTR PTR unsigned char  size(1) Largest target is 1
		 -> vfprintf@cfmt(COMRAM[1]), 

    vfpfcnvrt@fp	PTR struct _IO_FILE size(1) Largest target is 12
		 -> sprintf@f(COMRAM[11]), 

    vfprintf@ap	PTR PTR void  size(1) Largest target is 1
		 -> sprintf@ap(COMRAM[1]), 

    vfprintf@cfmt	PTR unsigned char  size(1) Largest target is 6
		 -> STR_1(CODE[5]), STR_10(CODE[5]), STR_100(CODE[5]), STR_102(CODE[5]), 
		 -> STR_108(CODE[6]), STR_113(CODE[5]), STR_115(CODE[5]), STR_124(CODE[5]), 
		 -> STR_126(CODE[5]), STR_135(CODE[5]), STR_137(CODE[5]), STR_143(CODE[6]), 
		 -> STR_19(CODE[5]), STR_21(CODE[5]), STR_30(CODE[5]), STR_32(CODE[5]), 
		 -> STR_38(CODE[6]), STR_43(CODE[5]), STR_45(CODE[5]), STR_54(CODE[5]), 
		 -> STR_56(CODE[5]), STR_65(CODE[5]), STR_67(CODE[5]), STR_73(CODE[6]), 
		 -> STR_78(CODE[5]), STR_8(CODE[5]), STR_80(CODE[5]), STR_89(CODE[5]), 
		 -> STR_91(CODE[5]), 

    vfprintf@fmt	PTR const unsigned char  size(1) Largest target is 6
		 -> STR_1(CODE[5]), STR_10(CODE[5]), STR_100(CODE[5]), STR_102(CODE[5]), 
		 -> STR_108(CODE[6]), STR_113(CODE[5]), STR_115(CODE[5]), STR_124(CODE[5]), 
		 -> STR_126(CODE[5]), STR_135(CODE[5]), STR_137(CODE[5]), STR_143(CODE[6]), 
		 -> STR_19(CODE[5]), STR_21(CODE[5]), STR_30(CODE[5]), STR_32(CODE[5]), 
		 -> STR_38(CODE[6]), STR_43(CODE[5]), STR_45(CODE[5]), STR_54(CODE[5]), 
		 -> STR_56(CODE[5]), STR_65(CODE[5]), STR_67(CODE[5]), STR_73(CODE[6]), 
		 -> STR_78(CODE[5]), STR_8(CODE[5]), STR_80(CODE[5]), STR_89(CODE[5]), 
		 -> STR_91(CODE[5]), 

    vfprintf@fp	PTR struct _IO_FILE size(1) Largest target is 12
		 -> sprintf@f(COMRAM[11]), 


Critical Paths under _main in COMRAM

    _main->_sprintf
    _sprintf->_vfprintf
    _vfprintf->_vfpfcnvrt
    _vfpfcnvrt->_efgtoa
    _efgtoa->___flge
    _floorf->___fldiv
    ___flsub->___flmul
    ___flmul->___xxtofl
    ___flge->___flmul
    ___fleq->___xxtofl
    _dtoa->_pad
    _pad->_fputs
    _fputs->_fputc
    _abs->___awmod
    _rand->___lmul
    _LCD_String_xy->_LCD_String
    _LCD_String->_LCD_Char
    _LCD_Char->_MSdelay
    _LCD_Init->_LCD_Command
    _LCD_Clear->_LCD_Command
    _LCD_Command->_MSdelay

Critical Paths under _main in BANK0

    _main->_sprintf
    _vfpfcnvrt->_efgtoa

Critical Paths under _main in BANK1

    None.

Critical Paths under _main in BANK2

    None.

Critical Paths under _main in BANK3

    None.

Critical Paths under _main in BANK4

    None.

Critical Paths under _main in BANK5

    None.

Critical Paths under _main in BANK6

    None.

Critical Paths under _main in BANK7

    None.

Critical Paths under _main in BANK8

    None.

Critical Paths under _main in BANK9

    None.

Critical Paths under _main in BANK10

    None.

Critical Paths under _main in BANK11

    None.

Critical Paths under _main in BANK12

    None.

Critical Paths under _main in BANK13

    None.

Critical Paths under _main in BANK14

    None.

Critical Paths under _main in BANK15

    None.

Critical Paths under _main in BANK16

    None.

Critical Paths under _main in BANK17

    None.

Critical Paths under _main in BANK18

    None.

Critical Paths under _main in BANK19

    None.

Critical Paths under _main in BANK20

    None.

Critical Paths under _main in BANK21

    None.

Critical Paths under _main in BANK22

    None.

Critical Paths under _main in BANK23

    None.

Critical Paths under _main in BANK24

    None.

Critical Paths under _main in BANK25

    None.

Critical Paths under _main in BANK26

    None.

Critical Paths under _main in BANK27

    None.

Critical Paths under _main in BANK28

    None.

Critical Paths under _main in BANK29

    None.

Critical Paths under _main in BANK30

    None.

Critical Paths under _main in BANK31

    None.

Call Graph Tables:

 ---------------------------------------------------------------------------------
 (Depth) Function   	        Calls       Base Space   Used Autos Params    Refs
 ---------------------------------------------------------------------------------
 (0) _main                                                 2     2      0   22067
                                             50 BANK0      2     2      0
                           _ADC_Init
                          _LCD_Clear
                           _LCD_Init
                      _LCD_String_xy
                            _MSdelay
                            ___fladd
                             ___fleq
                             ___flge
                            ___flmul
                            ___flsub
                           ___xxtofl
                               _rand
                            _sprintf
                             _strcat
 ---------------------------------------------------------------------------------
 (1) _strcat                                               4     2      2     128
                                              0 COMRAM     4     2      2
 ---------------------------------------------------------------------------------
 (1) _sprintf                                             20    14      6   14433
                                             73 COMRAM    12    12      0
                                             44 BANK0      6     0      6
                           _vfprintf
 ---------------------------------------------------------------------------------
 (2) _vfprintf                                             4     1      3   14170
                                             69 COMRAM     4     1      3
                          _vfpfcnvrt
 ---------------------------------------------------------------------------------
 (3) _vfpfcnvrt                                           11     8      3   14033
                                             59 COMRAM    10     7      3
                               _dtoa
                             _efgtoa
                              _fputc
                 _read_prec_or_width
 ---------------------------------------------------------------------------------
 (4) _read_prec_or_width                                   7     5      2     184
                                              0 COMRAM     7     5      2
 ---------------------------------------------------------------------------------
 (4) _efgtoa                                              53    47      6   11066
                                             51 COMRAM     8     2      6
                                              0 BANK0     44    44      0
                            ___fladd
                            ___fldiv
                             ___fleq
                             ___flge
                            ___flmul
                            ___flneg
                            ___flsub
                            ___fltol
                      ___fpclassifyf
                             _floorf
                               _labs
                             _memcpy
                                _pad
                             _strcpy
 ---------------------------------------------------------------------------------
 (5) _strcpy                                               6     3      3      77
                                              0 COMRAM     6     3      3
 ---------------------------------------------------------------------------------
 (5) _memcpy                                              11     5      6     146
                                              0 COMRAM    11     5      6
 ---------------------------------------------------------------------------------
 (5) _labs                                                 8     4      4      69
                                              0 COMRAM     8     4      4
 ---------------------------------------------------------------------------------
 (5) _floorf                                              20    16      4     340
                                             25 COMRAM    20    16      4
                            ___fldiv (ARG)
 ---------------------------------------------------------------------------------
 (5) ___fpclassifyf                                       14    10      4     137
                                              0 COMRAM    14    10      4
 ---------------------------------------------------------------------------------
 (5) ___fltol                                             10     6      4     232
                                              0 COMRAM    10     6      4
 ---------------------------------------------------------------------------------
 (5) ___flsub                                              8     0      8    2085
                                             39 COMRAM     8     0      8
                            ___fladd
                            ___flmul (ARG)
 ---------------------------------------------------------------------------------
 (6) ___fladd                                             16     8      8    2012
                                              0 COMRAM    16     8      8
 ---------------------------------------------------------------------------------
 (5) ___flneg                                              4     0      4      46
                                              0 COMRAM     4     0      4
 ---------------------------------------------------------------------------------
 (5) ___flmul                                             25    17      8    1480
                                             14 COMRAM    25    17      8
                           ___xxtofl (ARG)
 ---------------------------------------------------------------------------------
 (5) ___flge                                              12     4      8     198
                                             39 COMRAM    12     4      8
                            ___flmul (ARG)
 ---------------------------------------------------------------------------------
 (5) ___fleq                                              12     4      8     126
                                             14 COMRAM    12     4      8
                           ___xxtofl (ARG)
 ---------------------------------------------------------------------------------
 (5) ___fldiv                                             25    17      8    1131
                                              0 COMRAM    25    17      8
 ---------------------------------------------------------------------------------
 (4) _dtoa                                                12     9      3    1813
                                             22 COMRAM    12     9      3
                            ___awdiv
                            ___awmod
                                _abs
                                _pad
 ---------------------------------------------------------------------------------
 (5) _pad                                                  8     3      5     756
                                             14 COMRAM     8     3      5
                              _fputc
                              _fputs
 ---------------------------------------------------------------------------------
 (6) _fputs                                                6     3      3     333
                                              8 COMRAM     6     3      3
                              _fputc
 ---------------------------------------------------------------------------------
 (4) _fputc                                                8     5      3     232
                                              0 COMRAM     8     5      3
                              _putch
 ---------------------------------------------------------------------------------
 (5) _putch                                                1     1      0       0
 ---------------------------------------------------------------------------------
 (5) _abs                                                  4     2      2      67
                                              6 COMRAM     4     2      2
                            ___awmod (ARG)
 ---------------------------------------------------------------------------------
 (5) ___awmod                                              6     2      4     298
                                              0 COMRAM     6     2      4
 ---------------------------------------------------------------------------------
 (5) ___awdiv                                              8     4      4     302
                                              0 COMRAM     8     4      4
 ---------------------------------------------------------------------------------
 (1) _rand                                                 6     4      2      94
                                             12 COMRAM     6     4      2
                             ___lmul
 ---------------------------------------------------------------------------------
 (2) ___lmul                                              12     4      8      94
                                              0 COMRAM    12     4      8
 ---------------------------------------------------------------------------------
 (1) ___xxtofl                                            14    10      4     349
                                              0 COMRAM    14    10      4
 ---------------------------------------------------------------------------------
 (1) _LCD_String_xy                                        5     2      3     720
                                              9 COMRAM     5     2      3
                        _LCD_Command
                         _LCD_String
 ---------------------------------------------------------------------------------
 (2) _LCD_String                                           2     0      2     171
                                              7 COMRAM     2     0      2
                           _LCD_Char
 ---------------------------------------------------------------------------------
 (3) _LCD_Char                                             1     1      0     125
                                              6 COMRAM     1     1      0
                            _MSdelay
 ---------------------------------------------------------------------------------
 (1) _LCD_Init                                             0     0      0     221
                        _LCD_Command
                            _MSdelay
 ---------------------------------------------------------------------------------
 (1) _LCD_Clear                                            0     0      0     125
                        _LCD_Command
 ---------------------------------------------------------------------------------
 (2) _LCD_Command                                          1     1      0     125
                                              6 COMRAM     1     1      0
                            _MSdelay
 ---------------------------------------------------------------------------------
 (1) _MSdelay                                              6     4      2      96
                                              0 COMRAM     6     4      2
 ---------------------------------------------------------------------------------
 (1) _ADC_Init                                             0     0      0       0
 ---------------------------------------------------------------------------------
 Estimated maximum stack depth 6
 ---------------------------------------------------------------------------------

 Call Graph Graphs:

 _main (ROOT)
   _ADC_Init
   _LCD_Clear
     _LCD_Command
       _MSdelay
   _LCD_Init
     _LCD_Command
     _MSdelay
   _LCD_String_xy
     _LCD_Command
     _LCD_String
       _LCD_Char
         _MSdelay
   _MSdelay
   ___fladd
   ___fleq
     ___xxtofl (ARG)
   ___flge
     ___flmul (ARG)
       ___xxtofl (ARG)
   ___flmul
   ___flsub
     ___fladd
     ___flmul (ARG)
   ___xxtofl
   _rand
     ___lmul
   _sprintf
     _vfprintf
       _vfpfcnvrt
         _dtoa
           ___awdiv
           ___awmod
           _abs
             ___awmod (ARG)
           _pad
             _fputc
               _putch
             _fputs
               _fputc
         _efgtoa
           ___fladd
           ___fldiv
           ___fleq
           ___flge
           ___flmul
           ___flneg
           ___flsub
           ___fltol
           ___fpclassifyf
           _floorf
             ___fldiv (ARG)
           _labs
           _memcpy
           _pad
           _strcpy
         _fputc
         _read_prec_or_width
   _strcat

Address spaces:
Name               Size   Autos  Total    Usage
BIGRAM            8191      0       0      0.0%
BITBIGSFRlh       1205      0       0      0.0%
BITBIGSFRll        576      0       0      0.0%
BITBIGSFRh         263      0       0      0.0%
BITBANK31          256      0       0      0.0%
BANK31             256      0       0      0.0%
BITBANK30          256      0       0      0.0%
BANK30             256      0       0      0.0%
BITBANK29          256      0       0      0.0%
BANK29             256      0       0      0.0%
BITBANK28          256      0       0      0.0%
BANK28             256      0       0      0.0%
BITBANK27          256      0       0      0.0%
BANK27             256      0       0      0.0%
BITBANK26          256      0       0      0.0%
BANK26             256      0       0      0.0%
BITBANK25          256      0       0      0.0%
BANK25             256      0       0      0.0%
BITBANK24          256      0       0      0.0%
BANK24             256      0       0      0.0%
BITBANK23          256      0       0      0.0%
BANK23             256      0       0      0.0%
BITBANK22          256      0       0      0.0%
BANK22             256      0       0      0.0%
BITBANK21          256      0       0      0.0%
BANK21             256      0       0      0.0%
BITBANK20          256      0       0      0.0%
BANK20             256      0       0      0.0%
BITBANK19          256      0       0      0.0%
BANK19             256      0       0      0.0%
BITBANK18          256      0       0      0.0%
BANK18             256      0       0      0.0%
BITBANK17          256      0       0      0.0%
BANK17             256      0       0      0.0%
BITBANK16          256      0       0      0.0%
BANK16             256      0       0      0.0%
BITBANK15          256      0       0      0.0%
BANK15             256      0       0      0.0%
BITBANK14          256      0       0      0.0%
BANK14             256      0       0      0.0%
BITBANK13          256      0       0      0.0%
BANK13             256      0       0      0.0%
BITBANK12          256      0       0      0.0%
BANK12             256      0       0      0.0%
BITBANK11          256      0       0      0.0%
BANK11             256      0       0      0.0%
BITBANK10          256      0       0      0.0%
BANK10             256      0       0      0.0%
BITBANK9           256      0       0      0.0%
BANK9              256      0       0      0.0%
BITBANK8           256      0       0      0.0%
BANK8              256      0       0      0.0%
BITBANK7           256      0       0      0.0%
BANK7              256      0       0      0.0%
BITBANK6           256      0       0      0.0%
BANK6              256      0       0      0.0%
BITBANK5           256      0       0      0.0%
BANK5              256      0       0      0.0%
BITBANK4           256      0       0      0.0%
BANK4              256      0       0      0.0%
BITBANK3           256      0       0      0.0%
BANK3              256      0       0      0.0%
BITBANK2           256      0       0      0.0%
BANK2              256      0       0      0.0%
BITBANK1           256      0       0      0.0%
BANK1              256      0      80     31.2%
BITBANK0           160      0       0      0.0%
BANK0              160     52      90     56.2%
BITCOMRAM           95      0       0      0.0%
COMRAM              95     85      94     98.9%
STACK                0      0       0      0.0%
DATA                 0      0     263      0.0%


Microchip Technology PIC18 Macro Assembler V3.00 build 20241204225717 
Symbol Table                                                                                   Thu May 08 01:05:42 2025

              ___fldiv@aexp 0019                ___fldiv@bexp 0018                ___fldiv@sign 0011  
              ?_LCD_Command 0001                          l70 74D6                          l73 75A0  
                        l90 7432                          l67 755C                          l76 7598  
                        l85 70AE                          l79 757A                          l98 72E2  
              ___awdiv@sign 0006                 ?_LCD_String 0008                         l130 2400  
                       l213 47E8                         l117 20C0                         l206 44B0  
                       l119 20E4                         l160 3110                         l144 2A5E  
                       l153 2DD8                         l137 272E                         l501 746A  
                       l238 7176                         l190 3E18                         l239 7186  
                       l183 3AE0                         l167 3448                         l176 37A8  
                       l524 6A2A                         l471 6E54                         l199 4178  
                       l458 6CEE                         l811 5F82                         l820 5FC8  
                       l492 6AE8                         l821 5FE6                         l822 603E  
                       l814 5F46                         l486 6FAA                         l823 602C  
                       l809 611E                         l497 6B2E                         l841 5A0A  
                       l905 74A0                         l850 5C9A                         l851 5C88  
                       l755 5678                         l940 703C                         l772 5792  
                       l764 5944                         l756 5666                         l845 5D8E  
                       l781 5860                         l757 562C                         l782 584E  
                       l935 6FE0                         l944 67DC                         l848 5C24  
                       l849 5C42                         l769 5820                         l882 664E  
                       l938 701E                         l946 67E4                         l858 5D50  
                       l947 682A                         l788 5908                         l972 4E2E  
                       l885 67AA                         l797 736E                         l958 6924  
                       l974 4C74                         l896 6742                         l889 66E6  
                       l969 548E                         _abs 74D8                         _pad 6FAC  
                       _num 005A                ___awmod@sign 0006                         wreg 3FE8  
              ___flmul@aexp 0020                ___flmul@bexp 0021                ___flmul@sign 001B  
              ___flmul@temp 0026                ___flmul@prod 0022                 LCD_Char@dat 0007  
              ___fltol@exp1 000A                        l1002 5274                        l1014 6D9E  
                      l1105 6F00                        l1113 73F2                        l1033 628E  
                      l1018 6DA6                        l1027 63E4                        ?_abs 0007  
                      l1124 711C                        l1116 75A2                        l1133 71E8  
                      l1064 74F2                        l1073 65F6                        l1049 73B2  
                      l1067 750A                        l1059 6C2C                        l1139 7328  
                      l1076 653A                        l1093 7242                        l1087 7298  
                      l4001 6B2C                        l4005 7434                        l4021 697A  
                      l4013 6926                        l4101 72EC                        l4007 744A  
                      l4023 697C                        l4015 693C                        l4111 63E6  
                      l4103 7244                        l3401 6E56                        l4201 68E0  
                      l4009 745A                        l4025 698C                        l4113 6406  
                      l4105 7252                        l3411 6ECE                        l3403 6E66  
                      l4203 68F0                        l4051 6A0A                        l4035 69B6  
                      l4027 6990                        l4019 6950                        l4131 65AE  
                      l4123 64EE                        l4115 645C                        l4107 7266  
                      l4211 4AAA                        l3405 6E76                        l4061 6FCA  
                      l4205 68F6                        l3501 563A                        l3421 54AC  
                      l4053 6A1A                        l4045 69DE                        l4037 69C0  
                      l4029 699E                        l4133 65D6                        l4125 652A  
                      l4117 6470                        l4141 71FE                        l4301 4E52  
                      l4221 4AFE                        l4213 4ABE                        l4151 729A  
                      l3407 6E80                        l4071 702C                        l4063 6FD8  
                      l4207 6908                        l3511 5664                        l3503 5646  
                      l3423 54BC                        l3431 54E4                        l3415 5490  
                      l4047 69EA                        l4039 69CA                        l4135 65E6  
                      l4119 647E                        l4127 655E                        l4143 720E  
                      l4311 4E86                        l4303 4E5A                        l4231 4B3A  
                      l4223 4B06                        l4215 4ACC                        l4161 72B2  
                      l4153 72A6                        l4073 74D8                        l3409 6E9C  
                      l4065 6FEC                        l4057 6FAC                        l3601 5924  
                      l3521 56BA                        l3513 5686                        l3505 564A  
                      l3441 5514                        l3433 54F4                        l3425 54CC  
                      l3417 549C                        l4049 69FA                        l4081 6B8E  
                      l4129 659A                        l4145 7212                        l4401 535C  
                      l4321 4ED0                        l4313 4E9E                        l4305 4E62  
                      l4241 4B80                        l4225 4B16                        l4233 4B3E  
                      l4217 4AD0                        l6001 2FF8                        l4163 72C8  
                      l4075 74E6                        l3611 73C0                        l4067 6FFC  
                      l4059 6FBA                        l4171 67EC                        l3603 5932  
                      l3531 56F4                        l3523 56C8                        l3515 5696  
                      l3507 5658                        l3451 5554                        l3443 5522  
                      l3435 54FA                        l3427 54DC                        l3419 54AA  
                      l4091 6BE0                        l4083 6BB6                        l4147 7224  
                      l4139 71EA                        l4411 53D6                        l4403 5390  
                      l4323 4EE4                        l4331 4FDA                        l4315 4EB0  
                      l4307 4E66                        l4243 4B88                        l4235 4B64  
                      l4251 4BC2                        l4227 4B26                        l4219 4AF4  
                      l6011 3052                        l6003 3008                        l4165 72CC  
                      l3613 73CE                        l4069 7000                        l4181 6826  
                      l4173 67FC                        l3701 5F92                        l3621 5DAA  
                      l3605 5934                        l3541 5760                        l3533 56F6  
                      l3525 56D6                        l3509 565A                        l3461 558C  
                      l3453 5556                        l3445 5524                        l3437 550C  
                      l3429 54DE                        l4085 6BC2                        l4077 6B30  
                      l4149 7228                        l4421 5442                        l4413 53DE  
                      l4405 5398                        l4341 50A6                        l4333 4FF8  
                      l4325 4F48                        l4309 4E78                        l4317 4EB8  
                      l4261 4C0C                        l4253 4BE8                        l4245 4B9C  
                      l4237 4B76                        l4229 4B32                        l4501 6294  
                      l6101 3406                        l6021 30AC                        l6013 306C  
                      l6005 300C                        l4159 72AE                        l3615 73D2  
                      l4191 6878                        l4183 6832                        l4175 6802  
                      l4167 67AC                        l3703 5FA8                        l3711 5FD8  
                      l3631 5DDE                        l3623 5DAC                        l3551 57B8  
                      l3543 5762                        l3535 5700                        l3527 56E2  
                      l3519 56AA                        l3471 55A0                        l3463 5590  
                      l3447 5534                        l3455 555C                        l3439 550E  
                      l4095 6C24                        l4079 6B50                        l4423 5452  
                      l4415 53EC                        l4407 539C                        l4351 5156  
                      l4343 50B6                        l4335 502C                        l4327 4FA0  
                      l4319 4EC0                        l4271 4C3E                        l4255 4BFA  
                      l4247 4BA6                        l4239 4B7A                        l4431 6CF0  
                      l4511 633C                        l4503 62B2                        l6111 34A4  
                      l6103 3418                        l6031 30F6                        l6023 30B2  
                      l6015 3082                        l6007 3022                        l4601 74AE  
                      l3609 73B4                        l4193 687E                        l4185 683A  
                      l4177 6812                        l4169 67D0                        l3721 605A  
                      l3713 5FF6                        l3705 5FAE                        l3641 5E0E  
                      l3625 5DBC                        l3633 5DE4                        l3617 5D90  
                      l3801 5A7E                        l3561 57E6                        l3545 5772  
                      l3529 56E6                        l3537 5706                        l3481 55B4  
                      l3473 55A4                        l3465 5594                        l3457 556C  
                      l3449 5544                        l4089 6BCE                        l4425 546A  
                      l4417 541C                        l4409 53BA                        l4361 51BA  
                      l4353 518A                        l4345 50C6                        l4337 505E  
                      l4329 4FD4                        l4281 4CFC                        l4257 4BFE  
                      l4441 6D6A                        l4433 6CF8                        l4521 6392  
                      l4513 6352                        l4505 62D8                        l6201 38C2  
                      l6121 352A                        l6113 34C2                        l6105 342E  
                      l6041 31A0                        l6033 311E                        l6025 30CC  
                      l6017 309C                        l6009 303C                        l4611 74BC  
                      l4603 74B0                        l4451 756A                        l4187 6840  
                      l4195 689A                        l4179 681E                        l3731 60C6  
                      l3723 6068                        l3715 6024                        l3707 5FB8  
                      l3651 5E42                        l3643 5E10                        l3635 5DF4  
                      l3627 5DCC                        l3619 5D9C                        l3811 5AD0  
                      l3803 5A9A                        l3563 57F4                        l3555 57CC  
                      l3571 5812                        l3539 572C                        l3547 5782  
                      l3491 55C8                        l3483 55B8                        l3475 55A8  
                      l3467 5598                        l3459 557E                        l4099 72E4  
                      l4427 5472                        l4419 542A                        l4371 526A  
                      l4363 51BE                        l4355 519E                        l4347 50FA  
                      l4339 5074                        l4291 4DBC                        l4283 4D2E  
                      l4275 4C84                        l4259 4C04                        l4435 6D20  
                      l4443 6D72                        l4515 6360                        l4507 630A  
                      l4523 63B0                        l6211 3944                        l6203 38D8  
                      l6131 3596                        l6123 3544                        l6115 34D8  
                      l6107 3456                        l6051 322A                        l6035 3152  
                      l6043 31B0                        l6027 30CE                        l6019 30A0  
                      l4541 758A                        l4533 757E                        l4621 759A  
                      l4613 74BE                        l4605 74B4                        l4453 756C  
                      l4445 7560                        l4701 677A                        l3901 6C64  
                      l4197 68B4                        l4189 6872                        l3741 610C  
                      l3733 60E0                        l3725 6092                        l3709 5FC6  
                      l3661 5E86                        l3645 5E20                        l3653 5E48  
                      l3637 5DFA                        l3629 5DDC                        l3821 5B2E  
                      l3813 5AE0                        l3805 5AA6                        l3581 587C  
                      l3573 5830                        l3565 57FC                        l3557 57D6  
                      l3549 57A8                        l3485 55BC                        l3477 55AC  
                      l3469 559C                        l3493 55CC                        l4381 52AE  
                      l4373 5286                        l4365 51C6                        l4349 5150  
                      l4357 51A2                        l4285 4D6C                        l4277 4C8A  
                      l4269 4C24                        l4437 6D28                        l4461 6150  
                      l6301 3D10                        l6221 3998                        l6213 3950  
                      l6205 38E8                        l6141 3620                        l6133 35E0  
                      l6125 3562                        l6109 348A                        l6117 34E8  
                      l6061 32AC                        l6053 3240                        l6045 31BE  
                      l6037 316C                        l6029 30E0                        ?_pad 000F  
                      l4543 758C                        l4535 7584                        l4615 74C4  
                      l4607 74B6                        l4455 756E                        l4447 7566  
                      l4551 7074                        l4631 7418                        l4623 73F6  
                      l4703 678A                        l3911 6C9C                        l3903 6C6C  
                      l4199 68C6                        l3743 6112                        l3735 60F8  
                      l3719 604E                        l3727 6096                        l3671 5EAE  
                      l3663 5E8A                        l3655 5E58                        l3647 5E30  
                      l3639 5E00                        l3831 5BDE                        l3823 5B4E  
                      l3815 5AF0                        l3807 5AB2                        l3591 58E6  
                      l3583 588A                        l3575 5846                        l3567 5800  
                      l3559 57E4                        l3495 55F8                        l3487 55C0  
                      l3479 55B0                        l4383 52B6                        l4375 5294  
                      l4391 52D6                        l4367 51D2                        l4359 51B2  
                      l4287 4D80                        l4295 4DFC                        l4279 4CBE  
                      l4439 6D48                        l4471 6190                        l4463 615E  
                      l4527 63BC                        l6311 3D74                        l6303 3D14  
                      l6231 39F2                        l6223 39AE                        l6215 3966  
                      l6207 38F6                        l6151 3678                        l6135 35E4  
                      l6143 3634                        l6127 3578                        l6119 34F6  
                      l6071 3300                        l6063 32B8                        l6047 31F2  
                      l6039 318A                        l6055 3250                        l4537 7586  
                      l4617 74CA                        l4609 74BA                        l4449 7568  
                      l4545 703E                        l4633 7420                        l4625 73F6  
                      l4705 6798                        l4561 7156                        l4553 711E  
                      l3921 6CC8                        l3913 6CA2                        l3905 6C7E  
                      l3745 6114                        l3737 60FA                        l3729 60B0  
                      l3681 5EFC                        l3657 5E6E                        l3649 5E40  
                      l3841 5C34                        l3833 5BEC                        l3825 5B5E  
                      l3817 5B00                        l3809 5AC0                        l3761 5972  
                      l3753 5946                        l3593 5906                        l3585 58C4  
                      l3569 5810                        l3497 5614                        l3489 55C4  
                      l4393 52E8                        l4385 52C6                        l4377 52A4  
                      l4369 524A                        l4297 4E36                        l4289 4DB4  
                      l4481 6200                        l4473 61B8                        l4465 6162  
                      l4457 6120                        l4641 747C                        l6401 4136  
                      l6321 3DBA                        l6313 3D8A                        l6305 3D2A  
                      l6241 3A6C                        l6233 3A0C                        l6225 39C8  
                      l6217 3980                        l6209 3940                        l6161 36E6  
                      l6153 368A                        l6145 3638                        l6137 35F0  
                      l6129 3588                        l6081 335A                        l6073 3316  
                      l6065 32CE                        l6057 325E                        l6049 320C  
                      l4539 7588                        l4619 74D0                        l4547 7042  
                      l4635 7426                        l4627 7406                        l4707 679A  
                      l4555 712E                        l4651 70EE                        l3915 6CB8  
                      l3907 6C86                        l3923 6CCE                        l3931 6DA8  
                      l3739 60FE                        l3691 5F44                        l3683 5F0C  
                      l3675 5EC2                        l3659 5E7E                        l3667 5E9E  
                      l3851 5CB6                        l3843 5C52                        l3835 5C0A  
                      l3827 5B7E                        l3819 5B1E                        l3771 59AE  
                      l3763 5982                        l3755 5952                        l3595 5916  
                      l3579 5870                        l3587 58C6                        l3499 5624  
                      l4395 52FA                        l4387 52CA                        l4379 52A8  
                      l4299 4E46                        l4491 625C                        l4483 6222  
                      l4475 61C0                        l4467 6176                        l4459 6148  
                      l4563 7370                        l4643 7484                        l6411 41D4  
                      l6403 4148                        l6331 3E26                        l6323 3DD4  
                      l6315 3DA4                        l6307 3D44                        l6251 3A9E  
                      l6243 3A70                        l6235 3A22                        l6227 39D8  
                      l6219 3994                        l6171 3744                        l6163 36F2  
                      l6147 364E                        l6139 3606                        l6091 33D4  
                      l6083 3374                        l6075 3330                        l6067 32E8  
                      l6059 32A8                        l4581 7548                        l4573 7536  
                      l4549 7070                        l4629 740E                        l4557 713C  
                      l3925 6CDE                        l3917 6CC0                        l3909 6C8E  
                      l3941 6DD2                        l3933 6DAA                        l3693 5F50  
                      l3685 5F12                        l3677 5EDC                        l3669 5EAE  
                      l3861 5D20                        l3853 5CC4                        l3845 5C80  
                      l3837 5C14                        l3829 5BA8                        l3781 59E4  
                      l3773 59B4                        l3765 5992                        l3757 5960  
                      l3597 591C                        l3589 58D6                        l4397 52FE  
                      l4389 52D0                        l4493 6266                        l4485 623E  
                      l4477 61D4                        l4469 6186                        l4565 7378  
                      l4645 7494                        l4637 746C                        l4661 71B4  
                      l6501 45E0                        l6421 425A                        l6413 41F2  
                      l6405 415E                        l6333 3E5A                        l6341 3EB8  
                      l6325 3DD6                        l6317 3DA8                        l6309 3D5A  
                      l6261 3B3C                        l6253 3AB0                        l6245 3A7C  
                      l6237 3A3C                        l6229 39DC                        l6181 378E  
                      l6173 374A                        l6157 36BA                        l6149 3668  
                      l6093 33D8                        l6085 338A                        l6077 3340  
                      l6069 32FC                        l5701 22B8                        l4591 7554  
                      l4583 754C                        l4575 7540                        l4671 665E  
                      l4559 714C                        l3927 6CE6                        l3919 6CC2  
                      l3951 6E0A                        l3943 6DDA                        l3935 6DB8  
                      l3695 5F6E                        l3687 5F22                        l3679 5EEC  
                      l3871 5D72                        l3863 5D3A                        l3855 5CEE  
                      l3839 5C22                        l3783 59F4                        l3775 59C2  
                      l3767 5998                        l3759 5962                        l3599 591E  
                      l4399 5304                        l4495 6280                        l4487 6248  
                      l4479 61DE                        l4567 7388                        l4639 7474  
                      l4663 71BA                        l4655 7188                        l6511 4658  
                      l6503 45F0                        l6431 42C6                        l6423 4274  
                      l6415 4208                        l6407 4186                        l6351 3F48  
                      l6343 3EC6                        l6335 3E74                        l6327 3DE8  
                      l6319 3DB4                        l6271 3BC2                        l6263 3B5A  
                      l6255 3AC6                        l6247 3A82                        l6239 3A52  
                      l6191 3838                        l6183 37B6                        l6175 3764  
                      l6159 36D0                        l6095 33E4                        l6087 33A4  
                      l6079 3344                        l6167 3706                        l5711 2310  
                      l5703 22C6                        l4593 7556                        l4585 754E  
                      l4577 7542                        l4681 669C                        l4673 6674  
                      l4665 65FA                        l4649 70B0                        l3961 6E44  
                      l3953 6E20                        l3945 6DEC                        l3937 6DC0  
                      l3697 5F70                        l3689 5F36                        l3873 5D74  
                      l3865 5D4A                        l3849 5CAA                        l3857 5CF2  
                      l3793 5A3E                        l3785 59FA                        l3777 59C4  
                      l3769 59A8                        l3881 732A                        l4497 6286  
                      l4569 73AA                        l4657 7194                        l6601 4A2A  
                      l6521 46B6                        l6513 466E                        l6505 45FE  
                      l6441 4350                        l6433 4310                        l6425 4292  
                      l6409 41BA                        l6417 4218                        l6361 3FC0  
                      l6345 3EFA                        l6337 3E92                        l6353 3F58  
                      l6329 3DFE                        l6281 3C2E                        l6273 3BDC  
                      l6265 3B70                        l6257 3AEE                        l6249 3A9C  
                      l6185 37EA                        l6193 3848                        l6177 3766  
                      l6169 3738                        l6097 33EA                        l6089 33BA  
                      l5801 26EA                        l5721 2390                        l5713 232A  
                      l5705 22CA                        l4595 7558                        l4587 7550  
                      l4579 7544                        l4691 6724                        l4683 66CE  
                      l4667 660A                        l3891 6C3E                        l3963 6E4C  
                      l3955 6E28                        l3947 6DF4                        l3939 6DC4  
                      l3699 5F80                        l3971 6F40                        l3867 5D54  
                      l3875 5D7A                        l3859 5D0C                        l3795 5A4E  
                      l3787 5A1A                        l3779 59D4                        l3883 733A  
                      l4659 7198                        l6611 4A92                        l6531 4714  
                      l6523 46D0                        l6515 4688                        l6507 4648  
                      l6451 43A8                        l6435 4314                        l6443 4364  
                      l6427 42A8                        l6419 4226                        l6371 401E  
                      l6363 3FD6                        l6355 3F66                        l6347 3F14  
                      l6339 3EA8                        l6291 3CB8                        l6283 3C78  
                      l6275 3BFA                        l6259 3B22                        l6267 3B80  
                      l6195 3856                        l6187 3804                        l6179 3778  
                      l6099 3404                        l5811 2770                        l5803 26EC  
                      l5731 23D0                        l5723 239C                        l5715 2340  
                      l5707 22E0                        l4597 755A                        l4589 7552  
                      l4693 6732                        l4685 66D0                        l4677 6688  
                      l4669 6618                        l3893 6C46                        l3957 6E2E  
                      l3949 6DFC                        l3973 6F6E                        l3877 5D7E  
                      l3869 5D64                        l3797 5A58                        l3789 5A2A  
                      l6605 4A5A                        l6541 4778                        l6533 472A  
                      l6525 46E0                        l6509 464C                        l6517 469C  
                      l6461 440C                        l6453 43AC                        l6445 4368  
                      l6437 4320                        l6429 42B8                        l6381 408A  
                      l6373 4038                        l6365 3FF0                        l6357 3FB0  
                      l6349 3F32                        l6285 3C7C                        l6293 3CCC  
                      l6277 3C10                        l6269 3B8E                        l6197 388A  
                      l6189 3822                        l5901 2B78                        l5821 27DC  
                      l5813 278A                        l5805 26FE                        l5741 247A  
                      l5733 23E6                        l5725 23A2                        l5717 235A  
                      l5709 22FA                        l4599 74A2                        l4695 6750  
                      l4687 66DC                        l4679 6690                        l3895 6C4A  
                      l3887 6C2E                        l3959 6E34                        l3975 6F7E  
                      l3967 6F02                        l3991 6AA8                        l3983 6A2C  
                      l3799 5A72                        l6607 4A70                        l6551 47B8  
                      l6543 4784                        l6535 4744                        l6527 46E4  
                      l6519 46A0                        l6471 4452                        l6463 4422  
                      l6455 43C2                        l6447 437E                        l6439 4336  
                      l6383 40A0                        l6375 4048                        l6359 3FB4  
                      l6367 4004                        l6295 3CD0                        l6287 3C88  
                      l6279 3C20                        l6199 38A4                        l6391 40D6  
                      l5911 2BFA                        l5903 2B8E                        l5823 2810  
                      l5815 27A8                        l5831 286E                        l5807 2714  
                      l5751 24FC                        l5743 2490                        l5735 240E  
                      l5727 23BC                        l5719 235E                        l5671 20E0  
                      l5663 20C0                        l4697 6752                        l4689 6718  
                      l3897 6C58                        l3889 6C30                        l3977 6FA2  
                      l3969 6F30                        l3993 6AB6                        l3985 6A5A  
                      l6609 4A86                        l6561 4862                        l6553 47CE  
                      l6545 478A                        l6537 475A                        l6529 46FA  
                      l6481 44BE                        l6473 446C                        l6465 443C  
                      l6457 43DC                        l6449 4398                        l6393 4108  
                      l6385 40B6                        l6377 405A                        l6369 4008  
                      l6297 3CE6                        l6289 3C9E                        l5921 2C4E  
                      l5913 2C06                        l5905 2B9E                        l5841 28EC  
                      l5833 287C                        l5825 282A                        l5817 27BE  
                      l5809 273C                        l5761 2598                        l5753 251A  
                      l5737 2442                        l5745 24A0                        l5729 23BE  
                      l5681 219C                        l5673 20F2                        l5665 20C4  
                      l4699 6756                        l3899 6C60                        l3979 6FA8  
                      l3995 6AC8                        l3987 6A6A                        l6571 48E4  
                      l6563 4878                        l6555 47F6                        l6547 47A4  
                      l6539 4774                        l6483 44F2                        l6491 4550  
                      l6475 446E                        l6467 4440                        l6459 43F2  
                      l6395 4114                        l6387 40C2                        l6299 3D00  
                      l5931 2CCC                        l5923 2C64                        l5915 2C1C  
                      l5907 2BAC                        l5851 294E                        l5843 2906  
                      l5835 28C6                        l5827 2848                        l5819 27CE  
                      l5763 259C                        l5771 25EC                        l5755 2530  
                      l5747 24AE                        l5739 245C                        l5691 2256  
                      l5683 21CE                        l5675 210C                        l5667 20C8  
                      l3997 6AD6                        l3989 6A98                        l6581 4980  
                      l6573 4902                        l6557 482A                        l6565 4888  
                      l6549 47A6                        l6493 455E                        l6485 450C  
                      l6477 4480                        l6469 444C                        l6397 411A  
                      l5933 2CEA                        l5925 2C7E                        l5917 2C36  
                      l5909 2BF6                        l5861 29A8                        l5853 295E  
                      l5837 28CA                        l5845 291A                        l5829 285E  
                      l5781 2634                        l5773 25F0                        l5765 25A8  
                      l5749 24E2                        l5757 2540                        l5693 2268  
                      l5685 21E0                        l5677 2158                        l5669 20D0  
                      l3999 6B26                        l6583 4984                        l6591 49D4  
                      l6575 4918                        l6567 4896                        l6559 4844  
                      l6495 4592                        l6487 452A                        l6479 4496  
                      l6399 4134                        l5951 2D94                        l5935 2D00  
                      l5927 2C8E                        l5919 2C4A                        l5871 2A02  
                      l5863 29C2                        l5855 2962                        l5847 291E  
                      l5839 28D6                        l5791 26AA                        l5783 264A  
                      l5775 2606                        l5767 25BE                        l5759 254E  
                      l5943 2D36                        l5695 2286                        l5687 2212  
                      l5679 218A                        l6593 49D8                        l6585 4990  
                      l6569 48CA                        l6577 4928                        l6497 45AC  
                      l6489 4540                        l5961 2E1A                        l5953 2D96  
                      l5945 2D68                        l5937 2D16                        l5929 2CA0  
                      l5881 2A44                        l5873 2A08                        l5865 29D8  
                      l5857 2978                        l5849 2934                        l5793 26C4  
                      l5785 2664                        l5777 2620                        l5769 25D8  
                      l5697 229C                        l5689 2224                        l6595 49EE  
                      l6587 49A6                        l6579 4936                        l6499 45CA  
                      l5971 2E86                        l5963 2E34                        l5955 2DA8  
                      l5947 2D74                        l5939 2D22                        l5891 2AEE  
                      l5883 2A6C                        l5875 2A1A                        l5867 29F2  
                      l5859 2992                        l5795 26C8                        l5787 267A  
                      l5779 2630                        l5699 22AC                        l6597 4A08  
                      l6589 49C0                        l5973 2EBA                        l5965 2E52  
                      l5981 2F18                        l5957 2DBE                        l5949 2D7A  
                      l5885 2AA0                        l5893 2AFE                        l5877 2A1C  
                      l5869 29F6                        l5797 26D4                        l5789 2694  
                      l6599 4A18                        l5991 2F96                        l5983 2F26  
                      l5975 2ED4                        l5967 2E68                        l5959 2DE6  
                      l5895 2B0C                        l5887 2ABA                        l5879 2A2E  
                      l5799 26DA                        l5993 2FB0                        l5985 2F70  
                      l5977 2EF2                        l5969 2E78                        l5897 2B40  
                      l5889 2AD8                        l5987 2F74                        l5995 2FC4  
                      l5979 2F08                        l5899 2B5A                        l5997 2FC8  
                      l5989 2F80                        l5999 2FDE                        STR_1 20AE  
                      STR_2 2001                        STR_3 2063                        STR_4 2054  
                      STR_5 2045                        STR_6 208C                        STR_7 20A9  
                      STR_8 20AE                        STR_9 208C                        u3000 57B8  
                      u3001 57B4                        u3010 57E4                        u3011 57E0  
                      u3100 58C4                        u3020 57F4                        u3101 58C0  
                      u3021 57F0                        u3110 58D6                        u3030 5810  
                      _LATB 3FBB                        u3111 58D2                        u3031 580C  
                      u3200 5E0E                        u3120 58E6                        u3040 5820  
                      u4000 7252                        u3201 5E0A                        u3121 58E2  
                      u3041 581C                        u4001 724E                        u3210 5E20  
                      u3130 5906                        u3050 5830                        u4010 642E  
                      u3211 5E1C                        u3131 5902                        u3051 582C  
                      u3300 5FC6                        u3220 5E30                        u3140 5916  
                      u3060 5846                        u4100 65D6                        u4020 645C  
                      u3301 5FC2                        u3221 5E2C                        u3141 5912  
                      u3061 5842                        u4101 65D2                        u4021 6458  
                      u3310 5FE6                        u3230 5E6E                        u3150 5932  
                      u3070 585C                        u4030 647E                        u4110 7242  
                      u3311 5FE2                        u3231 5E6A                        u3151 592E  
                      u3071 5858                        u4031 647A                        u4015 6424  
                      u4111 723E                        u4120 72C8                        u3160 73F2  
                      u4200 68C6                        u3320 5FF6                        u3240 5EAE  
                      u3400 5960                        u3080 5870                        u4121 72C4  
                      u3161 73EE                        u4201 68C2                        u3321 5FF2  
                      u3241 5EAA                        u3401 595C                        u3081 586C  
                      u4130 72E2                        u4210 68E0                        u3330 6024  
                      u3250 5F22                        u3170 5DAA                        u3410 5972  
                      u3090 588A                        u4050 64EA                        u4131 72DE  
                      u4211 68DC                        u3331 6020                        u3251 5F1E  
                      u3171 5DA6                        u3411 596E                        u3091 5886  
                      u4051 64E6                        u4220 68F0                        u4140 67BC  
                      u3340 603A                        u3260 5F44                        u3180 5DBC  
                      u3500 5C42                        u3420 5982                        u4060 650E  
                      u4300 4C70                        u4221 68EC                        u4141 67B6  
                      u3341 6036                        u3261 5F40                        u3181 5DB8  
                      u3501 5C3E                        u3421 597E                        u4045 6492  
                      u4301 4C6C                        u4150 67BE                        u3350 604E  
                      u3270 5F6E                        u3190 5DCC                        u3510 5C52  
                      u3430 59C2                        u4070 652A                        u4046 649C  
                      u4310 4CFC                        u4230 4ACC                        u3351 604A  
                      u3271 5F6A                        u3191 5DC8                        u3511 5C4E  
                      u3431 59BE                        u4071 6526                        u4047 64AC  
                      u4311 4CF8                        u4231 4AC8                        u3600 6C58  
                      u4160 67D0                        u3360 6068                        u3280 5F92  
                      u3520 5C80                        u3440 59D4                        u2800 550C  
                      u4080 657E                        u4400 4FF8                        u4320 4D2E  
                      u4240 4B16                        u6000 45FE                        u3601 6C54  
                      u4161 67CC                        u3361 6064                        u3281 5F8E  
                      u3521 5C7C                        u3441 59D0                        u2801 5508  
                      u4065 6504                        u4401 4FF4                        u4321 4D2A  
                      u4241 4B12                        u6001 45FA                        u3610 6C7E  
                      u2730 6E66                        u4170 67FC                        u3370 60B0  
                      u3290 5FA8                        u3530 5C96                        u3450 59E4  
                      u2810 5522                        u4090 659A                        u4410 505E  
                      u4330 4D6C                        u4250 4B26                        u6010 4648  
                      u3611 6C7A                        u2731 6E62                        u4171 67F8  
                      u3371 60AC                        u3291 5FA4                        u3531 5C92  
                      u3451 59E0                        u2811 551E                        u4091 6596  
                      u4411 505A                        u4331 4D68                        u4251 4B22  
                      u6011 4644                        u3620 6C9C                        u3700 6E44  
                      u2740 6E76                        u4180 6812                        u3380 60E0  
                      u3540 5CAA                        u3460 5A1A                        u2900 5658  
                      u2820 5534                        u4500 53BA                        u4420 50A6  
                      u4340 4DF8                        u4260 4B64                        u6020 47F6  
                      u3621 6C98                        u3701 6E40                        u2741 6E72  
                      u4181 680E                        u3381 60DC                        u3541 5CA6  
                      u3461 5A16                        u2901 5654                        u2821 5530  
                      u4085 6574                        u4501 53B6                        u4421 50A2  
                      u4341 4DF4                        u4261 4B60                        u6021 47F2  
                      u3630 6CB8                        u2750 6E9C                        u4190 68B4  
                      u3390 610C                        u3710 6F30                        u3550 5CC4  
                      u3470 5A2A                        u2910 5678                        u2830 5544  
                      u4510 53D6                        u4430 50B6                        u4350 4E2E  
                      u4270 4B76                        u6030 4896                        u3631 6CB4  
                      u2751 6E98                        u4191 68B0                        u3391 6108  
                      u3711 6F2C                        u3551 5CC0                        u3471 5A26  
                      u2911 5674                        u2831 5540                        u4511 53D2  
                      u4431 50B2                        u4351 4E2A                        u4271 4B72  
                      u6031 4892                        u3640 6CDE                        u2760 6ECE  
                      u3720 6F6E                        u3560 5D0C                        u3480 5BC8  
                      u2920 5686                        u2840 557E                        u3800 693C  
                      u4520 543C                        u4440 5150                        u4360 4E46  
                      u4280 4BE8                        u4600 6200                        u6040 4936  
                      u3641 6CDA                        u2761 6ECA                        u3721 6F6A  
                      u3561 5D08                        u2921 5682                        u2841 557A  
                      u3801 6938                        u4521 5436                        u4441 514C  
                      u4361 4E42                        u4281 4BE4                        u4601 61FC  
                      u6041 4932                        u3650 6DB8                        u3730 6FA2  
                      u3570 5D3A                        u3490 5C22                        u2930 5696  
                      u2850 558C                        u2770 54AA                        u3810 6970  
                      u4530 543E                        u4450 519E                        u4370 4E78  
                      u4290 4BFA                        u4610 6222                        u6050 4980  
                      u3651 6DB4                        u3731 6F9E                        u3571 5D36  
                      u3491 5C1E                        u2931 5692                        u2851 5588  
                      u2771 54A6                        u4451 519A                        u4371 4E74  
                      u4291 4BF6                        u4611 621E                        u6051 497C  
                      u6107 23AE                        u4700 710E                        u3660 6DD2  
                      u3900 702C                        u3740 6A5A                        u3580 5D72  
                      u2940 56C8                        u2860 55F8                        u2780 54BC  
                      u3820 699E                        u4540 5452                        u4460 524A  
                      u4380 4E86                        u4620 62D4                        u6060 4A2A  
                      u5500 22C6                        u3661 6DCE                        u3901 7028  
                      u3741 6A56                        u3581 5D6E                        u3485 5BBE  
                      u2941 56C4                        u2861 55F4                        u2781 54B8  
                      u3821 699A                        u4541 544E                        u4461 5246  
                      u4381 4E82                        u4621 62D0                        u6061 4A26  
                      u6117 23C6                        u5501 22C2                        u4630 706C  
                      u3590 6C3E                        u3670 6DEC                        u3910 74E6  
                      u3750 6A98                        u2950 56D6                        u2870 5610  
                      u2790 54CC                        u3830 69B2                        u4470 5286  
                      u4390 4EB0                        u4550 6D20                        u4710 71B0  
                      u5510 2390                        u3591 6C3A                        u3671 6DE8  
                      u3911 74E2                        u3751 6A94                        u2951 56D2  
                      u2871 560A                        u2791 54C8                        u3831 69AE  
                      u3815 6966                        u4471 5282                        u4391 4EAC  
                      u4551 6D1C                        u4711 71AC                        u7007 4766  
                      u6207 26F4                        u6127 244E                        u5511 238C  
                      u4640 709E                        u4800 6750                        u3680 6E0A  
                      u3760 6AB6                        u2960 56F4                        u2880 5612  
                      u3840 69DA                        u3920 6B70                        u4480 5294  
                      u4560 6D9E                        u4720 71E8                        u5600 2A6C  
                      u5520 240E                        u4801 674C                        u4705 7104  
                      u3681 6E06                        u3761 6AB2                        u2961 56F0  
                      u3841 69D6                        u4481 5290                        u4561 6D9A  
                      u4721 71E4                        u7017 4796                        u5601 2A68  
                      u6217 277C                        u6137 24EE                        u5521 240A  
                      u4650 70AE                        u4810 678A                        u4730 660A  
                      u3690 6E20                        u3770 6AD6                        u2970 572C  
                      u2890 563A                        u3850 69FA                        u3930 6B8E  
                      u4490 52E8                        u4570 6148                        u5610 2B0C  
                      u5530 24AE                        u5450 20F2                        u4651 70AA  
                      u4811 6786                        u4731 6606                        u3691 6E1C  
                      u3771 6AD2                        u2971 5728                        u2891 5636  
                      u3851 69F6                        u3931 6B8A                        u4491 52E4  
                      u4571 6144                        u7027 47AE                        u5611 2B08  
                      u6307 2AAC                        u6227 281C                        u6147 25CA  
                      u5531 24AA                        u5451 20EE                        u4820 6798  
                      u4740 6618                        u4660 713C                        u3780 6B26  
                      u2980 5772                        u3860 6A0A                        u3940 6BB6  
                      u4580 6186                        u5700 311E                        u5620 2BAC  
                      u5540 254E                        u5460 218A                        u4637 705E  
                      u4821 6794                        u4741 6614                        u4661 7138  
                      u3781 6B22                        u2981 576E                        u3861 6A06  
                      u3941 6BB2                        u3925 6B66                        u4581 6182  
                      u7037 4836                        u5701 311A                        u5621 2BA8  
                      u6317 2B4C                        u6237 28F8                        u6157 2612  
                      u5541 254A                        u6077 22EC                        u5461 2186  
                      u4750 6674                        u4670 7176                        u3870 6FBA  
                      u3790 744A                        u2990 57A8                        u3950 6BE0  
                      u4590 61B8                        u5710 31BE                        u5630 2BF6  
                      u5550 2598                        u5470 21CE                        u4647 7090  
                      u4751 6670                        u4671 7172                        u3871 6FB6  
                      u3791 7446                        u2991 57A4                        u3951 6BDC  
                      u4591 61B4                        u7047 48D6                        u5711 31BA  
                      u6407 2FEA                        u6327 2C28                        u5631 2BF2  
                      u6247 2940                        u6167 2656                        u5551 2594  
                      u6087 231C                        u5471 21CA                        u4760 66CA  
                      u3880 6FD8                        u4680 73AA                        u5800 37B6  
                      u5720 325E                        u5640 2CA0                        u5560 273C  
                      u5480 2212                        u4761 66C6                        u3881 6FD4  
                      u4681 73A6                        u7057 49B2                        u5801 37B2  
                      u5721 325A                        u6417 302E                        u5641 2C9C  
                      u6337 2C70                        u6257 2984                        u5561 2738  
                      u6177 2686                        u6097 234C                        u5481 220E  
                      u4690 7406                        u4770 6714                        u3890 701E  
                      u3970 6C1A                        u5810 3856                        u5730 32A8  
                      u5650 2D68                        u5570 27DC                        u5490 2256  
                      u4691 7402                        u4771 6710                        u3891 701A  
                      u3971 6C14                        u7067 49FA                        u5811 3852  
                      u6507 3366                        u5731 32A4                        u6427 305E  
                      u5651 2D64                        u6347 2CD8                        u6267 29B4  
                      u5571 27D8                        u6187 26B6                        u5491 2252  
                      u4780 6732                        u3980 6C1C                        u5900 3F66  
                      u5820 38F6                        u5740 3456                        u5660 2DE6  
                      u5580 287C                        u4781 672E                        u3965 6BF2  
                      u5901 3F62                        u5821 38F2                        u5741 3452  
                      u6517 3396                        u6437 308E                        u5661 2DE2  
                      u6357 2D86                        u6277 29E4                        u5581 2878  
                      u6197 26E2                        u4790 6742                        u3990 7328  
                      u5910 3FB0                        u5830 3940                        u5750 34F6  
                      u5670 2E86                        u5590 28C6                        u4791 673E  
                      u3991 7324                        u5911 3FAC                        u5831 393C  
                      u6607 376E                        u5751 34F2                        u6527 33C6  
                      u6447 30BE                        u5671 2E82                        u6367 2D9E  
                      u6287 2A10                        u5591 28C2                        u5920 405A  
                      u5840 3AEE                        u5760 3596                        u5680 2F26  
                      u5921 4056                        u5841 3AEA                        u6617 37F6  
                      u5761 3592                        u6537 33F6                        u6457 30D6  
                      u5681 2F22                        u6377 2E26                        u6297 2A24  
                      u5930 4108                        u5850 3B8E                        u5770 35E0  
                      u5690 2F70                        u5931 4104                        u5851 3B8A  
                      u6707 3B2E                        u6627 3896                        u5771 35DC  
                      u6547 340E                        u6467 315E                        u5691 2F6C  
                      u6387 2EC6                        u5940 4186                        u5860 3C2E  
                      u5780 368A                        u5941 4182                        u5861 3C2A  
                      u6717 3BCE                        u6637 3972                        u5781 3686  
                      u6557 3496                        u6477 31FE                        u6397 2FA2  
                      u5950 4226                        u5870 3C78                        u5790 3738  
                      u5951 4222                        u6807 3F06                        u6727 3CAA  
                      u5871 3C74                        u6647 39BA                        u5791 3734  
                      u6567 3536                        u6487 32DA                        u5960 42C6  
                      u5880 3E26                        u5961 42C2                        u6817 3FE2  
                      u5881 3E22                        u6737 3CF2                        u6657 39FE  
                      u6577 3612                        u6497 3322                        u5970 4310  
                      u5890 3EC6                        u6907 43FE                        u5971 430C  
                      u6827 402A                        u5891 3EC2                        u6747 3D36  
                      u6667 3A2E                        u6587 365A                        u5980 44BE  
                      u5981 44BA                        u6917 442E                        u6837 4126  
                      u6757 3D66                        u6677 3A5E                        u6597 3756  
                      u5990 455E                        u5991 455A                        u6927 445E  
                      u6847 413E                        u6767 3D96                        u6687 3A8E  
                      u6937 4476                        u6857 41C6                        u6777 3DC6  
                      u6697 3AA6                        u6947 44FE                        u6867 4266  
                      u6787 3DDE                        u6957 459E                        u6877 4342  
                      u6797 3E66                        u6967 467A                        u6887 438A  
                      u6977 46C2                        u6897 43CE                        u6987 4706  
                      u6997 4736                        abs@a 0007                        _data 00AC  
                      _dbuf 0100                        _labs 7244                        _main 20C0  
                      _dtoa 67AC                        _rand 70B0                        _seed 00B6  
                      _prec 00A6                        pad@i 0015                        pad@p 0012  
                      fsr1h 3FE2                        fsr2h 3FDA                        indf1 3FE7  
                      indf2 3FDF                        fsr1l 3FE1                        fsr2l 3FD9  
          __end_of_ADC_Init 755E               ___fpclassifyf 6B30                        prodh 3FF4  
                      prodl 3FF3                        start FFFC             __end_of_MSdelay 72E4  
           ___fldiv@new_exp 0012                  _Difficulty 009C               _LCD_String_xy 73F4  
              ___param_bank 0000                       ??_abs 0009                       ??_pad 0014  
          __end_of_LCD_Char 757C            __end_of_LCD_Init 74D8               ___fltol@sign1 0009  
                     ?_labs 0001             __end_of___fladd 5946                       ?_main 0001  
                     ?_dtoa 0017                       _ADCLK 3EFF                       _ADPCH 3EF1  
           __end_of___fldiv 6120                       ?_rand 000D             __end_of___awdiv 6CF0  
           __end_of___flneg 746C                       STR_10 20AE                       STR_11 208C  
                     STR_20 208C                       STR_12 2099                       STR_21 20AE  
                     STR_13 2072                       STR_22 208C                       STR_30 20AE  
                     STR_14 2024                       STR_23 2099                       STR_31 208C  
                     STR_15 2035                       STR_24 2072                       STR_40 20BC  
                     STR_32 20AE                       STR_16 2013                       STR_25 2024  
                     STR_41 208C                       STR_33 208C                       STR_17 208C  
                     STR_34 2099                       STR_42 20A9                       STR_18 20A9  
                     STR_50 2035                       STR_26 2035                       STR_35 2072  
                     STR_51 2013                       STR_27 2013                       STR_43 20AE  
                     STR_19 20AE                       STR_60 2024                       STR_52 208C  
                     STR_44 208C                       STR_28 208C                       STR_36 207F  
           __end_of___awmod 6E56                       STR_53 20A9                       STR_29 20A9  
                     STR_61 2035                       STR_45 20AE                       STR_37 20BB  
                     STR_70 2072                       STR_62 2013                       STR_46 208C  
                     STR_54 20AE                       STR_38 20A3                       STR_47 2099  
                     STR_71 207F                       STR_39 207F                       STR_63 208C  
                     STR_55 208C                       STR_48 2072                       STR_64 20A9  
                     STR_72 20BB                       STR_80 20AE                       STR_56 20AE  
                     STR_49 2024                       STR_81 208C                       STR_57 208C  
                     STR_73 20A3                       STR_65 20AE                       STR_82 2099  
                     STR_58 2099                       STR_74 207F                       STR_90 208C  
                     STR_66 208C                       STR_83 2072                       STR_59 2072  
                     STR_75 20BC                       STR_91 20AE                       STR_67 20AE  
                     STR_84 2024                       STR_92 208C                       STR_76 208C  
                     STR_68 208C                       STR_93 2099                       STR_69 2099  
                     STR_77 20A9                       STR_85 2035                       STR_94 2072  
                     STR_86 2013                       STR_78 20AE                       STR_95 2024  
                     STR_87 208C                       STR_79 208C                       STR_88 20A9  
                     STR_96 2035             __end_of___flmul 5D90                       STR_97 2013  
                     STR_89 20AE                       STR_98 208C                       STR_99 20A9  
           __end_of___flsub 7370             __end_of___fltol 6A2C             ___awdiv@divisor 0003  
           ___awdiv@counter 0005                vfpfcnvrt@fmt 003D                       _PORTD 3FCD  
                     _TRISB 3FC3                       _TRISD 3FC5                       _TRISE 3FC6  
       ___lmul@multiplicand 0005                       _flags 005E         read_prec_or_width@c 0005  
       read_prec_or_width@n 0006                       _fputc 6E56                       _fputs 73B4  
                     labs@a 0001                       pad@fp 000F                       _width 00A4  
                     _putch 75A2                       dtoa@d 0018                       dtoa@i 0021  
                     dtoa@p 001E                       dtoa@s 0020                       dtoa@w 001C  
                     tablat 3FF5                       status 3FD8             __end_of_sprintf 74A2  
            ?___fpclassifyf 0001              ?_LCD_String_xy 000A             __initialization 750C  
              __end_of_labs 729A                __end_of_main 4AAA                __end_of_dtoa 6926  
              __end_of_rand 711E                      ??_labs 0005                      ??_main 0092  
                    ??_dtoa 001A                      ??_rand 000F           __end_of_LCD_Clear 75A2  
             __activetblptr 0003  __end_of_read_prec_or_width 6DA8                      _ADACQH 3EF4  
                    _ADACQL 3EF3                      ?_fputc 0001                      STR_100 20AE  
                    STR_101 208C                      STR_110 20BC                      STR_102 20AE  
                    ?_fputs 0009                      STR_111 208C                      STR_103 208C  
                    STR_104 2099                      STR_112 20A9                      STR_120 2035  
                    STR_105 2072                      STR_121 2013                      STR_113 20AE  
                    STR_130 2024                      STR_106 207F                      STR_122 208C  
                    STR_114 208C                      _ADRESH 3EF0                      STR_123 20A9  
                    STR_131 2035                      STR_107 20BB                      STR_115 20AE  
                    STR_140 2072                      STR_132 2013                      STR_116 208C  
                    STR_108 20A3                      STR_124 20AE                      STR_117 2099  
                    STR_141 207F                      STR_109 207F                      STR_133 208C  
                    STR_125 208C                      STR_118 2072                      STR_134 20A9  
                    STR_142 20BB                      STR_126 20AE                      _ADRESL 3EEF  
                    STR_119 2024                      STR_127 208C                      STR_143 20A3  
                    STR_135 20AE                      STR_128 2099                      STR_144 207F  
                    STR_136 208C                      STR_129 2072                      STR_145 20BC  
                    STR_137 20AE                      STR_138 208C                      STR_146 20B3  
                    _ADPREH 3EF7                      STR_139 2099                      STR_149 20B7  
                    _ADPREL 3EF6            ___awdiv@dividend 0001                      ?_putch 0001  
                    _ANSELB 3A50                      _ANSELD 3A70                      _ANSELE 3A80  
          LCD_String_xy@msg 000B            LCD_String_xy@pos 000A            LCD_String_xy@row 000D  
                 ??_MSdelay 0003            __end_of___xxtofl 67AC                vfprintf@cfmt 0049  
                    ___flge 6A2C                      ___fleq 6F02                      ___lmul 711E  
                 ??___fladd 0009                   ??___fldiv 0009                   ??___awdiv 0005  
                 ??___flneg 0005                   ??___awmod 0005                   ??___flmul 0017  
                 ??___flsub 0030                   ??___fltol 0005                      _efgtoa 4AAA  
                    _count1 0056                      _count2 005C                      _floorf 63E6  
                    _memcpy 71EA        read_prec_or_width@ap 0002                      clear_0 7512  
                    clear_1 751E                      clear_2 752A            ___awdiv@quotient 0007  
           ___awmod@divisor 0003                      isa$std 0001             ___awmod@counter 0005  
                    pad@buf 0010                      _strcat 7188                      dtoa@fp 0017  
                    _strcpy 72E4                      fputc@c 0001                      fputs@c 000C  
                    fputs@i 000D                      fputs@s 0009             ___fpclassifyf@e 0009  
                 ?_ADC_Init 0001             ___fpclassifyf@u 000B             ___fpclassifyf@x 0001  
              __mediumconst 2000                      tblptrh 3FF7                      tblptrl 3FF6  
                    tblptru 3FF8                      putch@c 0001            __end_of_vfprintf 73B4  
                 ??_sprintf 004A                  ___flge@ff1 0028                  ___flge@ff2 002C  
           ??___fpclassifyf 0005                ___xxtofl@arg 000B                ___xxtofl@exp 000A  
              ___xxtofl@val 0001                  ___fleq@ff1 000F                  ___fleq@ff2 0013  
                 ?_LCD_Char 0001                  __accesstop 0060     __end_of__initialization 7530  
                 ?_LCD_Init 0001             ??_LCD_String_xy 000D                  ___flneg@f1 0001  
             ___rparam_used 0001                  ___fltol@f1 0001              __pcstackCOMRAM 0001  
             __end_of_fputc 6F02               __end_of_fputs 73F4               __end_of_putch 75A4  
              ??_LCD_String 000A                  ??_ADC_Init 0001                     ??_fputc 0004  
                   ??_fputs 000C                     ??_putch 0001                  __pbssBANK0 0094  
                __pbssBANK1 0100                  ??_LCD_Char 0007                  ??_LCD_Init 0008  
        __end_of_LCD_String 70B0                     ?___flge 0028                     ?___fleq 000F  
                   ?___lmul 0001                     ?_efgtoa 0034                     ?_floorf 001A  
                   ?_memcpy 0001              ___lmul@product 0009         _elapsed_time_counts 00AA  
                   ?_strcat 0001                     ?_strcpy 0001                   ?___xxtofl 0001  
                   _MSdelay 729A               LCD_String@msg 0008                     __Hparam 0000  
                   __Lparam 0000                     ___fladd 5490                     ___fldiv 5D90  
                   ___awdiv 6C2E                     ___flneg 7434                     ___awmod 6DA8  
                   ___flmul 5946                     ___flsub 732A                     ___fltol 6926  
                 ?_vfprintf 0046                __psmallconst 2000                     __pcinit 750C  
                   __ramtop 2000                     _digital 00A8                     __ptext0 20C0  
                   __ptext1 7188                     __ptext2 746C                     __ptext3 7370  
                   __ptext4 6120                     __ptext5 6CF0                     __ptext6 4AAA  
                   __ptext7 72E4                     __ptext8 71EA                     __ptext9 7244  
     read_prec_or_width@fmt 0001                  ??___xxtofl 0005            ___awmod@dividend 0001  
                   efgtoa@c 0039                     efgtoa@d 006B                     efgtoa@e 006F  
                   efgtoa@f 0035                     efgtoa@g 0084                     efgtoa@h 0079  
                   efgtoa@i 0077                     efgtoa@l 007D                     efgtoa@m 006D  
                   efgtoa@n 0082                     efgtoa@p 0062                     efgtoa@t 0064  
                   efgtoa@u 0088                     efgtoa@w 0071                   _LCD_Clear 759A  
                   _sprintf 746C                     _voltage 00A0        end_of_initialization 7530  
                   floorf@e 0028                     floorf@m 0024                     floorf@u 002A  
                   floorf@x 001A                     memcpy@d 0007                     memcpy@n 0005  
                   memcpy@s 0009                     fputc@fp 0003              LCD_Command@cmd 0007  
                   fputs@fp 000B          _read_prec_or_width 6CF0           __end_of_vfpfcnvrt 63E6  
                efgtoa@mode 0069                  efgtoa@sign 0081                     postdec2 3FDD  
       ?_read_prec_or_width 0001                     postinc0 3FEE                     postinc1 3FE6  
                   postinc2 3FDE            vfpfcnvrt@convarg 0040                  ??_vfprintf 0049  
                   strcat@i 0003                     strcpy@d 0005                   _PORTDbits 3FCD  
                 _PORTEbits 3FCE                 ___fladd@grs 0010               ___xxtofl@sign 0009  
                 _TRISAbits 3FC2                  ?_LCD_Clear 0001        ??_read_prec_or_width 0003  
               ___fldiv@grs 0014                 ___fldiv@rem 000D                 ___flmul@grs 001C  
             ??_LCD_Command 0007              __end_of___flge 6B30              __end_of___fleq 6FAC  
            __end_of___lmul 7188                 vfpfcnvrt@ap 003E                 vfpfcnvrt@cp 0045  
               vfpfcnvrt@fp 003C              __end_of_efgtoa 5490              __end_of_floorf 65F8  
            __end_of_memcpy 7244                  floorf@F521 0094              __end_of_strcat 71EA  
            __end_of_strcpy 732A         start_initialization 750C                 __end_of_abs 750C  
               __end_of_pad 703E       __end_of___fpclassifyf 6C2E       __end_of_LCD_String_xy 7434  
               vfprintf@fmt 0047                    ??___flge 0030                    ??___fleq 0017  
                  ??___lmul 0009                    ??_efgtoa 003A                    ??_floorf 001E  
                  ??_memcpy 0007                    ??_strcat 0003                    ??_strcpy 0004  
                 ___fladd@a 0005                   ___fladd@b 0001                   ___fldiv@a 0005  
                 ___fldiv@b 0001         __end_of_LCD_Command 759A                   ___flmul@a 0013  
                 ___flmul@b 000F                 __pbssCOMRAM 0056                   ___flsub@a 002C  
                 ___flsub@b 0028               __pcstackBANK0 0060                 ??_LCD_Clear 0008  
                  ?_MSdelay 0001                 _efgtoa$1056 0066                   _dtoa$1025 001A  
                  ?___fladd 0001                    ?___fldiv 0001                    ?___awdiv 0001  
                  ?___flneg 0001                    ?___awmod 0001                    ?___flmul 000F  
                  ?___flsub 0028                    ?___fltol 0001                 __smallconst 2000  
                  _ADC_Init 7536       LCD_String_xy@location 000E                    ?_sprintf 008C  
                  MSdelay@i 0003                    MSdelay@j 0005                    _LCD_Char 755E  
                  _LCD_Init 74A2                    _LATDbits 3FBD                 _LCD_Command 757C  
                 _vfpfcnvrt 6120                  _ADCON0bits 3EF8                  vfpfcnvrt@c 0044  
         ___lmul@multiplier 0001                    __Hrparam 0000                   memcpy@tmp 000B  
                vfprintf@ap 0048                    __Lrparam 0000                  vfprintf@fp 0046  
                ?_vfpfcnvrt 003C                  _ANSELAbits 3A40          ___fpclassifyf@F465 0098  
                sprintf@fmt 008D                    ___xxtofl 65F8                  strcat@dest 0001  
                  __ptext10 63E6                    __ptext11 6B30                    __ptext20 67AC  
                  __ptext12 6926                    __ptext21 6FAC                    __ptext13 732A  
                  __ptext30 65F8                    __ptext22 73B4                    __ptext14 5490  
                  __ptext31 73F4                    __ptext23 6E56                    __ptext15 7434  
                  __ptext32 703E                    __ptext24 75A2                    __ptext16 5946  
                  __ptext33 755E                    __ptext25 74D8                    __ptext17 6A2C  
                  __ptext34 74A2                    __ptext26 6DA8                    __ptext18 6F02  
                  __ptext35 759A                    __ptext27 6C2E                    __ptext19 5D90  
                  __ptext36 757C                    __ptext28 70B0                    __ptext37 729A  
                  __ptext29 711E                    __ptext38 7536                  strcpy@dest 0001  
                MSdelay@val 0001                    efgtoa@fp 0034                    efgtoa@ne 0060  
                  efgtoa@pp 0068                    efgtoa@ou 0073                    isa$xinst 0000  
                  _vfprintf 7370                  _LCD_String 703E                    memcpy@d1 0001  
                  memcpy@s1 0003                   sprintf@ap 004A                   strcat@src 0002  
                 strcpy@src 0003                 efgtoa@nmode 006A                 ??_vfpfcnvrt 003F  
                  sprintf@f 004B                    sprintf@s 008C               ___fladd@signs 000D  
              ___fladd@aexp 000E                ___fladd@bexp 000F  
